   1               		.file	"ff.c"
   2               	__SREG__ = 0x3f
   3               	__SP_H__ = 0x3e
   4               	__SP_L__ = 0x3d
   5               	__CCP__  = 0x34
   6               	__tmp_reg__ = 0
   7               	__zero_reg__ = 1
  15               	.Ltext0:
  16               	.global	clust2sect
  18               	clust2sect:
  19               	.LFB8:
  20               	.LM1:
  21               	.LVL0:
  22 0000 EF92      		push r14
  23 0002 FF92      		push r15
  24 0004 0F93      		push r16
  25 0006 1F93      		push r17
  26 0008 CF93      		push r28
  27 000a DF93      		push r29
  28               	/* prologue: function */
  29               	/* frame size = 0 */
  30 000c EC01      		movw r28,r24
  31 000e 7A01      		movw r14,r20
  32 0010 8B01      		movw r16,r22
  33               	.LM2:
  34 0012 8EEF      		ldi r24,lo8(-2)
  35 0014 9FEF      		ldi r25,hi8(-2)
  36 0016 AFEF      		ldi r26,hlo8(-2)
  37 0018 BFEF      		ldi r27,hhi8(-2)
  38               	.LVL1:
  39 001a E80E      		add r14,r24
  40 001c F91E      		adc r15,r25
  41 001e 0A1F      		adc r16,r26
  42 0020 1B1F      		adc r17,r27
  43               	.LVL2:
  44               	.LM3:
  45 0022 8E89      		ldd r24,Y+22
  46 0024 9F89      		ldd r25,Y+23
  47 0026 A88D      		ldd r26,Y+24
  48 0028 B98D      		ldd r27,Y+25
  49 002a 0297      		sbiw r24,2
  50 002c A109      		sbc r26,__zero_reg__
  51 002e B109      		sbc r27,__zero_reg__
  52 0030 E816      		cp r14,r24
  53 0032 F906      		cpc r15,r25
  54 0034 0A07      		cpc r16,r26
  55 0036 1B07      		cpc r17,r27
  56 0038 00F4      		brsh .L6
  57               	.LM4:
  58 003a 2A81      		ldd r18,Y+2
  59 003c 30E0      		ldi r19,lo8(0)
  60 003e 40E0      		ldi r20,lo8(0)
  61 0040 50E0      		ldi r21,hi8(0)
  62 0042 C801      		movw r24,r16
  63 0044 B701      		movw r22,r14
  64 0046 0E94 0000 		call __mulsi3
  65 004a 9B01      		movw r18,r22
  66 004c AC01      		movw r20,r24
  67 004e 8EA1      		ldd r24,Y+38
  68 0050 9FA1      		ldd r25,Y+39
  69 0052 A8A5      		ldd r26,Y+40
  70 0054 B9A5      		ldd r27,Y+41
  71 0056 280F      		add r18,r24
  72 0058 391F      		adc r19,r25
  73 005a 4A1F      		adc r20,r26
  74 005c 5B1F      		adc r21,r27
  75               	.L3:
  76               	.LM5:
  77 005e B901      		movw r22,r18
  78 0060 CA01      		movw r24,r20
  79               	/* epilogue start */
  80 0062 DF91      		pop r29
  81 0064 CF91      		pop r28
  82               	.LVL3:
  83 0066 1F91      		pop r17
  84 0068 0F91      		pop r16
  85 006a FF90      		pop r15
  86 006c EF90      		pop r14
  87               	.LVL4:
  88 006e 0895      		ret
  89               	.LVL5:
  90               	.L6:
  91               	.LM6:
  92 0070 20E0      		ldi r18,lo8(0)
  93 0072 30E0      		ldi r19,hi8(0)
  94 0074 40E0      		ldi r20,hlo8(0)
  95 0076 50E0      		ldi r21,hhi8(0)
  96 0078 00C0      		rjmp .L3
  97               	.LFE8:
  99               	.global	f_mount
 101               	f_mount:
 102               	.LFB24:
 103               	.LM7:
 104               	.LVL6:
 105               	/* prologue: function */
 106               	/* frame size = 0 */
 107 007a FB01      		movw r30,r22
 108               	.LM8:
 109 007c 8823      		tst r24
 110 007e 01F4      		brne .L13
 111               	.LVL7:
 112               	.LM9:
 113 0080 A091 0000 		lds r26,FatFs
 114 0084 B091 0000 		lds r27,(FatFs)+1
 115               	.LVL8:
 116               	.LM10:
 117 0088 1097      		sbiw r26,0
 118 008a 01F0      		breq .L10
 119               	.LM11:
 120 008c 1C92      		st X,__zero_reg__
 121               	.L10:
 122               	.LM12:
 123 008e 3097      		sbiw r30,0
 124 0090 01F0      		breq .L11
 125               	.LM13:
 126 0092 1082      		st Z,__zero_reg__
 127               	.L11:
 128               	.LM14:
 129 0094 F093 0000 		sts (FatFs)+1,r31
 130 0098 E093 0000 		sts FatFs,r30
 131 009c 80E0      		ldi r24,lo8(0)
 132               	.LVL9:
 133               	.LM15:
 134 009e 0895      		ret
 135               	.LVL10:
 136               	.L13:
 137               	.LM16:
 138 00a0 8BE0      		ldi r24,lo8(11)
 139               	.LVL11:
 140 00a2 0895      		ret
 141               	.LFE24:
 144               	validate:
 145               	.LFB23:
 146               	.LM17:
 147               	.LVL12:
 148               	/* prologue: function */
 149               	/* frame size = 0 */
 150 00a4 FC01      		movw r30,r24
 151               	.LM18:
 152 00a6 0097      		sbiw r24,0
 153 00a8 01F0      		breq .L15
 154 00aa 8081      		ld r24,Z
 155               	.LVL13:
 156 00ac 8823      		tst r24
 157 00ae 01F0      		breq .L15
 158 00b0 8681      		ldd r24,Z+6
 159 00b2 9781      		ldd r25,Z+7
 160 00b4 8617      		cp r24,r22
 161 00b6 9707      		cpc r25,r23
 162 00b8 01F0      		breq .L19
 163               	.LVL14:
 164               	.L15:
 165               	.LM19:
 166 00ba 89E0      		ldi r24,lo8(9)
 167               	.LM20:
 168 00bc 0895      		ret
 169               	.L19:
 170               	.LM21:
 171 00be 8181      		ldd r24,Z+1
 172 00c0 0E94 0000 		call disk_status
 173               	.LVL15:
 174 00c4 80FD      		sbrc r24,0
 175 00c6 00C0      		rjmp .L16
 176 00c8 80E0      		ldi r24,lo8(0)
 177 00ca 0895      		ret
 178               	.L16:
 179 00cc 83E0      		ldi r24,lo8(3)
 180 00ce 0895      		ret
 181               	.LFE23:
 184               	move_window:
 185               	.LFB6:
 186               	.LM22:
 187               	.LVL16:
 188 00d0 6F92      		push r6
 189 00d2 7F92      		push r7
 190 00d4 8F92      		push r8
 191 00d6 9F92      		push r9
 192 00d8 AF92      		push r10
 193 00da BF92      		push r11
 194 00dc CF92      		push r12
 195 00de DF92      		push r13
 196 00e0 EF92      		push r14
 197 00e2 FF92      		push r15
 198 00e4 0F93      		push r16
 199 00e6 1F93      		push r17
 200 00e8 CF93      		push r28
 201 00ea DF93      		push r29
 202               	/* prologue: function */
 203               	/* frame size = 0 */
 204 00ec EC01      		movw r28,r24
 205 00ee 4A01      		movw r8,r20
 206 00f0 5B01      		movw r10,r22
 207               	.LM23:
 208 00f2 CAA4      		ldd r12,Y+42
 209 00f4 DBA4      		ldd r13,Y+43
 210 00f6 ECA4      		ldd r14,Y+44
 211 00f8 FDA4      		ldd r15,Y+45
 212               	.LVL17:
 213               	.LM24:
 214 00fa C416      		cp r12,r20
 215 00fc D506      		cpc r13,r21
 216 00fe E606      		cpc r14,r22
 217 0100 F706      		cpc r15,r23
 218 0102 01F0      		breq .L21
 219               	.LVL18:
 220               	.LM25:
 221 0104 8C81      		ldd r24,Y+4
 222 0106 8823      		tst r24
 223 0108 01F4      		brne .L28
 224               	.LVL19:
 225               	.L22:
 226               	.LM26:
 227 010a 8114      		cp r8,__zero_reg__
 228 010c 9104      		cpc r9,__zero_reg__
 229 010e A104      		cpc r10,__zero_reg__
 230 0110 B104      		cpc r11,__zero_reg__
 231 0112 01F0      		breq .+2
 232 0114 00C0      		rjmp .L29
 233               	.LVL20:
 234               	.L21:
 235               	.LM27:
 236 0116 80E0      		ldi r24,lo8(0)
 237               	.LVL21:
 238               	.L25:
 239               	/* epilogue start */
 240               	.LM28:
 241 0118 DF91      		pop r29
 242 011a CF91      		pop r28
 243               	.LVL22:
 244 011c 1F91      		pop r17
 245               	.LVL23:
 246 011e 0F91      		pop r16
 247 0120 FF90      		pop r15
 248 0122 EF90      		pop r14
 249 0124 DF90      		pop r13
 250 0126 CF90      		pop r12
 251               	.LVL24:
 252 0128 BF90      		pop r11
 253 012a AF90      		pop r10
 254 012c 9F90      		pop r9
 255 012e 8F90      		pop r8
 256               	.LVL25:
 257 0130 7F90      		pop r7
 258 0132 6F90      		pop r6
 259 0134 0895      		ret
 260               	.LVL26:
 261               	.L28:
 262               	.LM29:
 263 0136 8EE2      		ldi r24,lo8(46)
 264 0138 682E      		mov r6,r24
 265 013a 712C      		mov r7,__zero_reg__
 266 013c 6C0E      		add r6,r28
 267 013e 7D1E      		adc r7,r29
 268 0140 8981      		ldd r24,Y+1
 269 0142 B301      		movw r22,r6
 270 0144 A701      		movw r20,r14
 271 0146 9601      		movw r18,r12
 272 0148 01E0      		ldi r16,lo8(1)
 273 014a 0E94 0000 		call disk_write
 274               	.LVL27:
 275 014e 8823      		tst r24
 276 0150 01F4      		brne .L23
 277               	.LM30:
 278 0152 1C82      		std Y+4,__zero_reg__
 279               	.LM31:
 280 0154 2A8D      		ldd r18,Y+26
 281 0156 3B8D      		ldd r19,Y+27
 282 0158 4C8D      		ldd r20,Y+28
 283 015a 5D8D      		ldd r21,Y+29
 284 015c 8E8D      		ldd r24,Y+30
 285 015e 9F8D      		ldd r25,Y+31
 286 0160 A8A1      		ldd r26,Y+32
 287 0162 B9A1      		ldd r27,Y+33
 288 0164 820F      		add r24,r18
 289 0166 931F      		adc r25,r19
 290 0168 A41F      		adc r26,r20
 291 016a B51F      		adc r27,r21
 292 016c C816      		cp r12,r24
 293 016e D906      		cpc r13,r25
 294 0170 EA06      		cpc r14,r26
 295 0172 FB06      		cpc r15,r27
 296 0174 00F4      		brsh .L22
 297               	.LBB67:
 298               	.LM32:
 299 0176 1B81      		ldd r17,Y+3
 300               	.LVL28:
 301 0178 1230      		cpi r17,lo8(2)
 302 017a 00F4      		brsh .L27
 303 017c 00C0      		rjmp .L22
 304               	.L30:
 305 017e 2A8D      		ldd r18,Y+26
 306 0180 3B8D      		ldd r19,Y+27
 307 0182 4C8D      		ldd r20,Y+28
 308 0184 5D8D      		ldd r21,Y+29
 309               	.L27:
 310               	.LM33:
 311 0186 C20E      		add r12,r18
 312 0188 D31E      		adc r13,r19
 313 018a E41E      		adc r14,r20
 314 018c F51E      		adc r15,r21
 315               	.LM34:
 316 018e 8981      		ldd r24,Y+1
 317 0190 B301      		movw r22,r6
 318 0192 A701      		movw r20,r14
 319 0194 9601      		movw r18,r12
 320 0196 01E0      		ldi r16,lo8(1)
 321 0198 0E94 0000 		call disk_write
 322               	.LM35:
 323 019c 1150      		subi r17,lo8(-(-1))
 324 019e 1230      		cpi r17,lo8(2)
 325 01a0 00F4      		brsh .L30
 326 01a2 00C0      		rjmp .L22
 327               	.LVL29:
 328               	.L29:
 329               	.LBE67:
 330               	.LM36:
 331 01a4 BE01      		movw r22,r28
 332 01a6 625D      		subi r22,lo8(-(46))
 333 01a8 7F4F      		sbci r23,hi8(-(46))
 334 01aa 8981      		ldd r24,Y+1
 335 01ac A501      		movw r20,r10
 336 01ae 9401      		movw r18,r8
 337 01b0 01E0      		ldi r16,lo8(1)
 338 01b2 0E94 0000 		call disk_read
 339 01b6 8823      		tst r24
 340 01b8 01F4      		brne .L23
 341               	.LM37:
 342 01ba 8AA6      		std Y+42,r8
 343 01bc 9BA6      		std Y+43,r9
 344 01be ACA6      		std Y+44,r10
 345 01c0 BDA6      		std Y+45,r11
 346 01c2 00C0      		rjmp .L25
 347               	.L23:
 348 01c4 81E0      		ldi r24,lo8(1)
 349 01c6 00C0      		rjmp .L25
 350               	.LFE6:
 352               	.global	put_fat
 354               	put_fat:
 355               	.LFB10:
 356               	.LM38:
 357               	.LVL30:
 358 01c8 6F92      		push r6
 359 01ca 7F92      		push r7
 360 01cc 8F92      		push r8
 361 01ce 9F92      		push r9
 362 01d0 AF92      		push r10
 363 01d2 BF92      		push r11
 364 01d4 CF92      		push r12
 365 01d6 DF92      		push r13
 366 01d8 EF92      		push r14
 367 01da FF92      		push r15
 368 01dc 0F93      		push r16
 369               	.LVL31:
 370 01de 1F93      		push r17
 371 01e0 CF93      		push r28
 372 01e2 DF93      		push r29
 373               	/* prologue: function */
 374               	/* frame size = 0 */
 375 01e4 EC01      		movw r28,r24
 376 01e6 6A01      		movw r12,r20
 377 01e8 7B01      		movw r14,r22
 378 01ea 4801      		movw r8,r16
 379 01ec 5901      		movw r10,r18
 380               	.LVL32:
 381               	.LM39:
 382 01ee 4230      		cpi r20,lo8(2)
 383 01f0 5105      		cpc r21,__zero_reg__
 384 01f2 6105      		cpc r22,__zero_reg__
 385 01f4 7105      		cpc r23,__zero_reg__
 386               	.LVL33:
 387 01f6 00F0      		brlo .L32
 388               	.LVL34:
 389 01f8 8E89      		ldd r24,Y+22
 390 01fa 9F89      		ldd r25,Y+23
 391 01fc A88D      		ldd r26,Y+24
 392 01fe B98D      		ldd r27,Y+25
 393 0200 4817      		cp r20,r24
 394 0202 5907      		cpc r21,r25
 395 0204 6A07      		cpc r22,r26
 396 0206 7B07      		cpc r23,r27
 397 0208 00F4      		brsh .L32
 398               	.LM40:
 399 020a 8881      		ld r24,Y
 400 020c 8230      		cpi r24,lo8(2)
 401 020e 01F4      		brne .+2
 402 0210 00C0      		rjmp .L35
 403 0212 8330      		cpi r24,lo8(3)
 404 0214 01F4      		brne .+2
 405 0216 00C0      		rjmp .L36
 406 0218 8130      		cpi r24,lo8(1)
 407 021a 01F0      		breq .L34
 408 021c 12E0      		ldi r17,lo8(2)
 409               	.LVL35:
 410               	.L37:
 411               	.LM41:
 412 021e 81E0      		ldi r24,lo8(1)
 413 0220 8C83      		std Y+4,r24
 414 0222 00C0      		rjmp .L42
 415               	.LVL36:
 416               	.L32:
 417 0224 12E0      		ldi r17,lo8(2)
 418               	.LVL37:
 419               	.L42:
 420               	.LM42:
 421 0226 812F      		mov r24,r17
 422               	/* epilogue start */
 423 0228 DF91      		pop r29
 424 022a CF91      		pop r28
 425               	.LVL38:
 426 022c 1F91      		pop r17
 427               	.LVL39:
 428 022e 0F91      		pop r16
 429 0230 FF90      		pop r15
 430 0232 EF90      		pop r14
 431               	.LVL40:
 432 0234 DF90      		pop r13
 433 0236 CF90      		pop r12
 434 0238 BF90      		pop r11
 435 023a AF90      		pop r10
 436 023c 9F90      		pop r9
 437 023e 8F90      		pop r8
 438               	.LVL41:
 439 0240 7F90      		pop r7
 440 0242 6F90      		pop r6
 441               	.LVL42:
 442 0244 0895      		ret
 443               	.LVL43:
 444               	.L34:
 445               	.LM43:
 446 0246 3A01      		movw r6,r20
 447               	.LVL44:
 448 0248 7694      		lsr r7
 449 024a 6794      		ror r6
 450               	.LVL45:
 451 024c 640E      		add r6,r20
 452 024e 751E      		adc r7,r21
 453               	.LM44:
 454 0250 A301      		movw r20,r6
 455               	.LVL46:
 456 0252 452F      		mov r20,r21
 457 0254 5527      		clr r21
 458 0256 4695      		lsr r20
 459 0258 60E0      		ldi r22,lo8(0)
 460 025a 70E0      		ldi r23,hi8(0)
 461 025c 8E8D      		ldd r24,Y+30
 462 025e 9F8D      		ldd r25,Y+31
 463 0260 A8A1      		ldd r26,Y+32
 464 0262 B9A1      		ldd r27,Y+33
 465 0264 480F      		add r20,r24
 466 0266 591F      		adc r21,r25
 467 0268 6A1F      		adc r22,r26
 468 026a 7B1F      		adc r23,r27
 469 026c CE01      		movw r24,r28
 470 026e 0E94 0000 		call move_window
 471 0272 182F      		mov r17,r24
 472               	.LVL47:
 473               	.LM45:
 474 0274 8823      		tst r24
 475 0276 01F4      		brne .L37
 476               	.LVL48:
 477               	.LM46:
 478 0278 9301      		movw r18,r6
 479 027a 3170      		andi r19,hi8(511)
 480               	.LM47:
 481 027c A1E0      		ldi r26,lo8(1)
 482 027e CA22      		and r12,r26
 483 0280 DD24      		clr r13
 484               	.LVL49:
 485 0282 C114      		cp r12,__zero_reg__
 486 0284 D104      		cpc r13,__zero_reg__
 487 0286 01F0      		breq .+2
 488 0288 00C0      		rjmp .L44
 489 028a 982D      		mov r25,r8
 490 028c FE01      		movw r30,r28
 491 028e E20F      		add r30,r18
 492 0290 F31F      		adc r31,r19
 493               	.LVL50:
 494               	.L39:
 495 0292 96A7      		std Z+46,r25
 496               	.LM48:
 497 0294 7301      		movw r14,r6
 498 0296 0894      		sec
 499 0298 E11C      		adc r14,__zero_reg__
 500 029a F11C      		adc r15,__zero_reg__
 501               	.LVL51:
 502               	.LM49:
 503 029c 81E0      		ldi r24,lo8(1)
 504 029e 8C83      		std Y+4,r24
 505               	.LM50:
 506 02a0 A701      		movw r20,r14
 507 02a2 452F      		mov r20,r21
 508 02a4 5527      		clr r21
 509 02a6 4695      		lsr r20
 510 02a8 60E0      		ldi r22,lo8(0)
 511 02aa 70E0      		ldi r23,hi8(0)
 512 02ac 8E8D      		ldd r24,Y+30
 513 02ae 9F8D      		ldd r25,Y+31
 514 02b0 A8A1      		ldd r26,Y+32
 515 02b2 B9A1      		ldd r27,Y+33
 516 02b4 480F      		add r20,r24
 517 02b6 591F      		adc r21,r25
 518 02b8 6A1F      		adc r22,r26
 519 02ba 7B1F      		adc r23,r27
 520 02bc CE01      		movw r24,r28
 521 02be 0E94 0000 		call move_window
 522 02c2 182F      		mov r17,r24
 523               	.LM51:
 524 02c4 8823      		tst r24
 525 02c6 01F0      		breq .+2
 526 02c8 00C0      		rjmp .L37
 527               	.LVL52:
 528               	.LM52:
 529 02ca A701      		movw r20,r14
 530 02cc 5170      		andi r21,hi8(511)
 531               	.LM53:
 532 02ce CD28      		or r12,r13
 533 02d0 01F4      		brne .+2
 534 02d2 00C0      		rjmp .L40
 535 02d4 84E0      		ldi r24,4
 536 02d6 B694      	1:	lsr r11
 537 02d8 A794      		ror r10
 538 02da 9794      		ror r9
 539 02dc 8794      		ror r8
 540 02de 8A95      		dec r24
 541 02e0 01F4      		brne 1b
 542               	.LVL53:
 543 02e2 682D      		mov r22,r8
 544 02e4 FE01      		movw r30,r28
 545 02e6 E40F      		add r30,r20
 546 02e8 F51F      		adc r31,r21
 547 02ea 66A7      		std Z+46,r22
 548 02ec 00C0      		rjmp .L37
 549               	.LVL54:
 550               	.L36:
 551               	.LM54:
 552 02ee E7E0      		ldi r30,7
 553 02f0 7695      	1:	lsr r23
 554 02f2 6795      		ror r22
 555 02f4 5795      		ror r21
 556 02f6 4795      		ror r20
 557 02f8 EA95      		dec r30
 558 02fa 01F4      		brne 1b
 559               	.LVL55:
 560 02fc 8E8D      		ldd r24,Y+30
 561 02fe 9F8D      		ldd r25,Y+31
 562 0300 A8A1      		ldd r26,Y+32
 563 0302 B9A1      		ldd r27,Y+33
 564 0304 480F      		add r20,r24
 565 0306 591F      		adc r21,r25
 566 0308 6A1F      		adc r22,r26
 567 030a 7B1F      		adc r23,r27
 568 030c CE01      		movw r24,r28
 569 030e 0E94 0000 		call move_window
 570 0312 182F      		mov r17,r24
 571               	.LVL56:
 572               	.LM55:
 573 0314 8823      		tst r24
 574 0316 01F0      		breq .+2
 575 0318 00C0      		rjmp .L37
 576               	.LVL57:
 577               	.LM56:
 578 031a CC0C      		lsl r12
 579 031c DD1C      		rol r13
 580 031e EE1C      		rol r14
 581 0320 FF1C      		rol r15
 582 0322 CC0C      		lsl r12
 583 0324 DD1C      		rol r13
 584 0326 EE1C      		rol r14
 585 0328 FF1C      		rol r15
 586 032a F601      		movw r30,r12
 587               	.LVL58:
 588 032c F170      		andi r31,hi8(511)
 589 032e BE96      		adiw r30,46
 590 0330 BE01      		movw r22,r28
 591               	.LVL59:
 592 0332 6E0F      		add r22,r30
 593 0334 7F1F      		adc r23,r31
 594 0336 BE97      		sbiw r30,46
 595               	.LM57:
 596 0338 DB01      		movw r26,r22
 597 033a 1396      		adiw r26,3
 598 033c 8C91      		ld r24,X
 599               	.LVL60:
 600 033e 90E0      		ldi r25,lo8(0)
 601 0340 A0E0      		ldi r26,lo8(0)
 602 0342 B0E0      		ldi r27,hi8(0)
 603 0344 B82F      		mov r27,r24
 604 0346 AA27      		clr r26
 605 0348 9927      		clr r25
 606 034a 8827      		clr r24
 607               	.LVL61:
 608 034c EC0F      		add r30,r28
 609 034e FD1F      		adc r31,r29
 610 0350 8070      		andi r24,lo8(-268435456)
 611 0352 9070      		andi r25,hi8(-268435456)
 612 0354 A070      		andi r26,hlo8(-268435456)
 613 0356 B07F      		andi r27,hhi8(-268435456)
 614 0358 8829      		or r24,r8
 615 035a 9929      		or r25,r9
 616 035c AA29      		or r26,r10
 617 035e BB29      		or r27,r11
 618               	.LM58:
 619 0360 86A7      		std Z+46,r24
 620 0362 292F      		mov r18,r25
 621 0364 3327      		clr r19
 622 0366 FB01      		movw r30,r22
 623 0368 2183      		std Z+1,r18
 624 036a 9D01      		movw r18,r26
 625 036c 4427      		clr r20
 626 036e 5527      		clr r21
 627 0370 2283      		std Z+2,r18
 628 0372 8B2F      		mov r24,r27
 629 0374 9927      		clr r25
 630 0376 AA27      		clr r26
 631 0378 BB27      		clr r27
 632               	.LVL62:
 633 037a 8383      		std Z+3,r24
 634 037c 00C0      		rjmp .L37
 635               	.LVL63:
 636               	.L35:
 637               	.LM59:
 638 037e 452F      		mov r20,r21
 639 0380 562F      		mov r21,r22
 640 0382 672F      		mov r22,r23
 641 0384 7727      		clr r23
 642               	.LVL64:
 643 0386 8E8D      		ldd r24,Y+30
 644 0388 9F8D      		ldd r25,Y+31
 645 038a A8A1      		ldd r26,Y+32
 646 038c B9A1      		ldd r27,Y+33
 647 038e 480F      		add r20,r24
 648 0390 591F      		adc r21,r25
 649 0392 6A1F      		adc r22,r26
 650 0394 7B1F      		adc r23,r27
 651 0396 CE01      		movw r24,r28
 652 0398 0E94 0000 		call move_window
 653 039c 182F      		mov r17,r24
 654               	.LVL65:
 655               	.LM60:
 656 039e 8823      		tst r24
 657 03a0 01F0      		breq .+2
 658 03a2 00C0      		rjmp .L37
 659               	.LVL66:
 660               	.LM61:
 661 03a4 CC0C      		lsl r12
 662 03a6 DD1C      		rol r13
 663 03a8 EE1C      		rol r14
 664 03aa FF1C      		rol r15
 665 03ac F601      		movw r30,r12
 666               	.LVL67:
 667 03ae F170      		andi r31,hi8(511)
 668               	.LM62:
 669 03b0 DE01      		movw r26,r28
 670 03b2 AE0F      		add r26,r30
 671 03b4 BF1F      		adc r27,r31
 672 03b6 9E96      		adiw r26,46
 673 03b8 8C92      		st X,r8
 674 03ba 9E97      		sbiw r26,46
 675 03bc FD01      		movw r30,r26
 676 03be 892D      		mov r24,r9
 677 03c0 9927      		clr r25
 678               	.LVL68:
 679 03c2 87A7      		std Z+47,r24
 680 03c4 00C0      		rjmp .L37
 681               	.LVL69:
 682               	.L44:
 683               	.LM63:
 684 03c6 FE01      		movw r30,r28
 685 03c8 E20F      		add r30,r18
 686 03ca F31F      		adc r31,r19
 687 03cc 86A5      		ldd r24,Z+46
 688               	.LVL70:
 689 03ce 8F70      		andi r24,lo8(15)
 690 03d0 982D      		mov r25,r8
 691               	.LVL71:
 692 03d2 9295      		swap r25
 693 03d4 907F      		andi r25,lo8(-16)
 694 03d6 982B      		or r25,r24
 695 03d8 00C0      		rjmp .L39
 696               	.LVL72:
 697               	.L40:
 698               	.LM64:
 699 03da FE01      		movw r30,r28
 700 03dc E40F      		add r30,r20
 701 03de F51F      		adc r31,r21
 702 03e0 66A5      		ldd r22,Z+46
 703 03e2 607F      		andi r22,lo8(-16)
 704 03e4 BB27      		clr r27
 705 03e6 AB2D      		mov r26,r11
 706 03e8 9A2D      		mov r25,r10
 707 03ea 892D      		mov r24,r9
 708               	.LVL73:
 709 03ec 8F70      		andi r24,lo8(15)
 710 03ee 682B      		or r22,r24
 711 03f0 66A7      		std Z+46,r22
 712 03f2 00C0      		rjmp .L37
 713               	.LFE10:
 715               	.global	get_fat
 717               	get_fat:
 718               	.LFB9:
 719               	.LM65:
 720               	.LVL74:
 721 03f4 BF92      		push r11
 722 03f6 CF92      		push r12
 723 03f8 DF92      		push r13
 724 03fa EF92      		push r14
 725 03fc FF92      		push r15
 726 03fe 0F93      		push r16
 727 0400 1F93      		push r17
 728 0402 CF93      		push r28
 729 0404 DF93      		push r29
 730               	/* prologue: function */
 731               	/* frame size = 0 */
 732 0406 EC01      		movw r28,r24
 733 0408 7A01      		movw r14,r20
 734 040a 8B01      		movw r16,r22
 735               	.LM66:
 736 040c 4230      		cpi r20,lo8(2)
 737 040e 5105      		cpc r21,__zero_reg__
 738 0410 6105      		cpc r22,__zero_reg__
 739 0412 7105      		cpc r23,__zero_reg__
 740               	.LVL75:
 741 0414 00F0      		brlo .L46
 742 0416 8E89      		ldd r24,Y+22
 743 0418 9F89      		ldd r25,Y+23
 744 041a A88D      		ldd r26,Y+24
 745 041c B98D      		ldd r27,Y+25
 746 041e 4817      		cp r20,r24
 747 0420 5907      		cpc r21,r25
 748 0422 6A07      		cpc r22,r26
 749 0424 7B07      		cpc r23,r27
 750 0426 00F4      		brsh .L46
 751               	.LM67:
 752 0428 8881      		ld r24,Y
 753 042a 8230      		cpi r24,lo8(2)
 754 042c 01F4      		brne .+2
 755 042e 00C0      		rjmp .L49
 756 0430 8330      		cpi r24,lo8(3)
 757 0432 01F4      		brne .+2
 758 0434 00C0      		rjmp .L50
 759 0436 8130      		cpi r24,lo8(1)
 760 0438 01F0      		breq .L54
 761               	.LVL76:
 762               	.L47:
 763               	.LM68:
 764 043a EE24      		clr r14
 765 043c EA94      		dec r14
 766 043e FE2C      		mov r15,r14
 767 0440 8701      		movw r16,r14
 768               	.LVL77:
 769 0442 00C0      		rjmp .L52
 770               	.LVL78:
 771               	.L46:
 772 0444 41E0      		ldi r20,lo8(1)
 773 0446 E42E      		mov r14,r20
 774 0448 F12C      		mov r15,__zero_reg__
 775 044a 012D      		mov r16,__zero_reg__
 776 044c 112D      		mov r17,__zero_reg__
 777               	.LVL79:
 778               	.L52:
 779               	.LM69:
 780 044e B701      		movw r22,r14
 781 0450 C801      		movw r24,r16
 782               	/* epilogue start */
 783 0452 DF91      		pop r29
 784 0454 CF91      		pop r28
 785               	.LVL80:
 786 0456 1F91      		pop r17
 787 0458 0F91      		pop r16
 788 045a FF90      		pop r15
 789 045c EF90      		pop r14
 790 045e DF90      		pop r13
 791 0460 CF90      		pop r12
 792               	.LVL81:
 793 0462 BF90      		pop r11
 794 0464 0895      		ret
 795               	.LVL82:
 796               	.L54:
 797               	.LM70:
 798 0466 6A01      		movw r12,r20
 799               	.LVL83:
 800 0468 D694      		lsr r13
 801 046a C794      		ror r12
 802               	.LVL84:
 803 046c C40E      		add r12,r20
 804 046e D51E      		adc r13,r21
 805               	.LM71:
 806 0470 A601      		movw r20,r12
 807               	.LVL85:
 808 0472 452F      		mov r20,r21
 809 0474 5527      		clr r21
 810 0476 4695      		lsr r20
 811 0478 60E0      		ldi r22,lo8(0)
 812 047a 70E0      		ldi r23,hi8(0)
 813 047c 8E8D      		ldd r24,Y+30
 814 047e 9F8D      		ldd r25,Y+31
 815 0480 A8A1      		ldd r26,Y+32
 816 0482 B9A1      		ldd r27,Y+33
 817 0484 480F      		add r20,r24
 818 0486 591F      		adc r21,r25
 819 0488 6A1F      		adc r22,r26
 820 048a 7B1F      		adc r23,r27
 821 048c CE01      		movw r24,r28
 822 048e 0E94 0000 		call move_window
 823 0492 8823      		tst r24
 824 0494 01F4      		brne .L47
 825               	.LM72:
 826 0496 F601      		movw r30,r12
 827 0498 F170      		andi r31,hi8(511)
 828 049a EC0F      		add r30,r28
 829 049c FD1F      		adc r31,r29
 830 049e B6A4      		ldd r11,Z+46
 831 04a0 0894      		sec
 832 04a2 C11C      		adc r12,__zero_reg__
 833 04a4 D11C      		adc r13,__zero_reg__
 834               	.LVL86:
 835               	.LM73:
 836 04a6 A601      		movw r20,r12
 837 04a8 452F      		mov r20,r21
 838 04aa 5527      		clr r21
 839 04ac 4695      		lsr r20
 840 04ae 60E0      		ldi r22,lo8(0)
 841 04b0 70E0      		ldi r23,hi8(0)
 842 04b2 8E8D      		ldd r24,Y+30
 843 04b4 9F8D      		ldd r25,Y+31
 844 04b6 A8A1      		ldd r26,Y+32
 845 04b8 B9A1      		ldd r27,Y+33
 846 04ba 480F      		add r20,r24
 847 04bc 591F      		adc r21,r25
 848 04be 6A1F      		adc r22,r26
 849 04c0 7B1F      		adc r23,r27
 850 04c2 CE01      		movw r24,r28
 851 04c4 0E94 0000 		call move_window
 852 04c8 8823      		tst r24
 853 04ca 01F0      		breq .+2
 854 04cc 00C0      		rjmp .L47
 855               	.LM74:
 856 04ce 2B2D      		mov r18,r11
 857               	.LVL87:
 858 04d0 30E0      		ldi r19,lo8(0)
 859               	.LVL88:
 860               	.LM75:
 861 04d2 AFEF      		ldi r26,lo8(511)
 862 04d4 B1E0      		ldi r27,hi8(511)
 863 04d6 CA22      		and r12,r26
 864 04d8 DB22      		and r13,r27
 865 04da CC0E      		add r12,r28
 866 04dc DD1E      		adc r13,r29
 867 04de F601      		movw r30,r12
 868 04e0 96A5      		ldd r25,Z+46
 869 04e2 80E0      		ldi r24,lo8(0)
 870 04e4 282B      		or r18,r24
 871 04e6 392B      		or r19,r25
 872               	.LVL89:
 873               	.LM76:
 874 04e8 C701      		movw r24,r14
 875               	.LVL90:
 876 04ea 8170      		andi r24,lo8(1)
 877 04ec 9070      		andi r25,hi8(1)
 878 04ee 892B      		or r24,r25
 879 04f0 01F4      		brne .+2
 880 04f2 00C0      		rjmp .L51
 881 04f4 3295      		swap r19
 882 04f6 2295      		swap r18
 883 04f8 2F70      		andi r18,0x0f
 884 04fa 2327      		eor r18,r19
 885 04fc 3F70      		andi r19,0x0f
 886 04fe 2327      		eor r18,r19
 887 0500 7901      		movw r14,r18
 888 0502 00E0      		ldi r16,lo8(0)
 889 0504 10E0      		ldi r17,hi8(0)
 890 0506 00C0      		rjmp .L52
 891               	.LVL91:
 892               	.L50:
 893               	.LM77:
 894 0508 E7E0      		ldi r30,7
 895 050a 7695      	1:	lsr r23
 896 050c 6795      		ror r22
 897 050e 5795      		ror r21
 898 0510 4795      		ror r20
 899 0512 EA95      		dec r30
 900 0514 01F4      		brne 1b
 901               	.LVL92:
 902 0516 8E8D      		ldd r24,Y+30
 903 0518 9F8D      		ldd r25,Y+31
 904 051a A8A1      		ldd r26,Y+32
 905 051c B9A1      		ldd r27,Y+33
 906 051e 480F      		add r20,r24
 907 0520 591F      		adc r21,r25
 908 0522 6A1F      		adc r22,r26
 909 0524 7B1F      		adc r23,r27
 910 0526 CE01      		movw r24,r28
 911 0528 0E94 0000 		call move_window
 912 052c 8823      		tst r24
 913 052e 01F0      		breq .+2
 914 0530 00C0      		rjmp .L47
 915               	.LM78:
 916 0532 EE0C      		lsl r14
 917 0534 FF1C      		rol r15
 918 0536 001F      		rol r16
 919 0538 111F      		rol r17
 920 053a EE0C      		lsl r14
 921 053c FF1C      		rol r15
 922 053e 001F      		rol r16
 923 0540 111F      		rol r17
 924 0542 F701      		movw r30,r14
 925               	.LVL93:
 926 0544 F170      		andi r31,hi8(511)
 927 0546 BE96      		adiw r30,46
 928 0548 9E01      		movw r18,r28
 929               	.LVL94:
 930 054a 2E0F      		add r18,r30
 931 054c 3F1F      		adc r19,r31
 932 054e BE97      		sbiw r30,46
 933               	.LM79:
 934 0550 D901      		movw r26,r18
 935 0552 1296      		adiw r26,2
 936 0554 8C91      		ld r24,X
 937 0556 90E0      		ldi r25,lo8(0)
 938 0558 A0E0      		ldi r26,lo8(0)
 939 055a B0E0      		ldi r27,hi8(0)
 940 055c 8C01      		movw r16,r24
 941 055e FF24      		clr r15
 942 0560 EE24      		clr r14
 943 0562 D901      		movw r26,r18
 944 0564 1396      		adiw r26,3
 945 0566 8C91      		ld r24,X
 946 0568 90E0      		ldi r25,lo8(0)
 947 056a A0E0      		ldi r26,lo8(0)
 948 056c B0E0      		ldi r27,hi8(0)
 949 056e B82F      		mov r27,r24
 950 0570 AA27      		clr r26
 951 0572 9927      		clr r25
 952 0574 8827      		clr r24
 953 0576 E82A      		or r14,r24
 954 0578 F92A      		or r15,r25
 955 057a 0A2B      		or r16,r26
 956 057c 1B2B      		or r17,r27
 957 057e D901      		movw r26,r18
 958 0580 1196      		adiw r26,1
 959 0582 9C91      		ld r25,X
 960 0584 80E0      		ldi r24,lo8(0)
 961 0586 A0E0      		ldi r26,lo8(0)
 962 0588 B0E0      		ldi r27,hi8(0)
 963 058a E82A      		or r14,r24
 964 058c F92A      		or r15,r25
 965 058e 0A2B      		or r16,r26
 966 0590 1B2B      		or r17,r27
 967 0592 EC0F      		add r30,r28
 968 0594 FD1F      		adc r31,r29
 969 0596 86A5      		ldd r24,Z+46
 970 0598 90E0      		ldi r25,lo8(0)
 971 059a A0E0      		ldi r26,lo8(0)
 972 059c B0E0      		ldi r27,hi8(0)
 973 059e E82A      		or r14,r24
 974 05a0 F92A      		or r15,r25
 975 05a2 0A2B      		or r16,r26
 976 05a4 1B2B      		or r17,r27
 977 05a6 8FEF      		ldi r24,lo8(268435455)
 978 05a8 9FEF      		ldi r25,hi8(268435455)
 979 05aa AFEF      		ldi r26,hlo8(268435455)
 980 05ac BFE0      		ldi r27,hhi8(268435455)
 981 05ae E822      		and r14,r24
 982 05b0 F922      		and r15,r25
 983 05b2 0A23      		and r16,r26
 984 05b4 1B23      		and r17,r27
 985 05b6 00C0      		rjmp .L52
 986               	.LVL95:
 987               	.L49:
 988               	.LM80:
 989 05b8 452F      		mov r20,r21
 990 05ba 562F      		mov r21,r22
 991 05bc 672F      		mov r22,r23
 992 05be 7727      		clr r23
 993               	.LVL96:
 994 05c0 8E8D      		ldd r24,Y+30
 995 05c2 9F8D      		ldd r25,Y+31
 996 05c4 A8A1      		ldd r26,Y+32
 997 05c6 B9A1      		ldd r27,Y+33
 998 05c8 480F      		add r20,r24
 999 05ca 591F      		adc r21,r25
 1000 05cc 6A1F      		adc r22,r26
 1001 05ce 7B1F      		adc r23,r27
 1002 05d0 CE01      		movw r24,r28
 1003 05d2 0E94 0000 		call move_window
 1004 05d6 8823      		tst r24
 1005 05d8 01F0      		breq .+2
 1006 05da 00C0      		rjmp .L47
 1007               	.LM81:
 1008 05dc EE0C      		lsl r14
 1009 05de FF1C      		rol r15
 1010 05e0 001F      		rol r16
 1011 05e2 111F      		rol r17
 1012 05e4 D701      		movw r26,r14
 1013               	.LVL97:
 1014 05e6 B170      		andi r27,hi8(511)
 1015               	.LM82:
 1016 05e8 FE01      		movw r30,r28
 1017 05ea EA0F      		add r30,r26
 1018 05ec FB1F      		adc r31,r27
 1019 05ee 26A5      		ldd r18,Z+46
 1020 05f0 30E0      		ldi r19,lo8(0)
 1021 05f2 97A5      		ldd r25,Z+47
 1022 05f4 80E0      		ldi r24,lo8(0)
 1023 05f6 282B      		or r18,r24
 1024 05f8 392B      		or r19,r25
 1025 05fa 7901      		movw r14,r18
 1026 05fc 00E0      		ldi r16,lo8(0)
 1027 05fe 10E0      		ldi r17,hi8(0)
 1028 0600 00C0      		rjmp .L52
 1029               	.LVL98:
 1030               	.L51:
 1031               	.LM83:
 1032 0602 7901      		movw r14,r18
 1033 0604 00E0      		ldi r16,lo8(0)
 1034 0606 10E0      		ldi r17,hi8(0)
 1035 0608 8FEF      		ldi r24,lo8(4095)
 1036 060a 9FE0      		ldi r25,hi8(4095)
 1037 060c A0E0      		ldi r26,hlo8(4095)
 1038 060e B0E0      		ldi r27,hhi8(4095)
 1039 0610 E822      		and r14,r24
 1040 0612 F922      		and r15,r25
 1041 0614 0A23      		and r16,r26
 1042 0616 1B23      		and r17,r27
 1043 0618 00C0      		rjmp .L52
 1044               	.LFE9:
 1047               	dir_sdi:
 1048               	.LFB13:
 1049               	.LM84:
 1050               	.LVL99:
 1051 061a 8F92      		push r8
 1052 061c 9F92      		push r9
 1053 061e AF92      		push r10
 1054 0620 BF92      		push r11
 1055 0622 CF92      		push r12
 1056 0624 DF92      		push r13
 1057 0626 EF92      		push r14
 1058 0628 FF92      		push r15
 1059 062a 0F93      		push r16
 1060 062c 1F93      		push r17
 1061 062e CF93      		push r28
 1062 0630 DF93      		push r29
 1063               	/* prologue: function */
 1064               	/* frame size = 0 */
 1065 0632 6C01      		movw r12,r24
 1066 0634 7B01      		movw r14,r22
 1067               	.LM85:
 1068 0636 FC01      		movw r30,r24
 1069 0638 7583      		std Z+5,r23
 1070 063a 6483      		std Z+4,r22
 1071               	.LM86:
 1072 063c 4681      		ldd r20,Z+6
 1073 063e 5781      		ldd r21,Z+7
 1074 0640 6085      		ldd r22,Z+8
 1075 0642 7185      		ldd r23,Z+9
 1076               	.LVL100:
 1077               	.LM87:
 1078 0644 4130      		cpi r20,lo8(1)
 1079 0646 5105      		cpc r21,__zero_reg__
 1080 0648 6105      		cpc r22,__zero_reg__
 1081 064a 7105      		cpc r23,__zero_reg__
 1082 064c 01F4      		brne .+2
 1083 064e 00C0      		rjmp .L56
 1084 0650 C081      		ld r28,Z
 1085 0652 D181      		ldd r29,Z+1
 1086 0654 8E89      		ldd r24,Y+22
 1087 0656 9F89      		ldd r25,Y+23
 1088 0658 A88D      		ldd r26,Y+24
 1089 065a B98D      		ldd r27,Y+25
 1090               	.LVL101:
 1091 065c 4817      		cp r20,r24
 1092 065e 5907      		cpc r21,r25
 1093 0660 6A07      		cpc r22,r26
 1094 0662 7B07      		cpc r23,r27
 1095 0664 00F0      		brlo .+2
 1096 0666 00C0      		rjmp .L56
 1097               	.LM88:
 1098 0668 4115      		cp r20,__zero_reg__
 1099 066a 5105      		cpc r21,__zero_reg__
 1100 066c 6105      		cpc r22,__zero_reg__
 1101 066e 7105      		cpc r23,__zero_reg__
 1102 0670 01F4      		brne .+2
 1103 0672 00C0      		rjmp .L67
 1104               	.L57:
 1105               	.LM89:
 1106 0674 8A81      		ldd r24,Y+2
 1107 0676 082F      		mov r16,r24
 1108               	.LVL102:
 1109 0678 10E0      		ldi r17,lo8(0)
 1110               	.LVL103:
 1111 067a 0295      		swap r16
 1112 067c 1295      		swap r17
 1113 067e 107F      		andi r17,0xf0
 1114 0680 1027      		eor r17,r16
 1115 0682 007F      		andi r16,0xf0
 1116 0684 1027      		eor r17,r16
 1117               	.LVL104:
 1118               	.LM90:
 1119 0686 E016      		cp r14,r16
 1120 0688 F106      		cpc r15,r17
 1121 068a 00F4      		brsh .+2
 1122 068c 00C0      		rjmp .L60
 1123               	.LVL105:
 1124 068e AA24      		clr r10
 1125 0690 BB24      		clr r11
 1126 0692 A01A      		sub r10,r16
 1127 0694 B10A      		sbc r11,r17
 1128 0696 E01A      		sub r14,r16
 1129 0698 F10A      		sbc r15,r17
 1130 069a 00C0      		rjmp .L63
 1131               	.L61:
 1132               	.LM91:
 1133 069c 4230      		cpi r20,lo8(2)
 1134 069e 5105      		cpc r21,__zero_reg__
 1135 06a0 6105      		cpc r22,__zero_reg__
 1136 06a2 7105      		cpc r23,__zero_reg__
 1137 06a4 00F0      		brlo .L56
 1138 06a6 F601      		movw r30,r12
 1139 06a8 C081      		ld r28,Z
 1140 06aa D181      		ldd r29,Z+1
 1141 06ac 8E89      		ldd r24,Y+22
 1142 06ae 9F89      		ldd r25,Y+23
 1143 06b0 A88D      		ldd r26,Y+24
 1144 06b2 B98D      		ldd r27,Y+25
 1145 06b4 4817      		cp r20,r24
 1146 06b6 5907      		cpc r21,r25
 1147 06b8 6A07      		cpc r22,r26
 1148 06ba 7B07      		cpc r23,r27
 1149 06bc 00F4      		brsh .L56
 1150 06be 9701      		movw r18,r14
 1151 06c0 2A0D      		add r18,r10
 1152 06c2 3B1D      		adc r19,r11
 1153               	.LVL106:
 1154               	.LM92:
 1155 06c4 C901      		movw r24,r18
 1156 06c6 800F      		add r24,r16
 1157 06c8 911F      		adc r25,r17
 1158 06ca 8017      		cp r24,r16
 1159 06cc 9107      		cpc r25,r17
 1160 06ce 00F4      		brsh .+2
 1161 06d0 00C0      		rjmp .L60
 1162 06d2 7901      		movw r14,r18
 1163               	.LVL107:
 1164               	.L63:
 1165               	.LM93:
 1166 06d4 CE01      		movw r24,r28
 1167 06d6 0E94 0000 		call get_fat
 1168               	.LVL108:
 1169 06da AB01      		movw r20,r22
 1170 06dc BC01      		movw r22,r24
 1171               	.LVL109:
 1172               	.LM94:
 1173 06de 4F3F      		cpi r20,lo8(-1)
 1174 06e0 FFEF      		ldi r31,hi8(-1)
 1175 06e2 5F07      		cpc r21,r31
 1176 06e4 FFEF      		ldi r31,hlo8(-1)
 1177 06e6 6F07      		cpc r22,r31
 1178 06e8 FFEF      		ldi r31,hhi8(-1)
 1179 06ea 7F07      		cpc r23,r31
 1180 06ec 01F4      		brne .L61
 1181 06ee 81E0      		ldi r24,lo8(1)
 1182 06f0 00C0      		rjmp .L62
 1183               	.LVL110:
 1184               	.L67:
 1185               	.LM95:
 1186 06f2 8881      		ld r24,Y
 1187 06f4 8330      		cpi r24,lo8(3)
 1188 06f6 01F4      		brne .L58
 1189               	.LM96:
 1190 06f8 4AA1      		ldd r20,Y+34
 1191 06fa 5BA1      		ldd r21,Y+35
 1192 06fc 6CA1      		ldd r22,Y+36
 1193 06fe 7DA1      		ldd r23,Y+37
 1194               	.LM97:
 1195 0700 4115      		cp r20,__zero_reg__
 1196 0702 5105      		cpc r21,__zero_reg__
 1197 0704 6105      		cpc r22,__zero_reg__
 1198 0706 7105      		cpc r23,__zero_reg__
 1199 0708 01F0      		breq .+2
 1200 070a 00C0      		rjmp .L57
 1201               	.L58:
 1202               	.LM98:
 1203 070c F601      		movw r30,r12
 1204 070e 1286      		std Z+10,__zero_reg__
 1205 0710 1386      		std Z+11,__zero_reg__
 1206 0712 1486      		std Z+12,__zero_reg__
 1207 0714 1586      		std Z+13,__zero_reg__
 1208               	.LM99:
 1209 0716 8885      		ldd r24,Y+8
 1210 0718 9985      		ldd r25,Y+9
 1211 071a E816      		cp r14,r24
 1212 071c F906      		cpc r15,r25
 1213 071e 00F0      		brlo .L68
 1214               	.LVL111:
 1215               	.L56:
 1216               	.LM100:
 1217 0720 82E0      		ldi r24,lo8(2)
 1218               	.LVL112:
 1219               	.L62:
 1220               	/* epilogue start */
 1221               	.LM101:
 1222 0722 DF91      		pop r29
 1223 0724 CF91      		pop r28
 1224 0726 1F91      		pop r17
 1225               	.LVL113:
 1226 0728 0F91      		pop r16
 1227               	.LVL114:
 1228 072a FF90      		pop r15
 1229 072c EF90      		pop r14
 1230               	.LVL115:
 1231 072e DF90      		pop r13
 1232 0730 CF90      		pop r12
 1233               	.LVL116:
 1234 0732 BF90      		pop r11
 1235 0734 AF90      		pop r10
 1236 0736 9F90      		pop r9
 1237 0738 8F90      		pop r8
 1238               	.LVL117:
 1239 073a 0895      		ret
 1240               	.LVL118:
 1241               	.L68:
 1242               	.LM102:
 1243 073c C701      		movw r24,r14
 1244 073e 9295      		swap r25
 1245 0740 8295      		swap r24
 1246 0742 8F70      		andi r24,0x0f
 1247 0744 8927      		eor r24,r25
 1248 0746 9F70      		andi r25,0x0f
 1249 0748 8927      		eor r24,r25
 1250 074a A0E0      		ldi r26,lo8(0)
 1251 074c B0E0      		ldi r27,hi8(0)
 1252 074e 2AA1      		ldd r18,Y+34
 1253 0750 3BA1      		ldd r19,Y+35
 1254 0752 4CA1      		ldd r20,Y+36
 1255 0754 5DA1      		ldd r21,Y+37
 1256 0756 820F      		add r24,r18
 1257 0758 931F      		adc r25,r19
 1258 075a A41F      		adc r26,r20
 1259 075c B51F      		adc r27,r21
 1260 075e 8687      		std Z+14,r24
 1261 0760 9787      		std Z+15,r25
 1262 0762 A08B      		std Z+16,r26
 1263 0764 B18B      		std Z+17,r27
 1264               	.LVL119:
 1265               	.L59:
 1266               	.LM103:
 1267 0766 FFE0      		ldi r31,lo8(15)
 1268 0768 EF22      		and r14,r31
 1269 076a FF24      		clr r15
 1270 076c EE0C      		lsl r14
 1271 076e FF1C      		rol r15
 1272 0770 E294      		swap r14
 1273 0772 F294      		swap r15
 1274 0774 30EF      		ldi r19,0xf0
 1275 0776 F322      		and r15,r19
 1276 0778 FE24      		eor r15,r14
 1277 077a E322      		and r14,r19
 1278 077c FE24      		eor r15,r14
 1279 077e 8EE2      		ldi r24,lo8(46)
 1280 0780 90E0      		ldi r25,hi8(46)
 1281 0782 E80E      		add r14,r24
 1282 0784 F91E      		adc r15,r25
 1283 0786 CE0D      		add r28,r14
 1284 0788 DF1D      		adc r29,r15
 1285 078a F601      		movw r30,r12
 1286 078c D38B      		std Z+19,r29
 1287 078e C28B      		std Z+18,r28
 1288 0790 80E0      		ldi r24,lo8(0)
 1289 0792 00C0      		rjmp .L62
 1290               	.LVL120:
 1291               	.L60:
 1292               	.LM104:
 1293 0794 F601      		movw r30,r12
 1294 0796 4287      		std Z+10,r20
 1295 0798 5387      		std Z+11,r21
 1296 079a 6487      		std Z+12,r22
 1297 079c 7587      		std Z+13,r23
 1298               	.LBB68:
 1299               	.LBB69:
 1300               	.LM105:
 1301 079e EEEF      		ldi r30,lo8(-2)
 1302 07a0 8E2E      		mov r8,r30
 1303 07a2 EFEF      		ldi r30,hi8(-2)
 1304 07a4 9E2E      		mov r9,r30
 1305 07a6 EFEF      		ldi r30,hlo8(-2)
 1306 07a8 AE2E      		mov r10,r30
 1307 07aa EFEF      		ldi r30,hhi8(-2)
 1308 07ac BE2E      		mov r11,r30
 1309               	.LVL121:
 1310 07ae 840E      		add r8,r20
 1311 07b0 951E      		adc r9,r21
 1312 07b2 A61E      		adc r10,r22
 1313 07b4 B71E      		adc r11,r23
 1314               	.LM106:
 1315 07b6 8E89      		ldd r24,Y+22
 1316 07b8 9F89      		ldd r25,Y+23
 1317 07ba A88D      		ldd r26,Y+24
 1318 07bc B98D      		ldd r27,Y+25
 1319 07be 0297      		sbiw r24,2
 1320 07c0 A109      		sbc r26,__zero_reg__
 1321 07c2 B109      		sbc r27,__zero_reg__
 1322 07c4 8816      		cp r8,r24
 1323 07c6 9906      		cpc r9,r25
 1324 07c8 AA06      		cpc r10,r26
 1325 07ca BB06      		cpc r11,r27
 1326 07cc 00F0      		brlo .L64
 1327 07ce 20E0      		ldi r18,lo8(0)
 1328 07d0 30E0      		ldi r19,hi8(0)
 1329 07d2 40E0      		ldi r20,hlo8(0)
 1330 07d4 50E0      		ldi r21,hhi8(0)
 1331               	.LVL122:
 1332               	.L65:
 1333               	.LBE69:
 1334               	.LBE68:
 1335               	.LM107:
 1336 07d6 C701      		movw r24,r14
 1337 07d8 9295      		swap r25
 1338 07da 8295      		swap r24
 1339 07dc 8F70      		andi r24,0x0f
 1340 07de 8927      		eor r24,r25
 1341 07e0 9F70      		andi r25,0x0f
 1342 07e2 8927      		eor r24,r25
 1343 07e4 A0E0      		ldi r26,lo8(0)
 1344 07e6 B0E0      		ldi r27,hi8(0)
 1345 07e8 280F      		add r18,r24
 1346 07ea 391F      		adc r19,r25
 1347 07ec 4A1F      		adc r20,r26
 1348 07ee 5B1F      		adc r21,r27
 1349 07f0 F601      		movw r30,r12
 1350 07f2 2687      		std Z+14,r18
 1351 07f4 3787      		std Z+15,r19
 1352 07f6 408B      		std Z+16,r20
 1353 07f8 518B      		std Z+17,r21
 1354 07fa 00C0      		rjmp .L59
 1355               	.LVL123:
 1356               	.L64:
 1357               	.LBB71:
 1358               	.LBB70:
 1359               	.LM108:
 1360 07fc 2A81      		ldd r18,Y+2
 1361               	.LVL124:
 1362 07fe 30E0      		ldi r19,lo8(0)
 1363 0800 40E0      		ldi r20,lo8(0)
 1364 0802 50E0      		ldi r21,hi8(0)
 1365               	.LVL125:
 1366 0804 C501      		movw r24,r10
 1367 0806 B401      		movw r22,r8
 1368 0808 0E94 0000 		call __mulsi3
 1369 080c 9B01      		movw r18,r22
 1370 080e AC01      		movw r20,r24
 1371 0810 8EA1      		ldd r24,Y+38
 1372 0812 9FA1      		ldd r25,Y+39
 1373 0814 A8A5      		ldd r26,Y+40
 1374 0816 B9A5      		ldd r27,Y+41
 1375 0818 280F      		add r18,r24
 1376 081a 391F      		adc r19,r25
 1377 081c 4A1F      		adc r20,r26
 1378 081e 5B1F      		adc r21,r27
 1379 0820 00C0      		rjmp .L65
 1380               	.LBE70:
 1381               	.LBE71:
 1382               	.LFE13:
 1385               	create_chain:
 1386               	.LFB12:
 1387               	.LM109:
 1388               	.LVL126:
 1389 0822 4F92      		push r4
 1390 0824 5F92      		push r5
 1391 0826 6F92      		push r6
 1392 0828 7F92      		push r7
 1393 082a 8F92      		push r8
 1394 082c 9F92      		push r9
 1395 082e AF92      		push r10
 1396 0830 BF92      		push r11
 1397 0832 CF92      		push r12
 1398 0834 DF92      		push r13
 1399 0836 EF92      		push r14
 1400 0838 FF92      		push r15
 1401 083a 0F93      		push r16
 1402 083c 1F93      		push r17
 1403 083e CF93      		push r28
 1404 0840 DF93      		push r29
 1405               	/* prologue: function */
 1406               	/* frame size = 0 */
 1407 0842 EC01      		movw r28,r24
 1408 0844 2A01      		movw r4,r20
 1409 0846 3B01      		movw r6,r22
 1410               	.LM110:
 1411 0848 4115      		cp r20,__zero_reg__
 1412 084a 5105      		cpc r21,__zero_reg__
 1413 084c 6105      		cpc r22,__zero_reg__
 1414 084e 7105      		cpc r23,__zero_reg__
 1415 0850 01F0      		breq .+2
 1416 0852 00C0      		rjmp .L70
 1417               	.LVL127:
 1418               	.LM111:
 1419 0854 8A84      		ldd r8,Y+10
 1420 0856 9B84      		ldd r9,Y+11
 1421 0858 AC84      		ldd r10,Y+12
 1422 085a BD84      		ldd r11,Y+13
 1423               	.LVL128:
 1424               	.LM112:
 1425 085c 8114      		cp r8,__zero_reg__
 1426 085e 9104      		cpc r9,__zero_reg__
 1427 0860 A104      		cpc r10,__zero_reg__
 1428 0862 B104      		cpc r11,__zero_reg__
 1429 0864 01F0      		breq .+2
 1430 0866 00C0      		rjmp .L85
 1431 0868 8E89      		ldd r24,Y+22
 1432 086a 9F89      		ldd r25,Y+23
 1433 086c A88D      		ldd r26,Y+24
 1434 086e B98D      		ldd r27,Y+25
 1435               	.L71:
 1436               	.LM113:
 1437 0870 11E0      		ldi r17,lo8(1)
 1438 0872 812E      		mov r8,r17
 1439 0874 912C      		mov r9,__zero_reg__
 1440 0876 A12C      		mov r10,__zero_reg__
 1441 0878 B12C      		mov r11,__zero_reg__
 1442               	.LVL129:
 1443               	.L72:
 1444 087a 7501      		movw r14,r10
 1445 087c 6401      		movw r12,r8
 1446               	.LVL130:
 1447               	.L78:
 1448               	.LM114:
 1449 087e 0894      		sec
 1450 0880 C11C      		adc r12,__zero_reg__
 1451 0882 D11C      		adc r13,__zero_reg__
 1452 0884 E11C      		adc r14,__zero_reg__
 1453 0886 F11C      		adc r15,__zero_reg__
 1454               	.LM115:
 1455 0888 C816      		cp r12,r24
 1456 088a D906      		cpc r13,r25
 1457 088c EA06      		cpc r14,r26
 1458 088e FB06      		cpc r15,r27
 1459 0890 00F0      		brlo .L75
 1460               	.LM116:
 1461 0892 22E0      		ldi r18,lo8(2)
 1462 0894 8216      		cp r8,r18
 1463 0896 9104      		cpc r9,__zero_reg__
 1464 0898 A104      		cpc r10,__zero_reg__
 1465 089a B104      		cpc r11,__zero_reg__
 1466               	.LVL131:
 1467 089c 00F4      		brsh .+2
 1468 089e 00C0      		rjmp .L76
 1469 08a0 B2E0      		ldi r27,lo8(2)
 1470 08a2 CB2E      		mov r12,r27
 1471 08a4 D12C      		mov r13,__zero_reg__
 1472 08a6 E12C      		mov r14,__zero_reg__
 1473 08a8 F12C      		mov r15,__zero_reg__
 1474               	.LVL132:
 1475               	.L75:
 1476               	.LM117:
 1477 08aa CE01      		movw r24,r28
 1478 08ac B701      		movw r22,r14
 1479 08ae A601      		movw r20,r12
 1480 08b0 0E94 0000 		call get_fat
 1481               	.LVL133:
 1482 08b4 9B01      		movw r18,r22
 1483 08b6 AC01      		movw r20,r24
 1484               	.LVL134:
 1485               	.LM118:
 1486 08b8 6115      		cp r22,__zero_reg__
 1487 08ba 7105      		cpc r23,__zero_reg__
 1488 08bc 8105      		cpc r24,__zero_reg__
 1489 08be 9105      		cpc r25,__zero_reg__
 1490 08c0 01F0      		breq .L77
 1491               	.LVL135:
 1492               	.LM119:
 1493 08c2 2F3F      		cpi r18,lo8(-1)
 1494 08c4 8FEF      		ldi r24,hi8(-1)
 1495 08c6 3807      		cpc r19,r24
 1496 08c8 8FEF      		ldi r24,hlo8(-1)
 1497 08ca 4807      		cpc r20,r24
 1498 08cc 8FEF      		ldi r24,hhi8(-1)
 1499 08ce 5807      		cpc r21,r24
 1500 08d0 01F4      		brne .+2
 1501 08d2 00C0      		rjmp .L74
 1502               	.LVL136:
 1503 08d4 2130      		cpi r18,lo8(1)
 1504 08d6 3105      		cpc r19,__zero_reg__
 1505 08d8 4105      		cpc r20,__zero_reg__
 1506 08da 5105      		cpc r21,__zero_reg__
 1507 08dc 01F4      		brne .+2
 1508 08de 00C0      		rjmp .L74
 1509               	.LM120:
 1510 08e0 C814      		cp r12,r8
 1511 08e2 D904      		cpc r13,r9
 1512 08e4 EA04      		cpc r14,r10
 1513 08e6 FB04      		cpc r15,r11
 1514 08e8 01F4      		brne .+2
 1515 08ea 00C0      		rjmp .L76
 1516 08ec 8E89      		ldd r24,Y+22
 1517 08ee 9F89      		ldd r25,Y+23
 1518 08f0 A88D      		ldd r26,Y+24
 1519 08f2 B98D      		ldd r27,Y+25
 1520 08f4 00C0      		rjmp .L78
 1521               	.LVL137:
 1522               	.L85:
 1523               	.LM121:
 1524 08f6 8E89      		ldd r24,Y+22
 1525 08f8 9F89      		ldd r25,Y+23
 1526 08fa A88D      		ldd r26,Y+24
 1527 08fc B98D      		ldd r27,Y+25
 1528 08fe 8816      		cp r8,r24
 1529 0900 9906      		cpc r9,r25
 1530 0902 AA06      		cpc r10,r26
 1531 0904 BB06      		cpc r11,r27
 1532 0906 00F0      		brlo .+2
 1533 0908 00C0      		rjmp .L71
 1534 090a 00C0      		rjmp .L72
 1535               	.LVL138:
 1536               	.L77:
 1537               	.LM122:
 1538 090c BC2C      		mov r11,r12
 1539 090e AD2C      		mov r10,r13
 1540               	.LVL139:
 1541 0910 9E2C      		mov r9,r14
 1542               	.LVL140:
 1543 0912 8F2C      		mov r8,r15
 1544               	.LVL141:
 1545               	.LM123:
 1546 0914 CE01      		movw r24,r28
 1547 0916 A601      		movw r20,r12
 1548               	.LVL142:
 1549 0918 B701      		movw r22,r14
 1550               	.LVL143:
 1551 091a 0FEF      		ldi r16,lo8(268435455)
 1552 091c 1FEF      		ldi r17,hi8(268435455)
 1553 091e 2FEF      		ldi r18,hlo8(268435455)
 1554 0920 3FE0      		ldi r19,hhi8(268435455)
 1555 0922 0E94 0000 		call put_fat
 1556               	.LVL144:
 1557               	.LM124:
 1558 0926 8823      		tst r24
 1559               	.LVL145:
 1560 0928 01F0      		breq .+2
 1561 092a 00C0      		rjmp .L79
 1562               	.LVL146:
 1563 092c 4114      		cp r4,__zero_reg__
 1564 092e 5104      		cpc r5,__zero_reg__
 1565 0930 6104      		cpc r6,__zero_reg__
 1566 0932 7104      		cpc r7,__zero_reg__
 1567 0934 01F0      		breq .+2
 1568 0936 00C0      		rjmp .L88
 1569               	.L80:
 1570               	.LM125:
 1571 0938 BA86      		std Y+10,r11
 1572 093a AB86      		std Y+11,r10
 1573 093c 9C86      		std Y+12,r9
 1574 093e 8D86      		std Y+13,r8
 1575               	.LM126:
 1576 0940 8E85      		ldd r24,Y+14
 1577 0942 9F85      		ldd r25,Y+15
 1578 0944 A889      		ldd r26,Y+16
 1579 0946 B989      		ldd r27,Y+17
 1580               	.LVL147:
 1581 0948 8F3F      		cpi r24,lo8(-1)
 1582 094a 2FEF      		ldi r18,hi8(-1)
 1583 094c 9207      		cpc r25,r18
 1584 094e 2FEF      		ldi r18,hlo8(-1)
 1585 0950 A207      		cpc r26,r18
 1586 0952 2FEF      		ldi r18,hhi8(-1)
 1587 0954 B207      		cpc r27,r18
 1588 0956 01F0      		breq .L87
 1589               	.LM127:
 1590 0958 0197      		sbiw r24,1
 1591 095a A109      		sbc r26,__zero_reg__
 1592 095c B109      		sbc r27,__zero_reg__
 1593 095e 8E87      		std Y+14,r24
 1594 0960 9F87      		std Y+15,r25
 1595 0962 A88B      		std Y+16,r26
 1596 0964 B98B      		std Y+17,r27
 1597               	.LM128:
 1598 0966 81E0      		ldi r24,lo8(1)
 1599 0968 8D83      		std Y+5,r24
 1600               	.L87:
 1601 096a A701      		movw r20,r14
 1602 096c 9601      		movw r18,r12
 1603               	.LVL148:
 1604               	.L74:
 1605               	.LM129:
 1606 096e B901      		movw r22,r18
 1607               	.LVL149:
 1608 0970 CA01      		movw r24,r20
 1609               	.LVL150:
 1610               	/* epilogue start */
 1611 0972 DF91      		pop r29
 1612 0974 CF91      		pop r28
 1613               	.LVL151:
 1614 0976 1F91      		pop r17
 1615 0978 0F91      		pop r16
 1616 097a FF90      		pop r15
 1617 097c EF90      		pop r14
 1618 097e DF90      		pop r13
 1619 0980 CF90      		pop r12
 1620 0982 BF90      		pop r11
 1621               	.LVL152:
 1622 0984 AF90      		pop r10
 1623               	.LVL153:
 1624 0986 9F90      		pop r9
 1625               	.LVL154:
 1626 0988 8F90      		pop r8
 1627               	.LVL155:
 1628 098a 7F90      		pop r7
 1629 098c 6F90      		pop r6
 1630 098e 5F90      		pop r5
 1631 0990 4F90      		pop r4
 1632               	.LVL156:
 1633 0992 0895      		ret
 1634               	.LVL157:
 1635               	.L76:
 1636               	.LM130:
 1637 0994 20E0      		ldi r18,lo8(0)
 1638 0996 30E0      		ldi r19,hi8(0)
 1639 0998 40E0      		ldi r20,hlo8(0)
 1640 099a 50E0      		ldi r21,hhi8(0)
 1641               	.LVL158:
 1642 099c 00C0      		rjmp .L74
 1643               	.LVL159:
 1644               	.L70:
 1645               	.LM131:
 1646 099e 0E94 0000 		call get_fat
 1647               	.LVL160:
 1648 09a2 9B01      		movw r18,r22
 1649 09a4 AC01      		movw r20,r24
 1650               	.LVL161:
 1651               	.LM132:
 1652 09a6 6230      		cpi r22,lo8(2)
 1653 09a8 7105      		cpc r23,__zero_reg__
 1654 09aa 8105      		cpc r24,__zero_reg__
 1655 09ac 9105      		cpc r25,__zero_reg__
 1656 09ae 00F0      		brlo .L86
 1657               	.LVL162:
 1658               	.LM133:
 1659 09b0 8E89      		ldd r24,Y+22
 1660 09b2 9F89      		ldd r25,Y+23
 1661 09b4 A88D      		ldd r26,Y+24
 1662 09b6 B98D      		ldd r27,Y+25
 1663 09b8 2817      		cp r18,r24
 1664 09ba 3907      		cpc r19,r25
 1665 09bc 4A07      		cpc r20,r26
 1666 09be 5B07      		cpc r21,r27
 1667 09c0 00F0      		brlo .L74
 1668               	.LVL163:
 1669 09c2 5301      		movw r10,r6
 1670 09c4 4201      		movw r8,r4
 1671               	.LVL164:
 1672 09c6 00C0      		rjmp .L72
 1673               	.LVL165:
 1674               	.L86:
 1675               	.LM134:
 1676 09c8 21E0      		ldi r18,lo8(1)
 1677 09ca 30E0      		ldi r19,hi8(1)
 1678 09cc 40E0      		ldi r20,hlo8(1)
 1679 09ce 50E0      		ldi r21,hhi8(1)
 1680               	.LVL166:
 1681 09d0 00C0      		rjmp .L74
 1682               	.LVL167:
 1683               	.L88:
 1684               	.LM135:
 1685 09d2 CE01      		movw r24,r28
 1686               	.LVL168:
 1687 09d4 B301      		movw r22,r6
 1688 09d6 A201      		movw r20,r4
 1689 09d8 8601      		movw r16,r12
 1690 09da 9701      		movw r18,r14
 1691 09dc 0E94 0000 		call put_fat
 1692               	.LM136:
 1693 09e0 8823      		tst r24
 1694               	.LVL169:
 1695 09e2 01F4      		brne .+2
 1696 09e4 00C0      		rjmp .L80
 1697               	.L79:
 1698               	.LM137:
 1699 09e6 8130      		cpi r24,lo8(1)
 1700 09e8 01F4      		brne .L86
 1701 09ea 2FEF      		ldi r18,lo8(-1)
 1702 09ec 3FEF      		ldi r19,hi8(-1)
 1703 09ee 4FEF      		ldi r20,hlo8(-1)
 1704 09f0 5FEF      		ldi r21,hhi8(-1)
 1705               	.LVL170:
 1706 09f2 00C0      		rjmp .L74
 1707               	.LFE12:
 1709               	.global	f_lseek
 1711               	f_lseek:
 1712               	.LFB30:
 1713               	.LM138:
 1714               	.LVL171:
 1715 09f4 2F92      		push r2
 1716 09f6 3F92      		push r3
 1717 09f8 4F92      		push r4
 1718 09fa 5F92      		push r5
 1719 09fc 6F92      		push r6
 1720 09fe 7F92      		push r7
 1721 0a00 8F92      		push r8
 1722 0a02 9F92      		push r9
 1723 0a04 AF92      		push r10
 1724 0a06 BF92      		push r11
 1725 0a08 CF92      		push r12
 1726 0a0a DF92      		push r13
 1727 0a0c EF92      		push r14
 1728 0a0e FF92      		push r15
 1729 0a10 0F93      		push r16
 1730 0a12 1F93      		push r17
 1731 0a14 DF93      		push r29
 1732 0a16 CF93      		push r28
 1733 0a18 CDB7      		in r28,__SP_L__
 1734 0a1a DEB7      		in r29,__SP_H__
 1735 0a1c 2997      		sbiw r28,9
 1736 0a1e 0FB6      		in __tmp_reg__,__SREG__
 1737 0a20 F894      		cli
 1738 0a22 DEBF      		out __SP_H__,r29
 1739 0a24 0FBE      		out __SREG__,__tmp_reg__
 1740 0a26 CDBF      		out __SP_L__,r28
 1741               	/* prologue: function */
 1742               	/* frame size = 9 */
 1743 0a28 9987      		std Y+9,r25
 1744 0a2a 8887      		std Y+8,r24
 1745 0a2c 7A01      		movw r14,r20
 1746 0a2e 8B01      		movw r16,r22
 1747               	.LM139:
 1748 0a30 DC01      		movw r26,r24
 1749 0a32 1296      		adiw r26,2
 1750 0a34 6D91      		ld r22,X+
 1751 0a36 7C91      		ld r23,X
 1752 0a38 1397      		sbiw r26,2+1
 1753 0a3a 8D91      		ld r24,X+
 1754 0a3c 9C91      		ld r25,X
 1755               	.LVL172:
 1756 0a3e 0E94 0000 		call validate
 1757               	.LVL173:
 1758 0a42 8D83      		std Y+5,r24
 1759               	.LVL174:
 1760               	.LM140:
 1761 0a44 8823      		tst r24
 1762 0a46 01F0      		breq .+2
 1763 0a48 00C0      		rjmp .L90
 1764               	.LM141:
 1765 0a4a E885      		ldd r30,Y+8
 1766 0a4c F985      		ldd r31,Y+9
 1767 0a4e 8481      		ldd r24,Z+4
 1768 0a50 87FD      		sbrc r24,7
 1769 0a52 00C0      		rjmp .L118
 1770               	.LBB72:
 1771               	.LM142:
 1772 0a54 A885      		ldd r26,Y+8
 1773 0a56 B985      		ldd r27,Y+9
 1774 0a58 1A96      		adiw r26,10
 1775 0a5a 2D90      		ld r2,X+
 1776 0a5c 3D90      		ld r3,X+
 1777 0a5e 4D90      		ld r4,X+
 1778 0a60 5C90      		ld r5,X
 1779 0a62 1D97      		sbiw r26,10+3
 1780               	.LVL175:
 1781 0a64 2E14      		cp r2,r14
 1782 0a66 3F04      		cpc r3,r15
 1783 0a68 4006      		cpc r4,r16
 1784 0a6a 5106      		cpc r5,r17
 1785 0a6c 00F0      		brlo .+2
 1786 0a6e 00C0      		rjmp .L92
 1787               	.LVL176:
 1788 0a70 81FD      		sbrc r24,1
 1789 0a72 00C0      		rjmp .L92
 1790               	.L93:
 1791               	.LM143:
 1792 0a74 E885      		ldd r30,Y+8
 1793 0a76 F985      		ldd r31,Y+9
 1794 0a78 E680      		ldd r14,Z+6
 1795 0a7a F780      		ldd r15,Z+7
 1796 0a7c 0085      		ldd r16,Z+8
 1797 0a7e 1185      		ldd r17,Z+9
 1798               	.LVL177:
 1799               	.LM144:
 1800 0a80 1682      		std Z+6,__zero_reg__
 1801 0a82 1782      		std Z+7,__zero_reg__
 1802 0a84 1086      		std Z+8,__zero_reg__
 1803 0a86 1186      		std Z+9,__zero_reg__
 1804               	.LM145:
 1805 0a88 2114      		cp r2,__zero_reg__
 1806 0a8a 3104      		cpc r3,__zero_reg__
 1807 0a8c 4104      		cpc r4,__zero_reg__
 1808 0a8e 5104      		cpc r5,__zero_reg__
 1809 0a90 01F4      		brne .+2
 1810 0a92 00C0      		rjmp .L90
 1811               	.LM146:
 1812 0a94 0190      		ld __tmp_reg__,Z+
 1813 0a96 F081      		ld r31,Z
 1814 0a98 E02D      		mov r30,__tmp_reg__
 1815 0a9a FF83      		std Y+7,r31
 1816 0a9c EE83      		std Y+6,r30
 1817 0a9e 8281      		ldd r24,Z+2
 1818 0aa0 682E      		mov r6,r24
 1819               	.LVL178:
 1820 0aa2 7724      		clr r7
 1821               	.LVL179:
 1822 0aa4 8824      		clr r8
 1823 0aa6 9924      		clr r9
 1824               	.LVL180:
 1825 0aa8 99E0      		ldi r25,9
 1826 0aaa 660C      	1:	lsl r6
 1827 0aac 771C      		rol r7
 1828 0aae 881C      		rol r8
 1829 0ab0 991C      		rol r9
 1830 0ab2 9A95      		dec r25
 1831 0ab4 01F4      		brne 1b
 1832               	.LVL181:
 1833               	.LM147:
 1834 0ab6 E114      		cp r14,__zero_reg__
 1835 0ab8 F104      		cpc r15,__zero_reg__
 1836 0aba 0105      		cpc r16,__zero_reg__
 1837 0abc 1105      		cpc r17,__zero_reg__
 1838 0abe 01F0      		breq .+2
 1839 0ac0 00C0      		rjmp .L120
 1840               	.L94:
 1841               	.LM148:
 1842 0ac2 A885      		ldd r26,Y+8
 1843 0ac4 B985      		ldd r27,Y+9
 1844 0ac6 1E96      		adiw r26,14
 1845 0ac8 ED90      		ld r14,X+
 1846 0aca FD90      		ld r15,X+
 1847 0acc 0D91      		ld r16,X+
 1848 0ace 1C91      		ld r17,X
 1849 0ad0 5197      		sbiw r26,14+3
 1850               	.LVL182:
 1851               	.LM149:
 1852 0ad2 E114      		cp r14,__zero_reg__
 1853 0ad4 F104      		cpc r15,__zero_reg__
 1854 0ad6 0105      		cpc r16,__zero_reg__
 1855 0ad8 1105      		cpc r17,__zero_reg__
 1856 0ada 01F4      		brne .+2
 1857 0adc 00C0      		rjmp .L121
 1858               	.LVL183:
 1859               	.L96:
 1860               	.LM150:
 1861 0ade A885      		ldd r26,Y+8
 1862 0ae0 B985      		ldd r27,Y+9
 1863 0ae2 5296      		adiw r26,18
 1864 0ae4 ED92      		st X+,r14
 1865 0ae6 FD92      		st X+,r15
 1866 0ae8 0D93      		st X+,r16
 1867 0aea 1C93      		st X,r17
 1868 0aec 5597      		sbiw r26,18+3
 1869               	.L95:
 1870               	.LM151:
 1871 0aee E114      		cp r14,__zero_reg__
 1872 0af0 F104      		cpc r15,__zero_reg__
 1873 0af2 0105      		cpc r16,__zero_reg__
 1874 0af4 1105      		cpc r17,__zero_reg__
 1875 0af6 01F0      		breq .+2
 1876 0af8 00C0      		rjmp .L115
 1877 0afa E885      		ldd r30,Y+8
 1878 0afc F985      		ldd r31,Y+9
 1879 0afe A680      		ldd r10,Z+6
 1880 0b00 B780      		ldd r11,Z+7
 1881 0b02 C084      		ldd r12,Z+8
 1882 0b04 D184      		ldd r13,Z+9
 1883               	.LVL184:
 1884               	.L99:
 1885               	.LM152:
 1886 0b06 20E0      		ldi r18,lo8(0)
 1887 0b08 30E0      		ldi r19,hi8(0)
 1888 0b0a 40E0      		ldi r20,hlo8(0)
 1889 0b0c 50E0      		ldi r21,hhi8(0)
 1890               	.LVL185:
 1891               	.L110:
 1892               	.LM153:
 1893 0b0e D601      		movw r26,r12
 1894 0b10 C501      		movw r24,r10
 1895 0b12 9170      		andi r25,hi8(511)
 1896 0b14 A070      		andi r26,hlo8(511)
 1897 0b16 B070      		andi r27,hhi8(511)
 1898 0b18 0097      		sbiw r24,0
 1899 0b1a A105      		cpc r26,__zero_reg__
 1900 0b1c B105      		cpc r27,__zero_reg__
 1901 0b1e 01F0      		breq .L111
 1902 0b20 E885      		ldd r30,Y+8
 1903 0b22 F985      		ldd r31,Y+9
 1904 0b24 8689      		ldd r24,Z+22
 1905 0b26 9789      		ldd r25,Z+23
 1906 0b28 A08D      		ldd r26,Z+24
 1907 0b2a B18D      		ldd r27,Z+25
 1908 0b2c 8217      		cp r24,r18
 1909 0b2e 9307      		cpc r25,r19
 1910 0b30 A407      		cpc r26,r20
 1911 0b32 B507      		cpc r27,r21
 1912 0b34 01F0      		breq .L111
 1913               	.LM154:
 1914 0b36 268B      		std Z+22,r18
 1915 0b38 378B      		std Z+23,r19
 1916 0b3a 408F      		std Z+24,r20
 1917 0b3c 518F      		std Z+25,r21
 1918               	.L111:
 1919               	.LM155:
 1920 0b3e E885      		ldd r30,Y+8
 1921 0b40 F985      		ldd r31,Y+9
 1922 0b42 8285      		ldd r24,Z+10
 1923 0b44 9385      		ldd r25,Z+11
 1924 0b46 A485      		ldd r26,Z+12
 1925 0b48 B585      		ldd r27,Z+13
 1926 0b4a 8A15      		cp r24,r10
 1927 0b4c 9B05      		cpc r25,r11
 1928 0b4e AC05      		cpc r26,r12
 1929 0b50 BD05      		cpc r27,r13
 1930 0b52 00F4      		brsh .L90
 1931               	.LM156:
 1932 0b54 A286      		std Z+10,r10
 1933 0b56 B386      		std Z+11,r11
 1934 0b58 C486      		std Z+12,r12
 1935 0b5a D586      		std Z+13,r13
 1936               	.LM157:
 1937 0b5c 8481      		ldd r24,Z+4
 1938 0b5e 8062      		ori r24,lo8(32)
 1939 0b60 8483      		std Z+4,r24
 1940               	.LVL186:
 1941               	.L90:
 1942               	.LBE72:
 1943               	.LM158:
 1944 0b62 8D81      		ldd r24,Y+5
 1945               	/* epilogue start */
 1946 0b64 2996      		adiw r28,9
 1947 0b66 0FB6      		in __tmp_reg__,__SREG__
 1948 0b68 F894      		cli
 1949 0b6a DEBF      		out __SP_H__,r29
 1950 0b6c 0FBE      		out __SREG__,__tmp_reg__
 1951 0b6e CDBF      		out __SP_L__,r28
 1952 0b70 CF91      		pop r28
 1953 0b72 DF91      		pop r29
 1954 0b74 1F91      		pop r17
 1955 0b76 0F91      		pop r16
 1956 0b78 FF90      		pop r15
 1957 0b7a EF90      		pop r14
 1958               	.LVL187:
 1959 0b7c DF90      		pop r13
 1960 0b7e CF90      		pop r12
 1961 0b80 BF90      		pop r11
 1962 0b82 AF90      		pop r10
 1963 0b84 9F90      		pop r9
 1964 0b86 8F90      		pop r8
 1965               	.LVL188:
 1966 0b88 7F90      		pop r7
 1967               	.LVL189:
 1968 0b8a 6F90      		pop r6
 1969               	.LVL190:
 1970 0b8c 5F90      		pop r5
 1971 0b8e 4F90      		pop r4
 1972 0b90 3F90      		pop r3
 1973 0b92 2F90      		pop r2
 1974               	.LVL191:
 1975 0b94 0895      		ret
 1976               	.LVL192:
 1977               	.L121:
 1978               	.LBB75:
 1979               	.LM159:
 1980 0b96 8E81      		ldd r24,Y+6
 1981 0b98 9F81      		ldd r25,Y+7
 1982 0b9a 40E0      		ldi r20,lo8(0)
 1983 0b9c 50E0      		ldi r21,hi8(0)
 1984 0b9e 60E0      		ldi r22,hlo8(0)
 1985 0ba0 70E0      		ldi r23,hhi8(0)
 1986 0ba2 0E94 0000 		call create_chain
 1987 0ba6 7B01      		movw r14,r22
 1988 0ba8 8C01      		movw r16,r24
 1989               	.LM160:
 1990 0baa 6130      		cpi r22,lo8(1)
 1991 0bac 7105      		cpc r23,__zero_reg__
 1992 0bae 8105      		cpc r24,__zero_reg__
 1993 0bb0 9105      		cpc r25,__zero_reg__
 1994 0bb2 01F0      		breq .+2
 1995 0bb4 00C0      		rjmp .L97
 1996               	.LVL193:
 1997 0bb6 E885      		ldd r30,Y+8
 1998 0bb8 F985      		ldd r31,Y+9
 1999 0bba 8481      		ldd r24,Z+4
 2000 0bbc 8068      		ori r24,lo8(-128)
 2001 0bbe 8483      		std Z+4,r24
 2002               	.LVL194:
 2003               	.L118:
 2004 0bc0 F2E0      		ldi r31,lo8(2)
 2005 0bc2 FD83      		std Y+5,r31
 2006               	.LVL195:
 2007 0bc4 00C0      		rjmp .L90
 2008               	.LVL196:
 2009               	.L92:
 2010               	.LM161:
 2011 0bc6 1701      		movw r2,r14
 2012 0bc8 2801      		movw r4,r16
 2013 0bca 00C0      		rjmp .L93
 2014               	.LVL197:
 2015               	.L120:
 2016               	.LM162:
 2017 0bcc 5701      		movw r10,r14
 2018 0bce 6801      		movw r12,r16
 2019 0bd0 0894      		sec
 2020 0bd2 A108      		sbc r10,__zero_reg__
 2021 0bd4 B108      		sbc r11,__zero_reg__
 2022 0bd6 C108      		sbc r12,__zero_reg__
 2023 0bd8 D108      		sbc r13,__zero_reg__
 2024 0bda C201      		movw r24,r4
 2025 0bdc B101      		movw r22,r2
 2026 0bde 6150      		subi r22,lo8(-(-1))
 2027 0be0 7040      		sbci r23,hi8(-(-1))
 2028 0be2 8040      		sbci r24,hlo8(-(-1))
 2029 0be4 9040      		sbci r25,hhi8(-(-1))
 2030 0be6 A401      		movw r20,r8
 2031 0be8 9301      		movw r18,r6
 2032 0bea 0E94 0000 		call __udivmodsi4
 2033 0bee 7901      		movw r14,r18
 2034 0bf0 8A01      		movw r16,r20
 2035               	.LVL198:
 2036 0bf2 C601      		movw r24,r12
 2037 0bf4 B501      		movw r22,r10
 2038 0bf6 A401      		movw r20,r8
 2039 0bf8 9301      		movw r18,r6
 2040 0bfa 0E94 0000 		call __udivmodsi4
 2041 0bfe E216      		cp r14,r18
 2042 0c00 F306      		cpc r15,r19
 2043 0c02 0407      		cpc r16,r20
 2044 0c04 1507      		cpc r17,r21
 2045 0c06 00F4      		brsh .+2
 2046 0c08 00C0      		rjmp .L94
 2047               	.LM163:
 2048 0c0a 8827      		clr r24
 2049 0c0c 9927      		clr r25
 2050 0c0e DC01      		movw r26,r24
 2051 0c10 8619      		sub r24,r6
 2052 0c12 9709      		sbc r25,r7
 2053 0c14 A809      		sbc r26,r8
 2054 0c16 B909      		sbc r27,r9
 2055 0c18 8A21      		and r24,r10
 2056 0c1a 9B21      		and r25,r11
 2057 0c1c AC21      		and r26,r12
 2058 0c1e BD21      		and r27,r13
 2059 0c20 E885      		ldd r30,Y+8
 2060 0c22 F985      		ldd r31,Y+9
 2061 0c24 8683      		std Z+6,r24
 2062 0c26 9783      		std Z+7,r25
 2063 0c28 A087      		std Z+8,r26
 2064 0c2a B187      		std Z+9,r27
 2065               	.LM164:
 2066 0c2c 281A      		sub r2,r24
 2067 0c2e 390A      		sbc r3,r25
 2068 0c30 4A0A      		sbc r4,r26
 2069 0c32 5B0A      		sbc r5,r27
 2070               	.LM165:
 2071 0c34 E288      		ldd r14,Z+18
 2072 0c36 F388      		ldd r15,Z+19
 2073 0c38 0489      		ldd r16,Z+20
 2074 0c3a 1589      		ldd r17,Z+21
 2075               	.LVL199:
 2076 0c3c 00C0      		rjmp .L95
 2077               	.LVL200:
 2078               	.L115:
 2079               	.LM166:
 2080 0c3e 6214      		cp r6,r2
 2081 0c40 7304      		cpc r7,r3
 2082 0c42 8404      		cpc r8,r4
 2083 0c44 9504      		cpc r9,r5
 2084 0c46 00F0      		brlo .+2
 2085 0c48 00C0      		rjmp .L117
 2086 0c4a 8827      		clr r24
 2087 0c4c 9927      		clr r25
 2088 0c4e DC01      		movw r26,r24
 2089 0c50 8619      		sub r24,r6
 2090 0c52 9709      		sbc r25,r7
 2091 0c54 A809      		sbc r26,r8
 2092 0c56 B909      		sbc r27,r9
 2093 0c58 8983      		std Y+1,r24
 2094 0c5a 9A83      		std Y+2,r25
 2095 0c5c AB83      		std Y+3,r26
 2096 0c5e BC83      		std Y+4,r27
 2097 0c60 2618      		sub r2,r6
 2098 0c62 3708      		sbc r3,r7
 2099 0c64 4808      		sbc r4,r8
 2100 0c66 5908      		sbc r5,r9
 2101 0c68 A885      		ldd r26,Y+8
 2102 0c6a B985      		ldd r27,Y+9
 2103 0c6c 0D90      		ld __tmp_reg__,X+
 2104 0c6e BC91      		ld r27,X
 2105 0c70 A02D      		mov r26,__tmp_reg__
 2106 0c72 BF83      		std Y+7,r27
 2107 0c74 AE83      		std Y+6,r26
 2108 0c76 00C0      		rjmp .L107
 2109               	.LVL201:
 2110               	.L123:
 2111               	.LM167:
 2112 0c78 8E81      		ldd r24,Y+6
 2113 0c7a 9F81      		ldd r25,Y+7
 2114 0c7c B801      		movw r22,r16
 2115 0c7e A701      		movw r20,r14
 2116 0c80 0E94 0000 		call create_chain
 2117 0c84 7B01      		movw r14,r22
 2118 0c86 8C01      		movw r16,r24
 2119               	.LM168:
 2120 0c88 6115      		cp r22,__zero_reg__
 2121 0c8a 7105      		cpc r23,__zero_reg__
 2122 0c8c 8105      		cpc r24,__zero_reg__
 2123 0c8e 9105      		cpc r25,__zero_reg__
 2124 0c90 01F4      		brne .+2
 2125 0c92 00C0      		rjmp .L122
 2126               	.L103:
 2127               	.LM169:
 2128 0c94 FFEF      		ldi r31,lo8(-1)
 2129 0c96 EF16      		cp r14,r31
 2130 0c98 FFEF      		ldi r31,hi8(-1)
 2131 0c9a FF06      		cpc r15,r31
 2132 0c9c FFEF      		ldi r31,hlo8(-1)
 2133 0c9e 0F07      		cpc r16,r31
 2134 0ca0 FFEF      		ldi r31,hhi8(-1)
 2135 0ca2 1F07      		cpc r17,r31
 2136 0ca4 01F4      		brne .+2
 2137 0ca6 00C0      		rjmp .L119
 2138               	.LM170:
 2139 0ca8 E2E0      		ldi r30,lo8(2)
 2140 0caa EE16      		cp r14,r30
 2141 0cac F104      		cpc r15,__zero_reg__
 2142 0cae 0105      		cpc r16,__zero_reg__
 2143 0cb0 1105      		cpc r17,__zero_reg__
 2144 0cb2 00F4      		brsh .+2
 2145 0cb4 00C0      		rjmp .L105
 2146 0cb6 A885      		ldd r26,Y+8
 2147 0cb8 B985      		ldd r27,Y+9
 2148 0cba 0D90      		ld __tmp_reg__,X+
 2149 0cbc BC91      		ld r27,X
 2150 0cbe A02D      		mov r26,__tmp_reg__
 2151 0cc0 BF83      		std Y+7,r27
 2152 0cc2 AE83      		std Y+6,r26
 2153 0cc4 5696      		adiw r26,22
 2154 0cc6 8D91      		ld r24,X+
 2155 0cc8 9D91      		ld r25,X+
 2156 0cca 0D90      		ld __tmp_reg__,X+
 2157 0ccc BC91      		ld r27,X
 2158 0cce A02D      		mov r26,__tmp_reg__
 2159 0cd0 E816      		cp r14,r24
 2160 0cd2 F906      		cpc r15,r25
 2161 0cd4 0A07      		cpc r16,r26
 2162 0cd6 1B07      		cpc r17,r27
 2163 0cd8 00F0      		brlo .+2
 2164 0cda 00C0      		rjmp .L105
 2165               	.LM171:
 2166 0cdc A885      		ldd r26,Y+8
 2167 0cde B985      		ldd r27,Y+9
 2168 0ce0 5296      		adiw r26,18
 2169 0ce2 ED92      		st X+,r14
 2170 0ce4 FD92      		st X+,r15
 2171 0ce6 0D93      		st X+,r16
 2172 0ce8 1C93      		st X,r17
 2173 0cea 5597      		sbiw r26,18+3
 2174               	.LM172:
 2175 0cec 1696      		adiw r26,6
 2176 0cee AD90      		ld r10,X+
 2177 0cf0 BD90      		ld r11,X+
 2178 0cf2 CD90      		ld r12,X+
 2179 0cf4 DC90      		ld r13,X
 2180 0cf6 1997      		sbiw r26,6+3
 2181 0cf8 A60C      		add r10,r6
 2182 0cfa B71C      		adc r11,r7
 2183 0cfc C81C      		adc r12,r8
 2184 0cfe D91C      		adc r13,r9
 2185 0d00 FD01      		movw r30,r26
 2186 0d02 A682      		std Z+6,r10
 2187 0d04 B782      		std Z+7,r11
 2188 0d06 C086      		std Z+8,r12
 2189 0d08 D186      		std Z+9,r13
 2190 0d0a 2981      		ldd r18,Y+1
 2191 0d0c 3A81      		ldd r19,Y+2
 2192 0d0e 4B81      		ldd r20,Y+3
 2193 0d10 5C81      		ldd r21,Y+4
 2194               	.LVL202:
 2195 0d12 220D      		add r18,r2
 2196 0d14 331D      		adc r19,r3
 2197 0d16 441D      		adc r20,r4
 2198 0d18 551D      		adc r21,r5
 2199               	.LM173:
 2200 0d1a DA01      		movw r26,r20
 2201 0d1c C901      		movw r24,r18
 2202 0d1e 860D      		add r24,r6
 2203 0d20 971D      		adc r25,r7
 2204 0d22 A81D      		adc r26,r8
 2205 0d24 B91D      		adc r27,r9
 2206 0d26 6816      		cp r6,r24
 2207 0d28 7906      		cpc r7,r25
 2208 0d2a 8A06      		cpc r8,r26
 2209 0d2c 9B06      		cpc r9,r27
 2210 0d2e 00F4      		brsh .L100
 2211 0d30 1901      		movw r2,r18
 2212 0d32 2A01      		movw r4,r20
 2213               	.LVL203:
 2214               	.L107:
 2215               	.LM174:
 2216 0d34 E885      		ldd r30,Y+8
 2217 0d36 F985      		ldd r31,Y+9
 2218 0d38 8481      		ldd r24,Z+4
 2219 0d3a 81FD      		sbrc r24,1
 2220 0d3c 00C0      		rjmp .L123
 2221               	.LM175:
 2222 0d3e 8E81      		ldd r24,Y+6
 2223 0d40 9F81      		ldd r25,Y+7
 2224 0d42 B801      		movw r22,r16
 2225 0d44 A701      		movw r20,r14
 2226 0d46 0E94 0000 		call get_fat
 2227 0d4a 7B01      		movw r14,r22
 2228 0d4c 8C01      		movw r16,r24
 2229 0d4e 00C0      		rjmp .L103
 2230               	.LVL204:
 2231               	.L97:
 2232               	.LM176:
 2233 0d50 8FEF      		ldi r24,lo8(-1)
 2234 0d52 E816      		cp r14,r24
 2235 0d54 8FEF      		ldi r24,hi8(-1)
 2236 0d56 F806      		cpc r15,r24
 2237 0d58 8FEF      		ldi r24,hlo8(-1)
 2238 0d5a 0807      		cpc r16,r24
 2239 0d5c 8FEF      		ldi r24,hhi8(-1)
 2240 0d5e 1807      		cpc r17,r24
 2241 0d60 01F4      		brne .+2
 2242 0d62 00C0      		rjmp .L119
 2243               	.LVL205:
 2244               	.LM177:
 2245 0d64 E885      		ldd r30,Y+8
 2246 0d66 F985      		ldd r31,Y+9
 2247 0d68 E686      		std Z+14,r14
 2248 0d6a F786      		std Z+15,r15
 2249 0d6c 008B      		std Z+16,r16
 2250 0d6e 118B      		std Z+17,r17
 2251 0d70 00C0      		rjmp .L96
 2252               	.L105:
 2253               	.LM178:
 2254 0d72 E885      		ldd r30,Y+8
 2255 0d74 F985      		ldd r31,Y+9
 2256 0d76 8481      		ldd r24,Z+4
 2257 0d78 8068      		ori r24,lo8(-128)
 2258 0d7a 8483      		std Z+4,r24
 2259 0d7c F2E0      		ldi r31,lo8(2)
 2260 0d7e FD83      		std Y+5,r31
 2261               	.LVL206:
 2262 0d80 00C0      		rjmp .L90
 2263               	.LVL207:
 2264               	.L122:
 2265               	.LM179:
 2266 0d82 1301      		movw r2,r6
 2267 0d84 2401      		movw r4,r8
 2268               	.L117:
 2269 0d86 A885      		ldd r26,Y+8
 2270 0d88 B985      		ldd r27,Y+9
 2271 0d8a 1696      		adiw r26,6
 2272 0d8c AD90      		ld r10,X+
 2273 0d8e BD90      		ld r11,X+
 2274 0d90 CD90      		ld r12,X+
 2275 0d92 DC90      		ld r13,X
 2276 0d94 1997      		sbiw r26,6+3
 2277               	.LVL208:
 2278               	.L100:
 2279               	.LM180:
 2280 0d96 A20C      		add r10,r2
 2281 0d98 B31C      		adc r11,r3
 2282 0d9a C41C      		adc r12,r4
 2283 0d9c D51C      		adc r13,r5
 2284 0d9e E885      		ldd r30,Y+8
 2285 0da0 F985      		ldd r31,Y+9
 2286 0da2 A682      		std Z+6,r10
 2287 0da4 B782      		std Z+7,r11
 2288 0da6 C086      		std Z+8,r12
 2289 0da8 D186      		std Z+9,r13
 2290               	.LM181:
 2291 0daa D201      		movw r26,r4
 2292 0dac C101      		movw r24,r2
 2293 0dae 9170      		andi r25,hi8(511)
 2294 0db0 A070      		andi r26,hlo8(511)
 2295 0db2 B070      		andi r27,hhi8(511)
 2296 0db4 0097      		sbiw r24,0
 2297 0db6 A105      		cpc r26,__zero_reg__
 2298 0db8 B105      		cpc r27,__zero_reg__
 2299 0dba 01F4      		brne .+2
 2300 0dbc 00C0      		rjmp .L99
 2301               	.LM182:
 2302 0dbe 8080      		ld r8,Z
 2303 0dc0 9180      		ldd r9,Z+1
 2304               	.LVL209:
 2305               	.LBB73:
 2306               	.LBB74:
 2307               	.LM183:
 2308 0dc2 8EEF      		ldi r24,lo8(-2)
 2309 0dc4 9FEF      		ldi r25,hi8(-2)
 2310 0dc6 AFEF      		ldi r26,hlo8(-2)
 2311 0dc8 BFEF      		ldi r27,hhi8(-2)
 2312 0dca E80E      		add r14,r24
 2313 0dcc F91E      		adc r15,r25
 2314 0dce 0A1F      		adc r16,r26
 2315 0dd0 1B1F      		adc r17,r27
 2316               	.LVL210:
 2317               	.LM184:
 2318 0dd2 F401      		movw r30,r8
 2319 0dd4 8689      		ldd r24,Z+22
 2320 0dd6 9789      		ldd r25,Z+23
 2321 0dd8 A08D      		ldd r26,Z+24
 2322 0dda B18D      		ldd r27,Z+25
 2323 0ddc 0297      		sbiw r24,2
 2324 0dde A109      		sbc r26,__zero_reg__
 2325 0de0 B109      		sbc r27,__zero_reg__
 2326 0de2 E816      		cp r14,r24
 2327 0de4 F906      		cpc r15,r25
 2328 0de6 0A07      		cpc r16,r26
 2329 0de8 1B07      		cpc r17,r27
 2330 0dea 00F4      		brsh .L108
 2331               	.LM185:
 2332 0dec 2281      		ldd r18,Z+2
 2333 0dee 30E0      		ldi r19,lo8(0)
 2334 0df0 40E0      		ldi r20,lo8(0)
 2335 0df2 50E0      		ldi r21,hi8(0)
 2336 0df4 C801      		movw r24,r16
 2337 0df6 B701      		movw r22,r14
 2338               	.LVL211:
 2339 0df8 0E94 0000 		call __mulsi3
 2340 0dfc 7B01      		movw r14,r22
 2341 0dfe 8C01      		movw r16,r24
 2342               	.LVL212:
 2343 0e00 F401      		movw r30,r8
 2344 0e02 86A1      		ldd r24,Z+38
 2345 0e04 97A1      		ldd r25,Z+39
 2346 0e06 A0A5      		ldd r26,Z+40
 2347 0e08 B1A5      		ldd r27,Z+41
 2348 0e0a E80E      		add r14,r24
 2349 0e0c F91E      		adc r15,r25
 2350 0e0e 0A1F      		adc r16,r26
 2351 0e10 1B1F      		adc r17,r27
 2352               	.LBE74:
 2353               	.LBE73:
 2354               	.LM186:
 2355 0e12 E114      		cp r14,__zero_reg__
 2356 0e14 F104      		cpc r15,__zero_reg__
 2357 0e16 0105      		cpc r16,__zero_reg__
 2358 0e18 1105      		cpc r17,__zero_reg__
 2359 0e1a 01F0      		breq .L108
 2360               	.LM187:
 2361 0e1c A201      		movw r20,r4
 2362 0e1e 9101      		movw r18,r2
 2363               	.LVL213:
 2364 0e20 89E0      		ldi r24,9
 2365 0e22 5695      	1:	lsr r21
 2366 0e24 4795      		ror r20
 2367 0e26 3795      		ror r19
 2368 0e28 2795      		ror r18
 2369 0e2a 8A95      		dec r24
 2370 0e2c 01F4      		brne 1b
 2371 0e2e 2E0D      		add r18,r14
 2372 0e30 3F1D      		adc r19,r15
 2373 0e32 401F      		adc r20,r16
 2374 0e34 511F      		adc r21,r17
 2375 0e36 00C0      		rjmp .L110
 2376               	.LVL214:
 2377               	.L119:
 2378               	.LM188:
 2379 0e38 A885      		ldd r26,Y+8
 2380 0e3a B985      		ldd r27,Y+9
 2381 0e3c 1496      		adiw r26,4
 2382 0e3e 8C91      		ld r24,X
 2383 0e40 1497      		sbiw r26,4
 2384 0e42 8068      		ori r24,lo8(-128)
 2385 0e44 1496      		adiw r26,4
 2386 0e46 8C93      		st X,r24
 2387 0e48 B1E0      		ldi r27,lo8(1)
 2388 0e4a BD83      		std Y+5,r27
 2389               	.LVL215:
 2390 0e4c 00C0      		rjmp .L90
 2391               	.LVL216:
 2392               	.L108:
 2393               	.LM189:
 2394 0e4e A885      		ldd r26,Y+8
 2395 0e50 B985      		ldd r27,Y+9
 2396 0e52 1496      		adiw r26,4
 2397 0e54 8C91      		ld r24,X
 2398 0e56 1497      		sbiw r26,4
 2399 0e58 8068      		ori r24,lo8(-128)
 2400 0e5a 1496      		adiw r26,4
 2401 0e5c 8C93      		st X,r24
 2402 0e5e B2E0      		ldi r27,lo8(2)
 2403 0e60 BD83      		std Y+5,r27
 2404               	.LVL217:
 2405 0e62 00C0      		rjmp .L90
 2406               	.LBE75:
 2407               	.LFE30:
 2409               	.global	f_forward
 2411               	f_forward:
 2412               	.LFB33:
 2413               	.LM190:
 2414               	.LVL218:
 2415 0e64 2F92      		push r2
 2416 0e66 3F92      		push r3
 2417 0e68 5F92      		push r5
 2418 0e6a 6F92      		push r6
 2419 0e6c 7F92      		push r7
 2420 0e6e 8F92      		push r8
 2421 0e70 9F92      		push r9
 2422 0e72 AF92      		push r10
 2423 0e74 BF92      		push r11
 2424 0e76 CF92      		push r12
 2425 0e78 DF92      		push r13
 2426 0e7a EF92      		push r14
 2427 0e7c FF92      		push r15
 2428 0e7e 0F93      		push r16
 2429 0e80 1F93      		push r17
 2430 0e82 CF93      		push r28
 2431 0e84 DF93      		push r29
 2432               	/* prologue: function */
 2433               	/* frame size = 0 */
 2434 0e86 6C01      		movw r12,r24
 2435 0e88 3B01      		movw r6,r22
 2436 0e8a 5A01      		movw r10,r20
 2437 0e8c 4901      		movw r8,r18
 2438               	.LM191:
 2439 0e8e D901      		movw r26,r18
 2440 0e90 1D92      		st X+,__zero_reg__
 2441 0e92 1C92      		st X,__zero_reg__
 2442               	.LM192:
 2443 0e94 FC01      		movw r30,r24
 2444 0e96 6281      		ldd r22,Z+2
 2445 0e98 7381      		ldd r23,Z+3
 2446               	.LVL219:
 2447 0e9a 8081      		ld r24,Z
 2448 0e9c 9181      		ldd r25,Z+1
 2449               	.LVL220:
 2450 0e9e 0E94 0000 		call validate
 2451               	.LVL221:
 2452 0ea2 582E      		mov r5,r24
 2453               	.LVL222:
 2454               	.LM193:
 2455 0ea4 8823      		tst r24
 2456 0ea6 01F0      		breq .+2
 2457 0ea8 00C0      		rjmp .L125
 2458               	.LVL223:
 2459               	.LM194:
 2460 0eaa D601      		movw r26,r12
 2461 0eac 1496      		adiw r26,4
 2462 0eae 8C91      		ld r24,X
 2463               	.LVL224:
 2464 0eb0 87FD      		sbrc r24,7
 2465 0eb2 00C0      		rjmp .L144
 2466               	.LM195:
 2467 0eb4 80FF      		sbrs r24,0
 2468 0eb6 00C0      		rjmp .L147
 2469               	.LM196:
 2470 0eb8 F601      		movw r30,r12
 2471 0eba 2285      		ldd r18,Z+10
 2472 0ebc 3385      		ldd r19,Z+11
 2473 0ebe 4485      		ldd r20,Z+12
 2474 0ec0 5585      		ldd r21,Z+13
 2475               	.LVL225:
 2476 0ec2 8681      		ldd r24,Z+6
 2477 0ec4 9781      		ldd r25,Z+7
 2478 0ec6 A085      		ldd r26,Z+8
 2479 0ec8 B185      		ldd r27,Z+9
 2480 0eca 281B      		sub r18,r24
 2481 0ecc 390B      		sbc r19,r25
 2482 0ece 4A0B      		sbc r20,r26
 2483 0ed0 5B0B      		sbc r21,r27
 2484               	.LM197:
 2485 0ed2 C501      		movw r24,r10
 2486 0ed4 A0E0      		ldi r26,lo8(0)
 2487 0ed6 B0E0      		ldi r27,hi8(0)
 2488               	.LVL226:
 2489 0ed8 2817      		cp r18,r24
 2490 0eda 3907      		cpc r19,r25
 2491 0edc 4A07      		cpc r20,r26
 2492 0ede 5B07      		cpc r21,r27
 2493 0ee0 00F4      		brsh .+2
 2494 0ee2 00C0      		rjmp .L148
 2495               	.L128:
 2496               	.LM198:
 2497 0ee4 A114      		cp r10,__zero_reg__
 2498 0ee6 B104      		cpc r11,__zero_reg__
 2499 0ee8 01F4      		brne .+2
 2500 0eea 00C0      		rjmp .L125
 2501               	.LM199:
 2502 0eec 212C      		mov r2,__zero_reg__
 2503 0eee 22E0      		ldi r18,hi8(512)
 2504 0ef0 322E      		mov r3,r18
 2505               	.LVL227:
 2506               	.L143:
 2507               	.LM200:
 2508 0ef2 80E0      		ldi r24,lo8(0)
 2509 0ef4 90E0      		ldi r25,hi8(0)
 2510 0ef6 60E0      		ldi r22,lo8(0)
 2511 0ef8 70E0      		ldi r23,hi8(0)
 2512               	.LVL228:
 2513 0efa F301      		movw r30,r6
 2514 0efc 0995      		icall
 2515               	.LVL229:
 2516 0efe 892B      		or r24,r25
 2517 0f00 01F4      		brne .+2
 2518 0f02 00C0      		rjmp .L125
 2519               	.LM201:
 2520 0f04 D601      		movw r26,r12
 2521 0f06 1696      		adiw r26,6
 2522 0f08 2D91      		ld r18,X+
 2523 0f0a 3D91      		ld r19,X+
 2524 0f0c 4D91      		ld r20,X+
 2525 0f0e 5C91      		ld r21,X
 2526 0f10 1997      		sbiw r26,6+3
 2527 0f12 CD91      		ld r28,X+
 2528 0f14 DC91      		ld r29,X
 2529 0f16 DA01      		movw r26,r20
 2530 0f18 C901      		movw r24,r18
 2531 0f1a 69E0      		ldi r22,9
 2532 0f1c B695      	1:	lsr r27
 2533 0f1e A795      		ror r26
 2534 0f20 9795      		ror r25
 2535 0f22 8795      		ror r24
 2536 0f24 6A95      		dec r22
 2537 0f26 01F4      		brne 1b
 2538 0f28 1A81      		ldd r17,Y+2
 2539 0f2a 1150      		subi r17,lo8(-(-1))
 2540 0f2c 1823      		and r17,r24
 2541               	.LM202:
 2542 0f2e DA01      		movw r26,r20
 2543 0f30 C901      		movw r24,r18
 2544 0f32 9170      		andi r25,hi8(511)
 2545 0f34 A070      		andi r26,hlo8(511)
 2546 0f36 B070      		andi r27,hhi8(511)
 2547 0f38 0097      		sbiw r24,0
 2548 0f3a A105      		cpc r26,__zero_reg__
 2549 0f3c B105      		cpc r27,__zero_reg__
 2550 0f3e 01F4      		brne .L130
 2551               	.LM203:
 2552 0f40 1123      		tst r17
 2553 0f42 01F4      		brne .L130
 2554               	.LM204:
 2555 0f44 2115      		cp r18,__zero_reg__
 2556 0f46 3105      		cpc r19,__zero_reg__
 2557 0f48 4105      		cpc r20,__zero_reg__
 2558 0f4a 5105      		cpc r21,__zero_reg__
 2559 0f4c 01F0      		breq .+2
 2560 0f4e 00C0      		rjmp .L131
 2561 0f50 F601      		movw r30,r12
 2562 0f52 6685      		ldd r22,Z+14
 2563 0f54 7785      		ldd r23,Z+15
 2564 0f56 8089      		ldd r24,Z+16
 2565 0f58 9189      		ldd r25,Z+17
 2566               	.LVL230:
 2567               	.L132:
 2568               	.LM205:
 2569 0f5a 6230      		cpi r22,lo8(2)
 2570 0f5c 7105      		cpc r23,__zero_reg__
 2571 0f5e 8105      		cpc r24,__zero_reg__
 2572 0f60 9105      		cpc r25,__zero_reg__
 2573 0f62 00F4      		brsh .+2
 2574 0f64 00C0      		rjmp .L149
 2575               	.LM206:
 2576 0f66 6F3F      		cpi r22,lo8(-1)
 2577 0f68 FFEF      		ldi r31,hi8(-1)
 2578 0f6a 7F07      		cpc r23,r31
 2579 0f6c FFEF      		ldi r31,hlo8(-1)
 2580 0f6e 8F07      		cpc r24,r31
 2581 0f70 FFEF      		ldi r31,hhi8(-1)
 2582 0f72 9F07      		cpc r25,r31
 2583 0f74 01F4      		brne .+2
 2584 0f76 00C0      		rjmp .L145
 2585               	.LM207:
 2586 0f78 F601      		movw r30,r12
 2587 0f7a 628B      		std Z+18,r22
 2588 0f7c 738B      		std Z+19,r23
 2589 0f7e 848B      		std Z+20,r24
 2590 0f80 958B      		std Z+21,r25
 2591 0f82 C081      		ld r28,Z
 2592 0f84 D181      		ldd r29,Z+1
 2593               	.L130:
 2594               	.LBB76:
 2595               	.LBB77:
 2596               	.LM208:
 2597 0f86 D601      		movw r26,r12
 2598 0f88 5296      		adiw r26,18
 2599 0f8a 2D91      		ld r18,X+
 2600 0f8c 3D91      		ld r19,X+
 2601 0f8e 4D91      		ld r20,X+
 2602 0f90 5C91      		ld r21,X
 2603 0f92 5597      		sbiw r26,18+3
 2604               	.LVL231:
 2605 0f94 2250      		subi r18,lo8(-(-2))
 2606 0f96 3040      		sbci r19,hi8(-(-2))
 2607 0f98 4040      		sbci r20,hlo8(-(-2))
 2608 0f9a 5040      		sbci r21,hhi8(-(-2))
 2609               	.LM209:
 2610 0f9c 8E89      		ldd r24,Y+22
 2611 0f9e 9F89      		ldd r25,Y+23
 2612 0fa0 A88D      		ldd r26,Y+24
 2613 0fa2 B98D      		ldd r27,Y+25
 2614 0fa4 0297      		sbiw r24,2
 2615 0fa6 A109      		sbc r26,__zero_reg__
 2616 0fa8 B109      		sbc r27,__zero_reg__
 2617 0faa 2817      		cp r18,r24
 2618 0fac 3907      		cpc r19,r25
 2619 0fae 4A07      		cpc r20,r26
 2620 0fb0 5B07      		cpc r21,r27
 2621 0fb2 00F0      		brlo .L150
 2622               	.LVL232:
 2623               	.L146:
 2624               	.LBE77:
 2625               	.LBE76:
 2626               	.LM210:
 2627 0fb4 F601      		movw r30,r12
 2628 0fb6 8481      		ldd r24,Z+4
 2629               	.LVL233:
 2630 0fb8 8068      		ori r24,lo8(-128)
 2631 0fba 8483      		std Z+4,r24
 2632 0fbc 32E0      		ldi r19,lo8(2)
 2633 0fbe 532E      		mov r5,r19
 2634               	.LVL234:
 2635               	.L125:
 2636               	.LM211:
 2637 0fc0 852D      		mov r24,r5
 2638               	/* epilogue start */
 2639 0fc2 DF91      		pop r29
 2640 0fc4 CF91      		pop r28
 2641 0fc6 1F91      		pop r17
 2642               	.LVL235:
 2643 0fc8 0F91      		pop r16
 2644 0fca FF90      		pop r15
 2645 0fcc EF90      		pop r14
 2646               	.LVL236:
 2647 0fce DF90      		pop r13
 2648 0fd0 CF90      		pop r12
 2649               	.LVL237:
 2650 0fd2 BF90      		pop r11
 2651 0fd4 AF90      		pop r10
 2652               	.LVL238:
 2653 0fd6 9F90      		pop r9
 2654 0fd8 8F90      		pop r8
 2655               	.LVL239:
 2656 0fda 7F90      		pop r7
 2657 0fdc 6F90      		pop r6
 2658               	.LVL240:
 2659 0fde 5F90      		pop r5
 2660               	.LVL241:
 2661 0fe0 3F90      		pop r3
 2662 0fe2 2F90      		pop r2
 2663 0fe4 0895      		ret
 2664               	.LVL242:
 2665               	.L147:
 2666               	.LM212:
 2667 0fe6 77E0      		ldi r23,lo8(7)
 2668 0fe8 572E      		mov r5,r23
 2669 0fea 00C0      		rjmp .L125
 2670               	.LVL243:
 2671               	.L150:
 2672               	.LBB79:
 2673               	.LBB78:
 2674               	.LM213:
 2675 0fec 6A81      		ldd r22,Y+2
 2676               	.LVL244:
 2677 0fee 70E0      		ldi r23,lo8(0)
 2678 0ff0 80E0      		ldi r24,lo8(0)
 2679 0ff2 90E0      		ldi r25,hi8(0)
 2680 0ff4 0E94 0000 		call __mulsi3
 2681               	.LVL245:
 2682 0ff8 AB01      		movw r20,r22
 2683 0ffa BC01      		movw r22,r24
 2684               	.LVL246:
 2685 0ffc 8EA1      		ldd r24,Y+38
 2686 0ffe 9FA1      		ldd r25,Y+39
 2687 1000 A8A5      		ldd r26,Y+40
 2688 1002 B9A5      		ldd r27,Y+41
 2689 1004 480F      		add r20,r24
 2690 1006 591F      		adc r21,r25
 2691 1008 6A1F      		adc r22,r26
 2692 100a 7B1F      		adc r23,r27
 2693               	.LBE78:
 2694               	.LBE79:
 2695               	.LM214:
 2696 100c 4115      		cp r20,__zero_reg__
 2697 100e 5105      		cpc r21,__zero_reg__
 2698 1010 6105      		cpc r22,__zero_reg__
 2699 1012 7105      		cpc r23,__zero_reg__
 2700 1014 01F0      		breq .L146
 2701               	.LM215:
 2702 1016 DB01      		movw r26,r22
 2703 1018 CA01      		movw r24,r20
 2704 101a 810F      		add r24,r17
 2705 101c 911D      		adc r25,__zero_reg__
 2706 101e A11D      		adc r26,__zero_reg__
 2707 1020 B11D      		adc r27,__zero_reg__
 2708 1022 7C01      		movw r14,r24
 2709 1024 8D01      		movw r16,r26
 2710               	.LVL247:
 2711               	.LM216:
 2712 1026 CE01      		movw r24,r28
 2713 1028 B801      		movw r22,r16
 2714 102a A701      		movw r20,r14
 2715 102c 0E94 0000 		call move_window
 2716 1030 8823      		tst r24
 2717 1032 01F0      		breq .+2
 2718 1034 00C0      		rjmp .L145
 2719               	.LM217:
 2720 1036 F601      		movw r30,r12
 2721 1038 E68A      		std Z+22,r14
 2722 103a F78A      		std Z+23,r15
 2723 103c 008F      		std Z+24,r16
 2724 103e 118F      		std Z+25,r17
 2725               	.LM218:
 2726 1040 2681      		ldd r18,Z+6
 2727 1042 3781      		ldd r19,Z+7
 2728 1044 3170      		andi r19,hi8(511)
 2729 1046 A101      		movw r20,r2
 2730               	.LVL248:
 2731 1048 421B      		sub r20,r18
 2732 104a 530B      		sbc r21,r19
 2733 104c B501      		movw r22,r10
 2734               	.LVL249:
 2735 104e 4A15      		cp r20,r10
 2736 1050 5B05      		cpc r21,r11
 2737               	.LVL250:
 2738 1052 00F4      		brsh .L138
 2739 1054 BA01      		movw r22,r20
 2740               	.LVL251:
 2741               	.L138:
 2742               	.LM219:
 2743 1056 225D      		subi r18,lo8(-(46))
 2744 1058 3F4F      		sbci r19,hi8(-(46))
 2745 105a D601      		movw r26,r12
 2746 105c 8D91      		ld r24,X+
 2747 105e 9C91      		ld r25,X
 2748 1060 820F      		add r24,r18
 2749 1062 931F      		adc r25,r19
 2750 1064 F301      		movw r30,r6
 2751 1066 0995      		icall
 2752               	.LVL252:
 2753 1068 BC01      		movw r22,r24
 2754               	.LVL253:
 2755               	.LM220:
 2756 106a 0097      		sbiw r24,0
 2757 106c 01F4      		brne .+2
 2758 106e 00C0      		rjmp .L146
 2759               	.LVL254:
 2760               	.LM221:
 2761 1070 A0E0      		ldi r26,lo8(0)
 2762 1072 B0E0      		ldi r27,hi8(0)
 2763               	.LVL255:
 2764 1074 F601      		movw r30,r12
 2765 1076 2681      		ldd r18,Z+6
 2766 1078 3781      		ldd r19,Z+7
 2767 107a 4085      		ldd r20,Z+8
 2768 107c 5185      		ldd r21,Z+9
 2769 107e 280F      		add r18,r24
 2770 1080 391F      		adc r19,r25
 2771 1082 4A1F      		adc r20,r26
 2772 1084 5B1F      		adc r21,r27
 2773 1086 D601      		movw r26,r12
 2774               	.LVL256:
 2775 1088 1696      		adiw r26,6
 2776 108a 2D93      		st X+,r18
 2777 108c 3D93      		st X+,r19
 2778 108e 4D93      		st X+,r20
 2779 1090 5C93      		st X,r21
 2780 1092 1997      		sbiw r26,6+3
 2781 1094 F401      		movw r30,r8
 2782 1096 8081      		ld r24,Z
 2783 1098 9181      		ldd r25,Z+1
 2784               	.LVL257:
 2785 109a 860F      		add r24,r22
 2786 109c 971F      		adc r25,r23
 2787 109e 9183      		std Z+1,r25
 2788 10a0 8083      		st Z,r24
 2789 10a2 A61A      		sub r10,r22
 2790 10a4 B70A      		sbc r11,r23
 2791               	.LM222:
 2792 10a6 01F0      		breq .+2
 2793 10a8 00C0      		rjmp .L143
 2794 10aa 00C0      		rjmp .L125
 2795               	.LVL258:
 2796               	.L131:
 2797               	.LM223:
 2798 10ac D601      		movw r26,r12
 2799 10ae 5296      		adiw r26,18
 2800 10b0 4D91      		ld r20,X+
 2801 10b2 5D91      		ld r21,X+
 2802 10b4 6D91      		ld r22,X+
 2803 10b6 7C91      		ld r23,X
 2804 10b8 5597      		sbiw r26,18+3
 2805 10ba CE01      		movw r24,r28
 2806 10bc 0E94 0000 		call get_fat
 2807 10c0 00C0      		rjmp .L132
 2808               	.LVL259:
 2809               	.L148:
 2810               	.LM224:
 2811 10c2 5901      		movw r10,r18
 2812               	.LVL260:
 2813 10c4 00C0      		rjmp .L128
 2814               	.LVL261:
 2815               	.L149:
 2816               	.LM225:
 2817 10c6 F601      		movw r30,r12
 2818 10c8 8481      		ldd r24,Z+4
 2819 10ca 8068      		ori r24,lo8(-128)
 2820 10cc 8483      		std Z+4,r24
 2821               	.L144:
 2822 10ce 42E0      		ldi r20,lo8(2)
 2823 10d0 542E      		mov r5,r20
 2824 10d2 00C0      		rjmp .L125
 2825               	.L145:
 2826               	.LM226:
 2827 10d4 D601      		movw r26,r12
 2828 10d6 1496      		adiw r26,4
 2829 10d8 8C91      		ld r24,X
 2830 10da 1497      		sbiw r26,4
 2831 10dc 8068      		ori r24,lo8(-128)
 2832 10de 1496      		adiw r26,4
 2833 10e0 8C93      		st X,r24
 2834 10e2 5524      		clr r5
 2835 10e4 5394      		inc r5
 2836 10e6 00C0      		rjmp .L125
 2837               	.LFE33:
 2840               	dir_next:
 2841               	.LFB14:
 2842               	.LM227:
 2843               	.LVL262:
 2844 10e8 2F92      		push r2
 2845 10ea 3F92      		push r3
 2846 10ec 4F92      		push r4
 2847 10ee 5F92      		push r5
 2848 10f0 6F92      		push r6
 2849 10f2 7F92      		push r7
 2850 10f4 8F92      		push r8
 2851 10f6 9F92      		push r9
 2852 10f8 AF92      		push r10
 2853 10fa BF92      		push r11
 2854 10fc CF92      		push r12
 2855 10fe DF92      		push r13
 2856 1100 EF92      		push r14
 2857 1102 FF92      		push r15
 2858 1104 0F93      		push r16
 2859 1106 1F93      		push r17
 2860 1108 CF93      		push r28
 2861 110a DF93      		push r29
 2862               	/* prologue: function */
 2863               	/* frame size = 0 */
 2864 110c EC01      		movw r28,r24
 2865 110e 5B01      		movw r10,r22
 2866               	.LM228:
 2867 1110 0C81      		ldd r16,Y+4
 2868 1112 1D81      		ldd r17,Y+5
 2869               	.LVL263:
 2870 1114 0F5F      		subi r16,lo8(-(1))
 2871 1116 1F4F      		sbci r17,hi8(-(1))
 2872               	.LM229:
 2873 1118 01F0      		breq .L152
 2874               	.LVL264:
 2875 111a 8E85      		ldd r24,Y+14
 2876 111c 9F85      		ldd r25,Y+15
 2877 111e A889      		ldd r26,Y+16
 2878 1120 B989      		ldd r27,Y+17
 2879 1122 0097      		sbiw r24,0
 2880 1124 A105      		cpc r26,__zero_reg__
 2881 1126 B105      		cpc r27,__zero_reg__
 2882 1128 01F0      		breq .L152
 2883               	.LM230:
 2884 112a 2FE0      		ldi r18,lo8(15)
 2885 112c C22E      		mov r12,r18
 2886 112e D12C      		mov r13,__zero_reg__
 2887 1130 C022      		and r12,r16
 2888 1132 D122      		and r13,r17
 2889 1134 C114      		cp r12,__zero_reg__
 2890 1136 D104      		cpc r13,__zero_reg__
 2891 1138 01F4      		brne .L174
 2892               	.LM231:
 2893 113a 0196      		adiw r24,1
 2894 113c A11D      		adc r26,__zero_reg__
 2895 113e B11D      		adc r27,__zero_reg__
 2896 1140 8E87      		std Y+14,r24
 2897 1142 9F87      		std Y+15,r25
 2898 1144 A88B      		std Y+16,r26
 2899 1146 B98B      		std Y+17,r27
 2900               	.LM232:
 2901 1148 4A85      		ldd r20,Y+10
 2902 114a 5B85      		ldd r21,Y+11
 2903 114c 6C85      		ldd r22,Y+12
 2904 114e 7D85      		ldd r23,Y+13
 2905 1150 4115      		cp r20,__zero_reg__
 2906 1152 5105      		cpc r21,__zero_reg__
 2907 1154 6105      		cpc r22,__zero_reg__
 2908 1156 7105      		cpc r23,__zero_reg__
 2909 1158 01F4      		brne .L154
 2910               	.LM233:
 2911 115a E880      		ld r14,Y
 2912 115c F980      		ldd r15,Y+1
 2913 115e F701      		movw r30,r14
 2914 1160 8085      		ldd r24,Z+8
 2915 1162 9185      		ldd r25,Z+9
 2916 1164 0817      		cp r16,r24
 2917 1166 1907      		cpc r17,r25
 2918 1168 00F0      		brlo .L153
 2919               	.LVL265:
 2920               	.L152:
 2921               	.LM234:
 2922 116a 84E0      		ldi r24,lo8(4)
 2923               	.LVL266:
 2924               	.L160:
 2925               	/* epilogue start */
 2926               	.LM235:
 2927 116c DF91      		pop r29
 2928 116e CF91      		pop r28
 2929               	.LVL267:
 2930 1170 1F91      		pop r17
 2931 1172 0F91      		pop r16
 2932               	.LVL268:
 2933 1174 FF90      		pop r15
 2934 1176 EF90      		pop r14
 2935 1178 DF90      		pop r13
 2936 117a CF90      		pop r12
 2937 117c BF90      		pop r11
 2938               	.LVL269:
 2939 117e AF90      		pop r10
 2940               	.LVL270:
 2941 1180 9F90      		pop r9
 2942 1182 8F90      		pop r8
 2943 1184 7F90      		pop r7
 2944 1186 6F90      		pop r6
 2945 1188 5F90      		pop r5
 2946 118a 4F90      		pop r4
 2947 118c 3F90      		pop r3
 2948 118e 2F90      		pop r2
 2949               	.LVL271:
 2950 1190 0895      		ret
 2951               	.LVL272:
 2952               	.L174:
 2953 1192 E880      		ld r14,Y
 2954 1194 F980      		ldd r15,Y+1
 2955               	.LVL273:
 2956               	.L153:
 2957               	.LM236:
 2958 1196 1D83      		std Y+5,r17
 2959 1198 0C83      		std Y+4,r16
 2960               	.LM237:
 2961 119a CC0C      		lsl r12
 2962 119c DD1C      		rol r13
 2963 119e C294      		swap r12
 2964 11a0 D294      		swap r13
 2965 11a2 E0EF      		ldi r30,0xf0
 2966 11a4 DE22      		and r13,r30
 2967 11a6 DC24      		eor r13,r12
 2968 11a8 CE22      		and r12,r30
 2969 11aa DC24      		eor r13,r12
 2970 11ac 8EE2      		ldi r24,lo8(46)
 2971 11ae 90E0      		ldi r25,hi8(46)
 2972 11b0 C80E      		add r12,r24
 2973 11b2 D91E      		adc r13,r25
 2974 11b4 EC0C      		add r14,r12
 2975 11b6 FD1C      		adc r15,r13
 2976 11b8 FB8A      		std Y+19,r15
 2977 11ba EA8A      		std Y+18,r14
 2978 11bc 80E0      		ldi r24,lo8(0)
 2979 11be 00C0      		rjmp .L160
 2980               	.LVL274:
 2981               	.L154:
 2982               	.LM238:
 2983 11c0 E880      		ld r14,Y
 2984 11c2 F980      		ldd r15,Y+1
 2985 11c4 F701      		movw r30,r14
 2986 11c6 8281      		ldd r24,Z+2
 2987 11c8 90E0      		ldi r25,lo8(0)
 2988 11ca 0197      		sbiw r24,1
 2989 11cc 9801      		movw r18,r16
 2990 11ce 3295      		swap r19
 2991 11d0 2295      		swap r18
 2992 11d2 2F70      		andi r18,0x0f
 2993 11d4 2327      		eor r18,r19
 2994 11d6 3F70      		andi r19,0x0f
 2995 11d8 2327      		eor r18,r19
 2996 11da 8223      		and r24,r18
 2997 11dc 9323      		and r25,r19
 2998 11de 892B      		or r24,r25
 2999 11e0 01F4      		brne .L153
 3000               	.LM239:
 3001 11e2 C701      		movw r24,r14
 3002 11e4 0E94 0000 		call get_fat
 3003 11e8 3B01      		movw r6,r22
 3004 11ea 4C01      		movw r8,r24
 3005               	.LVL275:
 3006               	.LM240:
 3007 11ec 6230      		cpi r22,lo8(2)
 3008 11ee 7105      		cpc r23,__zero_reg__
 3009 11f0 8105      		cpc r24,__zero_reg__
 3010 11f2 9105      		cpc r25,__zero_reg__
 3011 11f4 00F4      		brsh .+2
 3012 11f6 00C0      		rjmp .L155
 3013               	.LVL276:
 3014               	.LM241:
 3015 11f8 6F3F      		cpi r22,lo8(-1)
 3016 11fa 2FEF      		ldi r18,hi8(-1)
 3017 11fc 7207      		cpc r23,r18
 3018 11fe 2FEF      		ldi r18,hlo8(-1)
 3019 1200 8207      		cpc r24,r18
 3020 1202 2FEF      		ldi r18,hhi8(-1)
 3021 1204 9207      		cpc r25,r18
 3022 1206 01F4      		brne .+2
 3023 1208 00C0      		rjmp .L156
 3024               	.LM242:
 3025 120a E880      		ld r14,Y
 3026 120c F980      		ldd r15,Y+1
 3027 120e F701      		movw r30,r14
 3028 1210 8689      		ldd r24,Z+22
 3029 1212 9789      		ldd r25,Z+23
 3030 1214 A08D      		ldd r26,Z+24
 3031 1216 B18D      		ldd r27,Z+25
 3032 1218 6816      		cp r6,r24
 3033 121a 7906      		cpc r7,r25
 3034 121c 8A06      		cpc r8,r26
 3035 121e 9B06      		cpc r9,r27
 3036 1220 00F4      		brsh .+2
 3037 1222 00C0      		rjmp .L175
 3038               	.LVL277:
 3039               	.LBB80:
 3040               	.LM243:
 3041 1224 AB28      		or r10,r11
 3042 1226 01F4      		brne .+2
 3043 1228 00C0      		rjmp .L152
 3044               	.LM244:
 3045 122a 4A85      		ldd r20,Y+10
 3046 122c 5B85      		ldd r21,Y+11
 3047 122e 6C85      		ldd r22,Y+12
 3048 1230 7D85      		ldd r23,Y+13
 3049 1232 C701      		movw r24,r14
 3050 1234 0E94 0000 		call create_chain
 3051 1238 3B01      		movw r6,r22
 3052 123a 4C01      		movw r8,r24
 3053               	.LM245:
 3054 123c 6115      		cp r22,__zero_reg__
 3055 123e 7105      		cpc r23,__zero_reg__
 3056 1240 8105      		cpc r24,__zero_reg__
 3057 1242 9105      		cpc r25,__zero_reg__
 3058 1244 01F4      		brne .+2
 3059 1246 00C0      		rjmp .L176
 3060               	.LVL278:
 3061               	.LM246:
 3062 1248 6130      		cpi r22,lo8(1)
 3063 124a 7105      		cpc r23,__zero_reg__
 3064 124c 8105      		cpc r24,__zero_reg__
 3065 124e 9105      		cpc r25,__zero_reg__
 3066 1250 01F4      		brne .+2
 3067 1252 00C0      		rjmp .L155
 3068               	.LM247:
 3069 1254 6F3F      		cpi r22,lo8(-1)
 3070 1256 2FEF      		ldi r18,hi8(-1)
 3071 1258 7207      		cpc r23,r18
 3072 125a 2FEF      		ldi r18,hlo8(-1)
 3073 125c 8207      		cpc r24,r18
 3074 125e 2FEF      		ldi r18,hhi8(-1)
 3075 1260 9207      		cpc r25,r18
 3076 1262 01F4      		brne .+2
 3077 1264 00C0      		rjmp .L156
 3078               	.LM248:
 3079 1266 8881      		ld r24,Y
 3080 1268 9981      		ldd r25,Y+1
 3081 126a 40E0      		ldi r20,lo8(0)
 3082 126c 50E0      		ldi r21,hi8(0)
 3083 126e 60E0      		ldi r22,hlo8(0)
 3084 1270 70E0      		ldi r23,hhi8(0)
 3085 1272 0E94 0000 		call move_window
 3086               	.LVL279:
 3087 1276 8823      		tst r24
 3088 1278 01F0      		breq .+2
 3089 127a 00C0      		rjmp .L156
 3090               	.LBB84:
 3091               	.LBB85:
 3092               	.LM249:
 3093 127c E881      		ld r30,Y
 3094 127e F981      		ldd r31,Y+1
 3095               	.LVL280:
 3096 1280 BE96      		adiw r30,46
 3097 1282 8FEF      		ldi r24,lo8(511)
 3098 1284 91E0      		ldi r25,hi8(511)
 3099               	.LVL281:
 3100               	.L161:
 3101               	.LM250:
 3102 1286 1192      		st Z+,__zero_reg__
 3103               	.LM251:
 3104 1288 0197      		sbiw r24,1
 3105 128a 2FEF      		ldi r18,hi8(-1)
 3106 128c 8F3F      		cpi r24,lo8(-1)
 3107 128e 9207      		cpc r25,r18
 3108 1290 01F4      		brne .L161
 3109               	.LBE85:
 3110               	.LBE84:
 3111               	.LM252:
 3112 1292 E880      		ld r14,Y
 3113 1294 F980      		ldd r15,Y+1
 3114               	.LBB81:
 3115               	.LBB82:
 3116               	.LM253:
 3117 1296 FEEF      		ldi r31,lo8(-2)
 3118 1298 2F2E      		mov r2,r31
 3119 129a FFEF      		ldi r31,hi8(-2)
 3120 129c 3F2E      		mov r3,r31
 3121 129e FFEF      		ldi r31,hlo8(-2)
 3122 12a0 4F2E      		mov r4,r31
 3123 12a2 FFEF      		ldi r31,hhi8(-2)
 3124 12a4 5F2E      		mov r5,r31
 3125               	.LVL282:
 3126 12a6 260C      		add r2,r6
 3127 12a8 371C      		adc r3,r7
 3128 12aa 481C      		adc r4,r8
 3129 12ac 591C      		adc r5,r9
 3130               	.LM254:
 3131 12ae F701      		movw r30,r14
 3132               	.LVL283:
 3133 12b0 8689      		ldd r24,Z+22
 3134 12b2 9789      		ldd r25,Z+23
 3135 12b4 A08D      		ldd r26,Z+24
 3136 12b6 B18D      		ldd r27,Z+25
 3137               	.LVL284:
 3138 12b8 0297      		sbiw r24,2
 3139 12ba A109      		sbc r26,__zero_reg__
 3140 12bc B109      		sbc r27,__zero_reg__
 3141 12be 2816      		cp r2,r24
 3142 12c0 3906      		cpc r3,r25
 3143 12c2 4A06      		cpc r4,r26
 3144 12c4 5B06      		cpc r5,r27
 3145 12c6 00F0      		brlo .+2
 3146 12c8 00C0      		rjmp .L177
 3147               	.LM255:
 3148 12ca F701      		movw r30,r14
 3149 12cc 2281      		ldd r18,Z+2
 3150 12ce 30E0      		ldi r19,lo8(0)
 3151 12d0 40E0      		ldi r20,lo8(0)
 3152 12d2 50E0      		ldi r21,hi8(0)
 3153 12d4 C201      		movw r24,r4
 3154 12d6 B101      		movw r22,r2
 3155 12d8 0E94 0000 		call __mulsi3
 3156 12dc 9B01      		movw r18,r22
 3157 12de AC01      		movw r20,r24
 3158 12e0 F701      		movw r30,r14
 3159 12e2 86A1      		ldd r24,Z+38
 3160 12e4 97A1      		ldd r25,Z+39
 3161 12e6 A0A5      		ldd r26,Z+40
 3162 12e8 B1A5      		ldd r27,Z+41
 3163 12ea 280F      		add r18,r24
 3164 12ec 391F      		adc r19,r25
 3165 12ee 4A1F      		adc r20,r26
 3166 12f0 5B1F      		adc r21,r27
 3167               	.L163:
 3168               	.LBE82:
 3169               	.LBE81:
 3170               	.LM256:
 3171 12f2 F701      		movw r30,r14
 3172 12f4 22A7      		std Z+42,r18
 3173 12f6 33A7      		std Z+43,r19
 3174 12f8 44A7      		std Z+44,r20
 3175 12fa 55A7      		std Z+45,r21
 3176               	.LM257:
 3177 12fc 8281      		ldd r24,Z+2
 3178 12fe 8823      		tst r24
 3179 1300 01F4      		brne .+2
 3180 1302 00C0      		rjmp .L178
 3181 1304 BB24      		clr r11
 3182               	.LVL285:
 3183               	.LM258:
 3184 1306 AA24      		clr r10
 3185 1308 A394      		inc r10
 3186               	.LVL286:
 3187 130a 00C0      		rjmp .L166
 3188               	.L180:
 3189               	.LM259:
 3190 130c E880      		ld r14,Y
 3191 130e F980      		ldd r15,Y+1
 3192 1310 F701      		movw r30,r14
 3193 1312 82A5      		ldd r24,Z+42
 3194 1314 93A5      		ldd r25,Z+43
 3195 1316 A4A5      		ldd r26,Z+44
 3196 1318 B5A5      		ldd r27,Z+45
 3197 131a 0196      		adiw r24,1
 3198 131c A11D      		adc r26,__zero_reg__
 3199 131e B11D      		adc r27,__zero_reg__
 3200 1320 82A7      		std Z+42,r24
 3201 1322 93A7      		std Z+43,r25
 3202 1324 A4A7      		std Z+44,r26
 3203 1326 B5A7      		std Z+45,r27
 3204               	.LM260:
 3205 1328 B394      		inc r11
 3206 132a 8281      		ldd r24,Z+2
 3207 132c B816      		cp r11,r24
 3208 132e 00F0      		brlo .+2
 3209 1330 00C0      		rjmp .L179
 3210               	.L166:
 3211               	.LM261:
 3212 1332 F701      		movw r30,r14
 3213 1334 A482      		std Z+4,r10
 3214               	.LM262:
 3215 1336 8881      		ld r24,Y
 3216 1338 9981      		ldd r25,Y+1
 3217 133a 40E0      		ldi r20,lo8(0)
 3218 133c 50E0      		ldi r21,hi8(0)
 3219 133e 60E0      		ldi r22,hlo8(0)
 3220 1340 70E0      		ldi r23,hhi8(0)
 3221 1342 0E94 0000 		call move_window
 3222 1346 8823      		tst r24
 3223 1348 01F0      		breq .L180
 3224               	.LVL287:
 3225               	.L156:
 3226               	.LBE80:
 3227               	.LM263:
 3228 134a 81E0      		ldi r24,lo8(1)
 3229 134c 00C0      		rjmp .L160
 3230               	.LVL288:
 3231               	.L155:
 3232 134e 82E0      		ldi r24,lo8(2)
 3233 1350 00C0      		rjmp .L160
 3234               	.LVL289:
 3235               	.L175:
 3236               	.LM264:
 3237 1352 AEEF      		ldi r26,lo8(-2)
 3238 1354 2A2E      		mov r2,r26
 3239 1356 AFEF      		ldi r26,hi8(-2)
 3240 1358 3A2E      		mov r3,r26
 3241 135a AFEF      		ldi r26,hlo8(-2)
 3242 135c 4A2E      		mov r4,r26
 3243 135e AFEF      		ldi r26,hhi8(-2)
 3244 1360 5A2E      		mov r5,r26
 3245               	.LVL290:
 3246 1362 260C      		add r2,r6
 3247 1364 371C      		adc r3,r7
 3248 1366 481C      		adc r4,r8
 3249 1368 591C      		adc r5,r9
 3250               	.LVL291:
 3251               	.L158:
 3252               	.LM265:
 3253 136a 6A86      		std Y+10,r6
 3254 136c 7B86      		std Y+11,r7
 3255 136e 8C86      		std Y+12,r8
 3256 1370 9D86      		std Y+13,r9
 3257               	.LBB87:
 3258               	.LBB88:
 3259               	.LM266:
 3260 1372 F701      		movw r30,r14
 3261 1374 8689      		ldd r24,Z+22
 3262 1376 9789      		ldd r25,Z+23
 3263 1378 A08D      		ldd r26,Z+24
 3264 137a B18D      		ldd r27,Z+25
 3265 137c 0297      		sbiw r24,2
 3266 137e A109      		sbc r26,__zero_reg__
 3267 1380 B109      		sbc r27,__zero_reg__
 3268 1382 2816      		cp r2,r24
 3269 1384 3906      		cpc r3,r25
 3270 1386 4A06      		cpc r4,r26
 3271 1388 5B06      		cpc r5,r27
 3272 138a 00F0      		brlo .L167
 3273 138c 20E0      		ldi r18,lo8(0)
 3274 138e 30E0      		ldi r19,hi8(0)
 3275 1390 40E0      		ldi r20,hlo8(0)
 3276 1392 50E0      		ldi r21,hhi8(0)
 3277               	.L168:
 3278               	.LBE88:
 3279               	.LBE87:
 3280               	.LM267:
 3281 1394 2E87      		std Y+14,r18
 3282 1396 3F87      		std Y+15,r19
 3283 1398 488B      		std Y+16,r20
 3284 139a 598B      		std Y+17,r21
 3285 139c 00C0      		rjmp .L153
 3286               	.L167:
 3287               	.LBB90:
 3288               	.LBB89:
 3289               	.LM268:
 3290 139e F701      		movw r30,r14
 3291 13a0 2281      		ldd r18,Z+2
 3292 13a2 30E0      		ldi r19,lo8(0)
 3293 13a4 40E0      		ldi r20,lo8(0)
 3294 13a6 50E0      		ldi r21,hi8(0)
 3295 13a8 C201      		movw r24,r4
 3296 13aa B101      		movw r22,r2
 3297 13ac 0E94 0000 		call __mulsi3
 3298 13b0 9B01      		movw r18,r22
 3299 13b2 AC01      		movw r20,r24
 3300 13b4 F701      		movw r30,r14
 3301 13b6 86A1      		ldd r24,Z+38
 3302 13b8 97A1      		ldd r25,Z+39
 3303 13ba A0A5      		ldd r26,Z+40
 3304 13bc B1A5      		ldd r27,Z+41
 3305 13be 280F      		add r18,r24
 3306 13c0 391F      		adc r19,r25
 3307 13c2 4A1F      		adc r20,r26
 3308 13c4 5B1F      		adc r21,r27
 3309 13c6 00C0      		rjmp .L168
 3310               	.LVL292:
 3311               	.L176:
 3312               	.LBE89:
 3313               	.LBE90:
 3314               	.LBB91:
 3315               	.LM269:
 3316 13c8 87E0      		ldi r24,lo8(7)
 3317 13ca 00C0      		rjmp .L160
 3318               	.LVL293:
 3319               	.L177:
 3320               	.LBB86:
 3321               	.LBB83:
 3322               	.LM270:
 3323 13cc 20E0      		ldi r18,lo8(0)
 3324 13ce 30E0      		ldi r19,hi8(0)
 3325 13d0 40E0      		ldi r20,hlo8(0)
 3326 13d2 50E0      		ldi r21,hhi8(0)
 3327 13d4 00C0      		rjmp .L163
 3328               	.LVL294:
 3329               	.L179:
 3330               	.LBE83:
 3331               	.LBE86:
 3332               	.LM271:
 3333 13d6 2B2D      		mov r18,r11
 3334 13d8 30E0      		ldi r19,lo8(0)
 3335 13da 40E0      		ldi r20,lo8(0)
 3336 13dc 50E0      		ldi r21,hi8(0)
 3337               	.LVL295:
 3338               	.L165:
 3339               	.LM272:
 3340 13de F701      		movw r30,r14
 3341 13e0 82A5      		ldd r24,Z+42
 3342 13e2 93A5      		ldd r25,Z+43
 3343 13e4 A4A5      		ldd r26,Z+44
 3344 13e6 B5A5      		ldd r27,Z+45
 3345 13e8 821B      		sub r24,r18
 3346 13ea 930B      		sbc r25,r19
 3347 13ec A40B      		sbc r26,r20
 3348 13ee B50B      		sbc r27,r21
 3349 13f0 82A7      		std Z+42,r24
 3350 13f2 93A7      		std Z+43,r25
 3351 13f4 A4A7      		std Z+44,r26
 3352 13f6 B5A7      		std Z+45,r27
 3353 13f8 00C0      		rjmp .L158
 3354               	.LVL296:
 3355               	.L178:
 3356               	.LM273:
 3357 13fa 20E0      		ldi r18,lo8(0)
 3358 13fc 30E0      		ldi r19,hi8(0)
 3359 13fe 40E0      		ldi r20,hlo8(0)
 3360 1400 50E0      		ldi r21,hhi8(0)
 3361 1402 00C0      		rjmp .L165
 3362               	.LBE91:
 3363               	.LFE14:
 3365               	.global	f_readdir
 3367               	f_readdir:
 3368               	.LFB32:
 3369               	.LM274:
 3370               	.LVL297:
 3371 1404 CF92      		push r12
 3372 1406 DF92      		push r13
 3373 1408 EF92      		push r14
 3374 140a FF92      		push r15
 3375 140c 0F93      		push r16
 3376 140e 1F93      		push r17
 3377 1410 DF93      		push r29
 3378 1412 CF93      		push r28
 3379 1414 CDB7      		in r28,__SP_L__
 3380 1416 DEB7      		in r29,__SP_H__
 3381 1418 2C97      		sbiw r28,12
 3382 141a 0FB6      		in __tmp_reg__,__SREG__
 3383 141c F894      		cli
 3384 141e DEBF      		out __SP_H__,r29
 3385 1420 0FBE      		out __SREG__,__tmp_reg__
 3386 1422 CDBF      		out __SP_L__,r28
 3387               	/* prologue: function */
 3388               	/* frame size = 12 */
 3389 1424 8C01      		movw r16,r24
 3390 1426 6B01      		movw r12,r22
 3391               	.LM275:
 3392 1428 DC01      		movw r26,r24
 3393 142a 1296      		adiw r26,2
 3394 142c 6D91      		ld r22,X+
 3395 142e 7C91      		ld r23,X
 3396 1430 1397      		sbiw r26,2+1
 3397               	.LVL298:
 3398 1432 8D91      		ld r24,X+
 3399 1434 9C91      		ld r25,X
 3400               	.LVL299:
 3401 1436 0E94 0000 		call validate
 3402               	.LM276:
 3403 143a 8823      		tst r24
 3404               	.LVL300:
 3405 143c 01F0      		breq .+2
 3406 143e 00C0      		rjmp .L183
 3407               	.LM277:
 3408 1440 C114      		cp r12,__zero_reg__
 3409 1442 D104      		cpc r13,__zero_reg__
 3410 1444 01F4      		brne .+2
 3411 1446 00C0      		rjmp .L205
 3412               	.LM278:
 3413 1448 CE01      		movw r24,r28
 3414               	.LVL301:
 3415 144a 0196      		adiw r24,1
 3416 144c F801      		movw r30,r16
 3417 144e 958B      		std Z+21,r25
 3418 1450 848B      		std Z+20,r24
 3419 1452 84E0      		ldi r24,lo8(4)
 3420               	.LVL302:
 3421               	.L185:
 3422               	.LBB92:
 3423               	.LBB95:
 3424               	.LM279:
 3425 1454 F801      		movw r30,r16
 3426 1456 4685      		ldd r20,Z+14
 3427 1458 5785      		ldd r21,Z+15
 3428 145a 6089      		ldd r22,Z+16
 3429 145c 7189      		ldd r23,Z+17
 3430 145e 4115      		cp r20,__zero_reg__
 3431 1460 5105      		cpc r21,__zero_reg__
 3432 1462 6105      		cpc r22,__zero_reg__
 3433 1464 7105      		cpc r23,__zero_reg__
 3434 1466 01F4      		brne .+2
 3435 1468 00C0      		rjmp .L206
 3436               	.LBE95:
 3437               	.LM280:
 3438 146a D801      		movw r26,r16
 3439 146c 8D91      		ld r24,X+
 3440 146e 9C91      		ld r25,X
 3441               	.LVL303:
 3442 1470 0E94 0000 		call move_window
 3443               	.LBB94:
 3444               	.LM281:
 3445 1474 8823      		tst r24
 3446               	.LVL304:
 3447 1476 01F4      		brne .L186
 3448               	.LM282:
 3449 1478 F801      		movw r30,r16
 3450 147a 6289      		ldd r22,Z+18
 3451 147c 7389      		ldd r23,Z+19
 3452               	.LVL305:
 3453               	.LM283:
 3454 147e DB01      		movw r26,r22
 3455 1480 8C91      		ld r24,X
 3456               	.LVL306:
 3457               	.LM284:
 3458 1482 8823      		tst r24
 3459 1484 01F4      		brne .+2
 3460 1486 00C0      		rjmp .L187
 3461               	.LM285:
 3462 1488 853E      		cpi r24,lo8(-27)
 3463 148a 01F0      		breq .L188
 3464 148c 8E32      		cpi r24,lo8(46)
 3465 148e 01F0      		breq .L188
 3466 1490 1B96      		adiw r26,11
 3467 1492 8C91      		ld r24,X
 3468               	.LVL307:
 3469 1494 83FF      		sbrs r24,3
 3470 1496 00C0      		rjmp .L189
 3471               	.LVL308:
 3472               	.L188:
 3473               	.LBE94:
 3474               	.LM286:
 3475 1498 C801      		movw r24,r16
 3476               	.LVL309:
 3477 149a 60E0      		ldi r22,lo8(0)
 3478 149c 70E0      		ldi r23,hi8(0)
 3479               	.LVL310:
 3480 149e 0E94 0000 		call dir_next
 3481               	.LBB93:
 3482               	.LM287:
 3483 14a2 8823      		tst r24
 3484               	.LVL311:
 3485 14a4 01F0      		breq .L185
 3486               	.LVL312:
 3487               	.L186:
 3488               	.LM288:
 3489 14a6 D801      		movw r26,r16
 3490 14a8 1E96      		adiw r26,14
 3491 14aa 1D92      		st X+,__zero_reg__
 3492 14ac 1D92      		st X+,__zero_reg__
 3493 14ae 1D92      		st X+,__zero_reg__
 3494 14b0 1C92      		st X,__zero_reg__
 3495 14b2 5197      		sbiw r26,14+3
 3496               	.LBE93:
 3497               	.LBE92:
 3498               	.LM289:
 3499 14b4 8430      		cpi r24,lo8(4)
 3500 14b6 01F4      		brne .L192
 3501               	.L191:
 3502               	.LBB97:
 3503               	.LBB98:
 3504               	.LM290:
 3505 14b8 9601      		movw r18,r12
 3506               	.LVL313:
 3507 14ba 275F      		subi r18,lo8(-(9))
 3508 14bc 3F4F      		sbci r19,hi8(-(9))
 3509               	.LVL314:
 3510               	.L193:
 3511               	.LM291:
 3512 14be F901      		movw r30,r18
 3513 14c0 1082      		st Z,__zero_reg__
 3514               	.LBE98:
 3515               	.LBE97:
 3516               	.LM292:
 3517 14c2 C801      		movw r24,r16
 3518               	.LVL315:
 3519 14c4 60E0      		ldi r22,lo8(0)
 3520 14c6 70E0      		ldi r23,hi8(0)
 3521               	.LVL316:
 3522 14c8 0E94 0000 		call dir_next
 3523               	.LVL317:
 3524               	.LM293:
 3525 14cc 8430      		cpi r24,lo8(4)
 3526               	.LVL318:
 3527 14ce 01F0      		breq .L207
 3528               	.LVL319:
 3529               	.L183:
 3530               	.LVL320:
 3531               	/* epilogue start */
 3532               	.LM294:
 3533 14d0 2C96      		adiw r28,12
 3534 14d2 0FB6      		in __tmp_reg__,__SREG__
 3535 14d4 F894      		cli
 3536 14d6 DEBF      		out __SP_H__,r29
 3537 14d8 0FBE      		out __SREG__,__tmp_reg__
 3538 14da CDBF      		out __SP_L__,r28
 3539 14dc CF91      		pop r28
 3540 14de DF91      		pop r29
 3541 14e0 1F91      		pop r17
 3542 14e2 0F91      		pop r16
 3543               	.LVL321:
 3544 14e4 FF90      		pop r15
 3545 14e6 EF90      		pop r14
 3546               	.LVL322:
 3547 14e8 DF90      		pop r13
 3548 14ea CF90      		pop r12
 3549               	.LVL323:
 3550 14ec 0895      		ret
 3551               	.LVL324:
 3552               	.L192:
 3553               	.LM295:
 3554 14ee 8823      		tst r24
 3555 14f0 01F4      		brne .L183
 3556 14f2 00C0      		rjmp .L191
 3557               	.LVL325:
 3558               	.L207:
 3559               	.LM296:
 3560 14f4 D801      		movw r26,r16
 3561 14f6 1E96      		adiw r26,14
 3562 14f8 1D92      		st X+,__zero_reg__
 3563 14fa 1D92      		st X+,__zero_reg__
 3564 14fc 1D92      		st X+,__zero_reg__
 3565 14fe 1C92      		st X,__zero_reg__
 3566 1500 5197      		sbiw r26,14+3
 3567 1502 80E0      		ldi r24,lo8(0)
 3568 1504 00C0      		rjmp .L183
 3569               	.LVL326:
 3570               	.L206:
 3571               	.LBB100:
 3572               	.LBB96:
 3573               	.LM297:
 3574 1506 8823      		tst r24
 3575 1508 01F0      		breq .L191
 3576 150a 00C0      		rjmp .L186
 3577               	.LVL327:
 3578               	.L187:
 3579               	.LBE96:
 3580               	.LBE100:
 3581               	.LM298:
 3582 150c 84E0      		ldi r24,lo8(4)
 3583               	.LVL328:
 3584 150e 00C0      		rjmp .L186
 3585               	.LVL329:
 3586               	.L205:
 3587               	.LM299:
 3588 1510 C801      		movw r24,r16
 3589               	.LVL330:
 3590 1512 60E0      		ldi r22,lo8(0)
 3591 1514 70E0      		ldi r23,hi8(0)
 3592 1516 0E94 0000 		call dir_sdi
 3593 151a 00C0      		rjmp .L183
 3594               	.LVL331:
 3595               	.L189:
 3596               	.LBB101:
 3597               	.LBB99:
 3598               	.LM300:
 3599 151c 9601      		movw r18,r12
 3600               	.LVL332:
 3601 151e 275F      		subi r18,lo8(-(9))
 3602 1520 3F4F      		sbci r19,hi8(-(9))
 3603               	.LM301:
 3604 1522 F801      		movw r30,r16
 3605 1524 8685      		ldd r24,Z+14
 3606 1526 9785      		ldd r25,Z+15
 3607 1528 A089      		ldd r26,Z+16
 3608 152a B189      		ldd r27,Z+17
 3609 152c 0097      		sbiw r24,0
 3610 152e A105      		cpc r26,__zero_reg__
 3611 1530 B105      		cpc r27,__zero_reg__
 3612 1532 01F0      		breq .L193
 3613               	.LM302:
 3614 1534 80E0      		ldi r24,lo8(0)
 3615 1536 90E0      		ldi r25,hi8(0)
 3616               	.LVL333:
 3617 1538 00C0      		rjmp .L197
 3618               	.LVL334:
 3619               	.L196:
 3620               	.LM303:
 3621 153a D901      		movw r26,r18
 3622 153c ED93      		st X+,r30
 3623 153e 9D01      		movw r18,r26
 3624               	.LM304:
 3625 1540 0196      		adiw r24,1
 3626 1542 8830      		cpi r24,8
 3627 1544 9105      		cpc r25,__zero_reg__
 3628 1546 01F0      		breq .L195
 3629               	.L197:
 3630               	.LM305:
 3631 1548 FB01      		movw r30,r22
 3632               	.LVL335:
 3633 154a E80F      		add r30,r24
 3634 154c F91F      		adc r31,r25
 3635 154e E081      		ld r30,Z
 3636               	.LVL336:
 3637               	.LM306:
 3638 1550 E032      		cpi r30,lo8(32)
 3639 1552 01F0      		breq .L195
 3640               	.LM307:
 3641 1554 E530      		cpi r30,lo8(5)
 3642 1556 01F4      		brne .L196
 3643 1558 E5EE      		ldi r30,lo8(-27)
 3644               	.LM308:
 3645 155a D901      		movw r26,r18
 3646 155c ED93      		st X+,r30
 3647 155e 9D01      		movw r18,r26
 3648               	.LM309:
 3649 1560 0196      		adiw r24,1
 3650 1562 8830      		cpi r24,8
 3651 1564 9105      		cpc r25,__zero_reg__
 3652 1566 01F4      		brne .L197
 3653               	.L195:
 3654               	.LM310:
 3655 1568 FB01      		movw r30,r22
 3656               	.LVL337:
 3657 156a 8085      		ldd r24,Z+8
 3658               	.LVL338:
 3659 156c 8032      		cpi r24,lo8(32)
 3660 156e 01F4      		brne .+2
 3661 1570 00C0      		rjmp .L208
 3662               	.LM311:
 3663 1572 8EE2      		ldi r24,lo8(46)
 3664 1574 D901      		movw r26,r18
 3665 1576 8D93      		st X+,r24
 3666 1578 7D01      		movw r14,r26
 3667               	.LVL339:
 3668 157a FB01      		movw r30,r22
 3669               	.LM312:
 3670 157c 2C5F      		subi r18,lo8(-(4))
 3671 157e 3F4F      		sbci r19,hi8(-(4))
 3672               	.LVL340:
 3673               	.L200:
 3674               	.LM313:
 3675 1580 8085      		ldd r24,Z+8
 3676               	.LM314:
 3677 1582 8032      		cpi r24,lo8(32)
 3678 1584 01F0      		breq .L199
 3679               	.LM315:
 3680 1586 D701      		movw r26,r14
 3681 1588 8D93      		st X+,r24
 3682 158a 7D01      		movw r14,r26
 3683 158c 3196      		adiw r30,1
 3684               	.LM316:
 3685 158e A217      		cp r26,r18
 3686 1590 B307      		cpc r27,r19
 3687 1592 01F4      		brne .L200
 3688               	.LVL341:
 3689               	.L199:
 3690               	.LM317:
 3691 1594 FB01      		movw r30,r22
 3692 1596 8385      		ldd r24,Z+11
 3693               	.LVL342:
 3694 1598 D601      		movw r26,r12
 3695 159a 1896      		adiw r26,8
 3696 159c 8C93      		st X,r24
 3697               	.LM318:
 3698 159e 278D      		ldd r18,Z+31
 3699 15a0 30E0      		ldi r19,lo8(0)
 3700 15a2 40E0      		ldi r20,lo8(0)
 3701 15a4 50E0      		ldi r21,hi8(0)
 3702 15a6 522F      		mov r21,r18
 3703 15a8 4427      		clr r20
 3704 15aa 3327      		clr r19
 3705 15ac 2227      		clr r18
 3706 15ae 868D      		ldd r24,Z+30
 3707 15b0 90E0      		ldi r25,lo8(0)
 3708 15b2 A0E0      		ldi r26,lo8(0)
 3709 15b4 B0E0      		ldi r27,hi8(0)
 3710 15b6 DC01      		movw r26,r24
 3711 15b8 9927      		clr r25
 3712 15ba 8827      		clr r24
 3713 15bc 282B      		or r18,r24
 3714 15be 392B      		or r19,r25
 3715 15c0 4A2B      		or r20,r26
 3716 15c2 5B2B      		or r21,r27
 3717 15c4 848D      		ldd r24,Z+28
 3718 15c6 90E0      		ldi r25,lo8(0)
 3719 15c8 A0E0      		ldi r26,lo8(0)
 3720 15ca B0E0      		ldi r27,hi8(0)
 3721 15cc 282B      		or r18,r24
 3722 15ce 392B      		or r19,r25
 3723 15d0 4A2B      		or r20,r26
 3724 15d2 5B2B      		or r21,r27
 3725 15d4 958D      		ldd r25,Z+29
 3726 15d6 80E0      		ldi r24,lo8(0)
 3727 15d8 A0E0      		ldi r26,lo8(0)
 3728 15da B0E0      		ldi r27,hi8(0)
 3729 15dc 282B      		or r18,r24
 3730 15de 392B      		or r19,r25
 3731 15e0 4A2B      		or r20,r26
 3732 15e2 5B2B      		or r21,r27
 3733 15e4 F601      		movw r30,r12
 3734 15e6 2083      		st Z,r18
 3735 15e8 3183      		std Z+1,r19
 3736 15ea 4283      		std Z+2,r20
 3737 15ec 5383      		std Z+3,r21
 3738               	.LM319:
 3739 15ee DB01      		movw r26,r22
 3740 15f0 5996      		adiw r26,25
 3741 15f2 9C91      		ld r25,X
 3742 15f4 5997      		sbiw r26,25
 3743 15f6 80E0      		ldi r24,lo8(0)
 3744 15f8 5896      		adiw r26,24
 3745 15fa 2C91      		ld r18,X
 3746 15fc 5897      		sbiw r26,24
 3747 15fe 30E0      		ldi r19,lo8(0)
 3748 1600 822B      		or r24,r18
 3749 1602 932B      		or r25,r19
 3750 1604 9583      		std Z+5,r25
 3751 1606 8483      		std Z+4,r24
 3752               	.LM320:
 3753 1608 5796      		adiw r26,23
 3754 160a 9C91      		ld r25,X
 3755 160c 5797      		sbiw r26,23
 3756 160e 80E0      		ldi r24,lo8(0)
 3757 1610 5696      		adiw r26,22
 3758 1612 2C91      		ld r18,X
 3759 1614 30E0      		ldi r19,lo8(0)
 3760 1616 822B      		or r24,r18
 3761 1618 932B      		or r25,r19
 3762 161a 9783      		std Z+7,r25
 3763 161c 8683      		std Z+6,r24
 3764 161e 9701      		movw r18,r14
 3765 1620 00C0      		rjmp .L193
 3766               	.LVL343:
 3767               	.L208:
 3768               	.LM321:
 3769 1622 7901      		movw r14,r18
 3770 1624 00C0      		rjmp .L199
 3771               	.LBE99:
 3772               	.LBE101:
 3773               	.LFE32:
 3775               		.data
 3776               	.LC0:
 3777 0000 222A 2B2C 		.string	"\"*+,:;<=>?[]|\177"
 3777      3A3B 3C3D 
 3777      3E3F 5B5D 
 3777      7C7F 00
 3778               		.text
 3780               	follow_path:
 3781               	.LFB20:
 3782               	.LM322:
 3783               	.LVL344:
 3784 1626 5F92      		push r5
 3785 1628 6F92      		push r6
 3786 162a 7F92      		push r7
 3787 162c 8F92      		push r8
 3788 162e 9F92      		push r9
 3789 1630 AF92      		push r10
 3790 1632 BF92      		push r11
 3791 1634 CF92      		push r12
 3792 1636 DF92      		push r13
 3793 1638 EF92      		push r14
 3794 163a FF92      		push r15
 3795 163c 0F93      		push r16
 3796 163e 1F93      		push r17
 3797 1640 CF93      		push r28
 3798 1642 DF93      		push r29
 3799               	/* prologue: function */
 3800               	/* frame size = 0 */
 3801 1644 5C01      		movw r10,r24
 3802 1646 6B01      		movw r12,r22
 3803               	.LM323:
 3804 1648 DB01      		movw r26,r22
 3805 164a 8C91      		ld r24,X
 3806               	.LVL345:
 3807 164c 8F32      		cpi r24,lo8(47)
 3808 164e 01F4      		brne .+2
 3809 1650 00C0      		rjmp .L210
 3810 1652 8C35      		cpi r24,lo8(92)
 3811 1654 01F4      		brne .+2
 3812 1656 00C0      		rjmp .L210
 3813               	.LVL346:
 3814               	.L211:
 3815               	.LM324:
 3816 1658 F501      		movw r30,r10
 3817 165a 1682      		std Z+6,__zero_reg__
 3818 165c 1782      		std Z+7,__zero_reg__
 3819 165e 1086      		std Z+8,__zero_reg__
 3820 1660 1186      		std Z+9,__zero_reg__
 3821               	.LM325:
 3822 1662 D601      		movw r26,r12
 3823 1664 8C91      		ld r24,X
 3824 1666 8032      		cpi r24,lo8(32)
 3825 1668 00F4      		brsh .+2
 3826 166a 00C0      		rjmp .L251
 3827 166c F501      		movw r30,r10
 3828 166e 0489      		ldd r16,Z+20
 3829 1670 1589      		ldd r17,Z+21
 3830               	.LVL347:
 3831               	.LBB102:
 3832               	.LBB104:
 3833               	.LBB108:
 3834               	.LBB109:
 3835               	.LM326:
 3836 1672 30E2      		ldi r19,lo8(32)
 3837 1674 E32E      		mov r14,r19
 3838               	.LBE109:
 3839               	.LBE108:
 3840               	.LM327:
 3841 1676 25E0      		ldi r18,lo8(5)
 3842 1678 522E      		mov r5,r18
 3843               	.LVL348:
 3844               	.L212:
 3845               	.LM328:
 3846 167a F801      		movw r30,r16
 3847 167c 8AE0      		ldi r24,lo8(10)
 3848 167e 90E0      		ldi r25,hi8(10)
 3849               	.LVL349:
 3850               	.L214:
 3851               	.LBB107:
 3852               	.LBB110:
 3853               	.LM329:
 3854 1680 E192      		st Z+,r14
 3855               	.LM330:
 3856 1682 0197      		sbiw r24,1
 3857 1684 BFEF      		ldi r27,hi8(-1)
 3858 1686 8F3F      		cpi r24,lo8(-1)
 3859 1688 9B07      		cpc r25,r27
 3860 168a 01F4      		brne .L214
 3861 168c 60E0      		ldi r22,lo8(0)
 3862 168e 70E0      		ldi r23,hi8(0)
 3863               	.LVL350:
 3864 1690 40E0      		ldi r20,lo8(0)
 3865 1692 50E0      		ldi r21,hi8(0)
 3866               	.LVL351:
 3867 1694 C8E0      		ldi r28,lo8(8)
 3868 1696 D0E0      		ldi r29,hi8(8)
 3869               	.LVL352:
 3870 1698 FF24      		clr r15
 3871               	.LVL353:
 3872               	.L252:
 3873               	.LBE110:
 3874               	.LBE107:
 3875               	.LM331:
 3876 169a F601      		movw r30,r12
 3877 169c E40F      		add r30,r20
 3878 169e F51F      		adc r31,r21
 3879 16a0 2081      		ld r18,Z
 3880 16a2 4F5F      		subi r20,lo8(-(1))
 3881 16a4 5F4F      		sbci r21,hi8(-(1))
 3882               	.LM332:
 3883 16a6 2132      		cpi r18,lo8(33)
 3884 16a8 00F4      		brsh .+2
 3885 16aa 00C0      		rjmp .L215
 3886 16ac 2F32      		cpi r18,lo8(47)
 3887 16ae 01F4      		brne .+2
 3888 16b0 00C0      		rjmp .L216
 3889 16b2 2C35      		cpi r18,lo8(92)
 3890 16b4 01F4      		brne .+2
 3891 16b6 00C0      		rjmp .L216
 3892               	.LM333:
 3893 16b8 2E32      		cpi r18,lo8(46)
 3894 16ba 01F0      		breq .L217
 3895 16bc 6C17      		cp r22,r28
 3896 16be 7D07      		cpc r23,r29
 3897 16c0 00F4      		brsh .L217
 3898               	.LM334:
 3899 16c2 27FD      		sbrc r18,7
 3900 16c4 00C0      		rjmp .L254
 3901               	.L221:
 3902               	.LM335:
 3903 16c6 822F      		mov r24,r18
 3904               	.LVL354:
 3905 16c8 8158      		subi r24,lo8(-(127))
 3906 16ca 8F31      		cpi r24,lo8(31)
 3907 16cc 00F0      		brlo .L222
 3908 16ce 8F55      		subi r24,lo8(-(-95))
 3909 16d0 8D31      		cpi r24,lo8(29)
 3910 16d2 00F0      		brlo .L222
 3911               	.LM336:
 3912 16d4 A22F      		mov r26,r18
 3913 16d6 B0E0      		ldi r27,lo8(0)
 3914               	.LBB105:
 3915               	.LBB106:
 3916               	.LM337:
 3917 16d8 A232      		cpi r26,34
 3918 16da B105      		cpc r27,__zero_reg__
 3919 16dc 01F4      		brne .+2
 3920 16de 00C0      		rjmp .L219
 3921 16e0 E0E0      		ldi r30,lo8(.LC0)
 3922 16e2 F0E0      		ldi r31,hi8(.LC0)
 3923               	.LVL355:
 3924 16e4 00C0      		rjmp .L226
 3925               	.L255:
 3926 16e6 90E0      		ldi r25,lo8(0)
 3927 16e8 A817      		cp r26,r24
 3928 16ea B907      		cpc r27,r25
 3929 16ec 01F4      		brne .+2
 3930 16ee 00C0      		rjmp .L219
 3931               	.L226:
 3932 16f0 3196      		adiw r30,1
 3933 16f2 8081      		ld r24,Z
 3934 16f4 8823      		tst r24
 3935 16f6 01F4      		brne .L255
 3936               	.LBE106:
 3937               	.LBE105:
 3938               	.LM338:
 3939 16f8 822F      		mov r24,r18
 3940 16fa 8154      		subi r24,lo8(-(-65))
 3941 16fc 8A31      		cpi r24,lo8(26)
 3942 16fe 00F0      		brlo .+2
 3943 1700 00C0      		rjmp .L227
 3944               	.LM339:
 3945 1702 F2E0      		ldi r31,lo8(2)
 3946 1704 FF2A      		or r15,r31
 3947               	.L228:
 3948               	.LM340:
 3949 1706 F801      		movw r30,r16
 3950               	.LVL356:
 3951 1708 E60F      		add r30,r22
 3952 170a F71F      		adc r31,r23
 3953 170c 2083      		st Z,r18
 3954 170e 6F5F      		subi r22,lo8(-(1))
 3955 1710 7F4F      		sbci r23,hi8(-(1))
 3956 1712 00C0      		rjmp .L252
 3957               	.LVL357:
 3958               	.L210:
 3959               	.LBE104:
 3960               	.LBE102:
 3961               	.LM341:
 3962 1714 0894      		sec
 3963 1716 C11C      		adc r12,__zero_reg__
 3964 1718 D11C      		adc r13,__zero_reg__
 3965               	.LVL358:
 3966 171a 00C0      		rjmp .L211
 3967               	.LVL359:
 3968               	.L217:
 3969               	.LBB113:
 3970               	.LBB111:
 3971               	.LM342:
 3972 171c 2897      		sbiw r28,8
 3973 171e 01F0      		breq .+2
 3974 1720 00C0      		rjmp .L219
 3975 1722 2E32      		cpi r18,lo8(46)
 3976 1724 01F0      		breq .+2
 3977 1726 00C0      		rjmp .L219
 3978               	.LM343:
 3979 1728 FF0C      		lsl r15
 3980 172a FF0C      		lsl r15
 3981 172c 68E0      		ldi r22,lo8(8)
 3982 172e 70E0      		ldi r23,hi8(8)
 3983 1730 CBE0      		ldi r28,lo8(11)
 3984 1732 D0E0      		ldi r29,hi8(11)
 3985 1734 00C0      		rjmp .L252
 3986               	.LVL360:
 3987               	.L222:
 3988               	.LM344:
 3989 1736 F601      		movw r30,r12
 3990 1738 E40F      		add r30,r20
 3991 173a F51F      		adc r31,r21
 3992 173c 3081      		ld r19,Z
 3993               	.LM345:
 3994 173e 832F      		mov r24,r19
 3995 1740 8054      		subi r24,lo8(-(-64))
 3996 1742 8F33      		cpi r24,lo8(63)
 3997 1744 00F0      		brlo .L224
 3998 1746 8054      		subi r24,lo8(-(-64))
 3999 1748 8D37      		cpi r24,lo8(125)
 4000 174a 00F0      		brlo .+2
 4001 174c 00C0      		rjmp .L219
 4002               	.L224:
 4003 174e CE01      		movw r24,r28
 4004 1750 0197      		sbiw r24,1
 4005 1752 6817      		cp r22,r24
 4006 1754 7907      		cpc r23,r25
 4007 1756 00F0      		brlo .+2
 4008 1758 00C0      		rjmp .L219
 4009               	.LM346:
 4010 175a 4F5F      		subi r20,lo8(-(1))
 4011 175c 5F4F      		sbci r21,hi8(-(1))
 4012               	.LM347:
 4013 175e F801      		movw r30,r16
 4014 1760 E60F      		add r30,r22
 4015 1762 F71F      		adc r31,r23
 4016 1764 2083      		st Z,r18
 4017 1766 CB01      		movw r24,r22
 4018 1768 0196      		adiw r24,1
 4019               	.LVL361:
 4020               	.LM348:
 4021 176a F801      		movw r30,r16
 4022 176c E80F      		add r30,r24
 4023 176e F91F      		adc r31,r25
 4024 1770 3083      		st Z,r19
 4025 1772 BC01      		movw r22,r24
 4026 1774 6F5F      		subi r22,lo8(-(1))
 4027 1776 7F4F      		sbci r23,hi8(-(1))
 4028               	.LVL362:
 4029 1778 00C0      		rjmp .L252
 4030               	.LVL363:
 4031               	.L254:
 4032               	.LM349:
 4033 177a E3E0      		ldi r30,lo8(3)
 4034 177c FE2A      		or r15,r30
 4035 177e 00C0      		rjmp .L221
 4036               	.LVL364:
 4037               	.L227:
 4038               	.LM350:
 4039 1780 822F      		mov r24,r18
 4040 1782 8156      		subi r24,lo8(-(-97))
 4041 1784 8A31      		cpi r24,lo8(26)
 4042 1786 00F0      		brlo .+2
 4043 1788 00C0      		rjmp .L228
 4044               	.LM351:
 4045 178a 81E0      		ldi r24,lo8(1)
 4046 178c F82A      		or r15,r24
 4047 178e 2052      		subi r18,lo8(-(-32))
 4048 1790 00C0      		rjmp .L228
 4049               	.LVL365:
 4050               	.L216:
 4051               	.LM352:
 4052 1792 C40E      		add r12,r20
 4053 1794 D51E      		adc r13,r21
 4054 1796 40E0      		ldi r20,lo8(0)
 4055               	.LVL366:
 4056               	.LM353:
 4057 1798 672B      		or r22,r23
 4058 179a 01F4      		brne .+2
 4059 179c 00C0      		rjmp .L219
 4060               	.L261:
 4061               	.LM354:
 4062 179e D801      		movw r26,r16
 4063 17a0 8C91      		ld r24,X
 4064               	.LVL367:
 4065 17a2 853E      		cpi r24,lo8(-27)
 4066 17a4 01F4      		brne .+2
 4067 17a6 00C0      		rjmp .L256
 4068               	.LM355:
 4069 17a8 2897      		sbiw r28,8
 4070 17aa 01F4      		brne .+2
 4071 17ac 00C0      		rjmp .L257
 4072               	.L230:
 4073               	.LM356:
 4074 17ae 2F2D      		mov r18,r15
 4075 17b0 30E0      		ldi r19,lo8(0)
 4076               	.LVL368:
 4077 17b2 C901      		movw r24,r18
 4078 17b4 8370      		andi r24,lo8(3)
 4079 17b6 9070      		andi r25,hi8(3)
 4080 17b8 0197      		sbiw r24,1
 4081 17ba 01F4      		brne .+2
 4082 17bc 00C0      		rjmp .L258
 4083               	.L231:
 4084               	.LM357:
 4085 17be 2C70      		andi r18,lo8(12)
 4086 17c0 3070      		andi r19,hi8(12)
 4087 17c2 2430      		cpi r18,4
 4088 17c4 3105      		cpc r19,__zero_reg__
 4089 17c6 01F4      		brne .+2
 4090 17c8 00C0      		rjmp .L259
 4091               	.L232:
 4092               	.LM358:
 4093 17ca F801      		movw r30,r16
 4094 17cc 4387      		std Z+11,r20
 4095               	.LBE111:
 4096               	.LBE113:
 4097               	.LBB114:
 4098               	.LM359:
 4099 17ce C501      		movw r24,r10
 4100 17d0 60E0      		ldi r22,lo8(0)
 4101 17d2 70E0      		ldi r23,hi8(0)
 4102               	.LVL369:
 4103 17d4 0E94 0000 		call dir_sdi
 4104               	.LVL370:
 4105 17d8 482F      		mov r20,r24
 4106               	.LVL371:
 4107               	.LBB115:
 4108               	.LM360:
 4109 17da 8823      		tst r24
 4110 17dc 01F0      		breq .L247
 4111               	.LVL372:
 4112               	.L234:
 4113               	.LBE115:
 4114               	.LBE114:
 4115               	.LM361:
 4116 17de D501      		movw r26,r10
 4117 17e0 5496      		adiw r26,20
 4118 17e2 ED91      		ld r30,X+
 4119 17e4 FC91      		ld r31,X
 4120 17e6 5597      		sbiw r26,20+1
 4121 17e8 8385      		ldd r24,Z+11
 4122               	.LVL373:
 4123               	.LM362:
 4124 17ea 4430      		cpi r20,lo8(4)
 4125 17ec 01F4      		brne .+2
 4126 17ee 00C0      		rjmp .L260
 4127               	.LVL374:
 4128               	.L213:
 4129               	.LM363:
 4130 17f0 842F      		mov r24,r20
 4131               	.LVL375:
 4132               	/* epilogue start */
 4133 17f2 DF91      		pop r29
 4134 17f4 CF91      		pop r28
 4135               	.LVL376:
 4136 17f6 1F91      		pop r17
 4137 17f8 0F91      		pop r16
 4138               	.LVL377:
 4139 17fa FF90      		pop r15
 4140               	.LVL378:
 4141 17fc EF90      		pop r14
 4142 17fe DF90      		pop r13
 4143 1800 CF90      		pop r12
 4144               	.LVL379:
 4145 1802 BF90      		pop r11
 4146 1804 AF90      		pop r10
 4147               	.LVL380:
 4148 1806 9F90      		pop r9
 4149 1808 8F90      		pop r8
 4150 180a 7F90      		pop r7
 4151 180c 6F90      		pop r6
 4152 180e 5F90      		pop r5
 4153 1810 0895      		ret
 4154               	.LVL381:
 4155               	.L236:
 4156               	.LBB122:
 4157               	.LM364:
 4158 1812 C501      		movw r24,r10
 4159 1814 60E0      		ldi r22,lo8(0)
 4160 1816 70E0      		ldi r23,hi8(0)
 4161 1818 0E94 0000 		call dir_next
 4162               	.LVL382:
 4163 181c 482F      		mov r20,r24
 4164               	.LVL383:
 4165               	.LBB120:
 4166               	.LM365:
 4167 181e 8823      		tst r24
 4168 1820 01F4      		brne .L234
 4169               	.LVL384:
 4170               	.L247:
 4171               	.LBE120:
 4172               	.LM366:
 4173 1822 D501      		movw r26,r10
 4174 1824 1E96      		adiw r26,14
 4175 1826 4D91      		ld r20,X+
 4176 1828 5D91      		ld r21,X+
 4177 182a 6D91      		ld r22,X+
 4178 182c 7C91      		ld r23,X
 4179 182e 5197      		sbiw r26,14+3
 4180 1830 8D91      		ld r24,X+
 4181 1832 9C91      		ld r25,X
 4182               	.LVL385:
 4183 1834 0E94 0000 		call move_window
 4184 1838 482F      		mov r20,r24
 4185               	.LVL386:
 4186               	.LBB121:
 4187               	.LM367:
 4188 183a 8823      		tst r24
 4189 183c 01F4      		brne .L234
 4190               	.LVL387:
 4191               	.LM368:
 4192 183e F501      		movw r30,r10
 4193 1840 C289      		ldd r28,Z+18
 4194 1842 D389      		ldd r29,Z+19
 4195               	.LVL388:
 4196               	.LM369:
 4197 1844 8881      		ld r24,Y
 4198               	.LVL389:
 4199 1846 8823      		tst r24
 4200 1848 01F4      		brne .+2
 4201 184a 00C0      		rjmp .L235
 4202               	.LM370:
 4203 184c 8B85      		ldd r24,Y+11
 4204 184e 582F      		mov r21,r24
 4205 1850 83FD      		sbrc r24,3
 4206 1852 00C0      		rjmp .L236
 4207 1854 0489      		ldd r16,Z+20
 4208 1856 1589      		ldd r17,Z+21
 4209 1858 20E0      		ldi r18,lo8(0)
 4210 185a 30E0      		ldi r19,hi8(0)
 4211               	.L237:
 4212               	.LBB116:
 4213               	.LBB117:
 4214               	.LM371:
 4215 185c FE01      		movw r30,r28
 4216 185e E20F      		add r30,r18
 4217 1860 F31F      		adc r31,r19
 4218 1862 D801      		movw r26,r16
 4219 1864 A20F      		add r26,r18
 4220 1866 B31F      		adc r27,r19
 4221 1868 9081      		ld r25,Z
 4222 186a 8C91      		ld r24,X
 4223 186c 9817      		cp r25,r24
 4224 186e 01F4      		brne .L236
 4225               	.LBE117:
 4226               	.LBE116:
 4227               	.LM372:
 4228 1870 2F5F      		subi r18,lo8(-(1))
 4229 1872 3F4F      		sbci r19,hi8(-(1))
 4230               	.LBB119:
 4231               	.LBB118:
 4232               	.LM373:
 4233 1874 2B30      		cpi r18,11
 4234 1876 3105      		cpc r19,__zero_reg__
 4235 1878 01F4      		brne .L237
 4236               	.LBE118:
 4237               	.LBE119:
 4238               	.LBE121:
 4239               	.LBE122:
 4240               	.LM374:
 4241 187a F801      		movw r30,r16
 4242 187c 8385      		ldd r24,Z+11
 4243 187e 82FD      		sbrc r24,2
 4244 1880 00C0      		rjmp .L213
 4245               	.LM375:
 4246 1882 54FF      		sbrs r21,4
 4247 1884 00C0      		rjmp .L241
 4248               	.LM376:
 4249 1886 7D88      		ldd r7,Y+21
 4250 1888 6624      		clr r6
 4251 188a 2C89      		ldd r18,Y+20
 4252 188c 30E0      		ldi r19,lo8(0)
 4253 188e 2629      		or r18,r6
 4254 1890 3729      		or r19,r7
 4255 1892 40E0      		ldi r20,lo8(0)
 4256 1894 50E0      		ldi r21,hi8(0)
 4257               	.LVL390:
 4258 1896 A901      		movw r20,r18
 4259 1898 3327      		clr r19
 4260 189a 2227      		clr r18
 4261 189c 9B8C      		ldd r9,Y+27
 4262 189e 8824      		clr r8
 4263 18a0 8A8D      		ldd r24,Y+26
 4264 18a2 90E0      		ldi r25,lo8(0)
 4265 18a4 8829      		or r24,r8
 4266 18a6 9929      		or r25,r9
 4267 18a8 A0E0      		ldi r26,lo8(0)
 4268 18aa B0E0      		ldi r27,hi8(0)
 4269 18ac 282B      		or r18,r24
 4270 18ae 392B      		or r19,r25
 4271 18b0 4A2B      		or r20,r26
 4272 18b2 5B2B      		or r21,r27
 4273 18b4 F501      		movw r30,r10
 4274 18b6 2683      		std Z+6,r18
 4275 18b8 3783      		std Z+7,r19
 4276 18ba 4087      		std Z+8,r20
 4277 18bc 5187      		std Z+9,r21
 4278 18be 00C0      		rjmp .L212
 4279               	.LVL391:
 4280               	.L215:
 4281               	.LBB123:
 4282               	.LBB103:
 4283               	.LM377:
 4284 18c0 C40E      		add r12,r20
 4285 18c2 D51E      		adc r13,r21
 4286 18c4 44E0      		ldi r20,lo8(4)
 4287               	.LVL392:
 4288               	.LM378:
 4289 18c6 672B      		or r22,r23
 4290 18c8 01F0      		breq .+2
 4291 18ca 00C0      		rjmp .L261
 4292               	.LVL393:
 4293               	.L219:
 4294               	.LBE103:
 4295               	.LBE123:
 4296               	.LM379:
 4297 18cc 46E0      		ldi r20,lo8(6)
 4298               	.LVL394:
 4299 18ce 00C0      		rjmp .L213
 4300               	.LVL395:
 4301               	.L259:
 4302               	.LBB124:
 4303               	.LBB112:
 4304               	.LM380:
 4305 18d0 4860      		ori r20,lo8(8)
 4306 18d2 00C0      		rjmp .L232
 4307               	.LVL396:
 4308               	.L256:
 4309               	.LM381:
 4310 18d4 5C92      		st X,r5
 4311               	.LM382:
 4312 18d6 2897      		sbiw r28,8
 4313 18d8 01F0      		breq .+2
 4314 18da 00C0      		rjmp .L230
 4315               	.L257:
 4316 18dc FF0C      		lsl r15
 4317 18de FF0C      		lsl r15
 4318               	.LM383:
 4319 18e0 2F2D      		mov r18,r15
 4320 18e2 30E0      		ldi r19,lo8(0)
 4321               	.LVL397:
 4322 18e4 C901      		movw r24,r18
 4323 18e6 8370      		andi r24,lo8(3)
 4324 18e8 9070      		andi r25,hi8(3)
 4325 18ea 0197      		sbiw r24,1
 4326 18ec 01F0      		breq .+2
 4327 18ee 00C0      		rjmp .L231
 4328               	.L258:
 4329 18f0 4061      		ori r20,lo8(16)
 4330 18f2 00C0      		rjmp .L231
 4331               	.LVL398:
 4332               	.L235:
 4333               	.LM384:
 4334 18f4 44E0      		ldi r20,lo8(4)
 4335               	.LBE112:
 4336               	.LBE124:
 4337               	.LM385:
 4338 18f6 D501      		movw r26,r10
 4339 18f8 5496      		adiw r26,20
 4340 18fa ED91      		ld r30,X+
 4341 18fc FC91      		ld r31,X
 4342 18fe 5597      		sbiw r26,20+1
 4343 1900 8385      		ldd r24,Z+11
 4344               	.LVL399:
 4345               	.LM386:
 4346 1902 4430      		cpi r20,lo8(4)
 4347 1904 01F0      		breq .+2
 4348 1906 00C0      		rjmp .L213
 4349               	.LVL400:
 4350               	.L260:
 4351               	.LM387:
 4352 1908 82FD      		sbrc r24,2
 4353 190a 00C0      		rjmp .L213
 4354               	.L241:
 4355               	.LM388:
 4356 190c 45E0      		ldi r20,lo8(5)
 4357 190e 00C0      		rjmp .L213
 4358               	.LVL401:
 4359               	.L251:
 4360               	.LM389:
 4361 1910 C501      		movw r24,r10
 4362 1912 60E0      		ldi r22,lo8(0)
 4363 1914 70E0      		ldi r23,hi8(0)
 4364 1916 0E94 0000 		call dir_sdi
 4365 191a 482F      		mov r20,r24
 4366               	.LVL402:
 4367               	.LM390:
 4368 191c D501      		movw r26,r10
 4369 191e 5396      		adiw r26,18+1
 4370 1920 1C92      		st X,__zero_reg__
 4371 1922 1E92      		st -X,__zero_reg__
 4372 1924 5297      		sbiw r26,18
 4373 1926 00C0      		rjmp .L213
 4374               	.LFE20:
 4376               	.global	f_write
 4378               	f_write:
 4379               	.LFB27:
 4380               	.LM391:
 4381               	.LVL403:
 4382 1928 2F92      		push r2
 4383 192a 3F92      		push r3
 4384 192c 4F92      		push r4
 4385 192e 5F92      		push r5
 4386 1930 6F92      		push r6
 4387 1932 7F92      		push r7
 4388 1934 8F92      		push r8
 4389 1936 9F92      		push r9
 4390 1938 AF92      		push r10
 4391 193a BF92      		push r11
 4392 193c CF92      		push r12
 4393 193e DF92      		push r13
 4394 1940 EF92      		push r14
 4395 1942 FF92      		push r15
 4396 1944 0F93      		push r16
 4397 1946 1F93      		push r17
 4398 1948 DF93      		push r29
 4399 194a CF93      		push r28
 4400 194c 00D0      		rcall .
 4401 194e 00D0      		rcall .
 4402 1950 CDB7      		in r28,__SP_L__
 4403 1952 DEB7      		in r29,__SP_H__
 4404               	/* prologue: function */
 4405               	/* frame size = 4 */
 4406 1954 6C01      		movw r12,r24
 4407 1956 162F      		mov r17,r22
 4408 1958 072F      		mov r16,r23
 4409               	.LVL404:
 4410 195a 2A01      		movw r4,r20
 4411 195c 3A83      		std Y+2,r19
 4412 195e 2983      		std Y+1,r18
 4413               	.LM392:
 4414 1960 D901      		movw r26,r18
 4415 1962 1D92      		st X+,__zero_reg__
 4416 1964 1C92      		st X,__zero_reg__
 4417               	.LM393:
 4418 1966 FC01      		movw r30,r24
 4419 1968 6281      		ldd r22,Z+2
 4420 196a 7381      		ldd r23,Z+3
 4421               	.LVL405:
 4422 196c 8081      		ld r24,Z
 4423 196e 9181      		ldd r25,Z+1
 4424               	.LVL406:
 4425 1970 0E94 0000 		call validate
 4426               	.LVL407:
 4427 1974 682E      		mov r6,r24
 4428               	.LVL408:
 4429               	.LM394:
 4430 1976 8823      		tst r24
 4431 1978 01F0      		breq .+2
 4432 197a 00C0      		rjmp .L263
 4433               	.LVL409:
 4434               	.LM395:
 4435 197c D601      		movw r26,r12
 4436 197e 1496      		adiw r26,4
 4437 1980 6C91      		ld r22,X
 4438 1982 67FD      		sbrc r22,7
 4439 1984 00C0      		rjmp .L302
 4440               	.LM396:
 4441 1986 61FF      		sbrs r22,1
 4442 1988 00C0      		rjmp .L304
 4443               	.LM397:
 4444 198a F601      		movw r30,r12
 4445 198c 2285      		ldd r18,Z+10
 4446 198e 3385      		ldd r19,Z+11
 4447 1990 4485      		ldd r20,Z+12
 4448 1992 5585      		ldd r21,Z+13
 4449 1994 C201      		movw r24,r4
 4450               	.LVL410:
 4451 1996 A0E0      		ldi r26,lo8(0)
 4452 1998 B0E0      		ldi r27,hi8(0)
 4453               	.LVL411:
 4454 199a 820F      		add r24,r18
 4455 199c 931F      		adc r25,r19
 4456 199e A41F      		adc r26,r20
 4457 19a0 B51F      		adc r27,r21
 4458               	.LVL412:
 4459 19a2 8217      		cp r24,r18
 4460 19a4 9307      		cpc r25,r19
 4461 19a6 A407      		cpc r26,r20
 4462 19a8 B507      		cpc r27,r21
 4463 19aa 00F4      		brsh .+2
 4464 19ac 00C0      		rjmp .L305
 4465               	.LM398:
 4466 19ae 4114      		cp r4,__zero_reg__
 4467 19b0 5104      		cpc r5,__zero_reg__
 4468 19b2 01F4      		brne .+2
 4469 19b4 00C0      		rjmp .L306
 4470               	.LVL413:
 4471               	.LM399:
 4472 19b6 812F      		mov r24,r17
 4473               	.LVL414:
 4474 19b8 902F      		mov r25,r16
 4475               	.LVL415:
 4476 19ba 9C01      		movw r18,r24
 4477               	.LVL416:
 4478 19bc 1901      		movw r2,r18
 4479               	.LVL417:
 4480 19be D601      		movw r26,r12
 4481               	.LVL418:
 4482 19c0 1696      		adiw r26,6
 4483 19c2 ED90      		ld r14,X+
 4484 19c4 FD90      		ld r15,X+
 4485 19c6 0D91      		ld r16,X+
 4486 19c8 1C91      		ld r17,X
 4487 19ca 1997      		sbiw r26,6+3
 4488               	.LVL419:
 4489               	.L291:
 4490               	.LM400:
 4491 19cc D801      		movw r26,r16
 4492 19ce C701      		movw r24,r14
 4493 19d0 9170      		andi r25,hi8(511)
 4494 19d2 A070      		andi r26,hlo8(511)
 4495 19d4 B070      		andi r27,hhi8(511)
 4496 19d6 0097      		sbiw r24,0
 4497 19d8 A105      		cpc r26,__zero_reg__
 4498 19da B105      		cpc r27,__zero_reg__
 4499 19dc 01F4      		brne .+2
 4500 19de 00C0      		rjmp .L301
 4501 19e0 F601      		movw r30,r12
 4502 19e2 0190      		ld __tmp_reg__,Z+
 4503 19e4 F081      		ld r31,Z
 4504 19e6 E02D      		mov r30,__tmp_reg__
 4505 19e8 FC83      		std Y+4,r31
 4506 19ea EB83      		std Y+3,r30
 4507               	.L267:
 4508               	.LM401:
 4509 19ec F601      		movw r30,r12
 4510 19ee 4689      		ldd r20,Z+22
 4511 19f0 5789      		ldd r21,Z+23
 4512 19f2 608D      		ldd r22,Z+24
 4513 19f4 718D      		ldd r23,Z+25
 4514               	.LVL420:
 4515 19f6 8B81      		ldd r24,Y+3
 4516 19f8 9C81      		ldd r25,Y+4
 4517 19fa 0E94 0000 		call move_window
 4518               	.LVL421:
 4519 19fe 8823      		tst r24
 4520 1a00 01F0      		breq .+2
 4521 1a02 00C0      		rjmp .L303
 4522               	.LM402:
 4523 1a04 C701      		movw r24,r14
 4524 1a06 9170      		andi r25,hi8(511)
 4525 1a08 40E0      		ldi r20,lo8(512)
 4526 1a0a 52E0      		ldi r21,hi8(512)
 4527               	.LVL422:
 4528 1a0c 481B      		sub r20,r24
 4529 1a0e 590B      		sbc r21,r25
 4530 1a10 4416      		cp r4,r20
 4531 1a12 5506      		cpc r5,r21
 4532 1a14 00F4      		brsh .L287
 4533 1a16 A201      		movw r20,r4
 4534               	.L287:
 4535               	.LM403:
 4536 1a18 F601      		movw r30,r12
 4537 1a1a 2081      		ld r18,Z
 4538 1a1c 3181      		ldd r19,Z+1
 4539 1a1e 8681      		ldd r24,Z+6
 4540 1a20 9781      		ldd r25,Z+7
 4541 1a22 A085      		ldd r26,Z+8
 4542 1a24 B185      		ldd r27,Z+9
 4543               	.LBB125:
 4544               	.LBB126:
 4545               	.LM404:
 4546 1a26 4115      		cp r20,__zero_reg__
 4547 1a28 5105      		cpc r21,__zero_reg__
 4548 1a2a 01F0      		breq .L288
 4549               	.LM405:
 4550 1a2c FC01      		movw r30,r24
 4551               	.LVL423:
 4552 1a2e F170      		andi r31,hi8(511)
 4553 1a30 BE96      		adiw r30,46
 4554 1a32 E20F      		add r30,r18
 4555 1a34 F31F      		adc r31,r19
 4556 1a36 D101      		movw r26,r2
 4557 1a38 9A01      		movw r18,r20
 4558               	.LVL424:
 4559               	.L289:
 4560               	.LM406:
 4561 1a3a 8D91      		ld r24,X+
 4562 1a3c 8193      		st Z+,r24
 4563 1a3e 2150      		subi r18,lo8(-(-1))
 4564 1a40 3040      		sbci r19,hi8(-(-1))
 4565               	.LM407:
 4566 1a42 01F4      		brne .L289
 4567 1a44 D601      		movw r26,r12
 4568               	.LVL425:
 4569 1a46 2D91      		ld r18,X+
 4570 1a48 3C91      		ld r19,X
 4571               	.LVL426:
 4572               	.L288:
 4573               	.LBE126:
 4574               	.LBE125:
 4575               	.LM408:
 4576 1a4a 81E0      		ldi r24,lo8(1)
 4577 1a4c F901      		movw r30,r18
 4578               	.LVL427:
 4579 1a4e 8483      		std Z+4,r24
 4580               	.LVL428:
 4581               	.L283:
 4582               	.LM409:
 4583 1a50 CA01      		movw r24,r20
 4584 1a52 A0E0      		ldi r26,lo8(0)
 4585 1a54 B0E0      		ldi r27,hi8(0)
 4586               	.LVL429:
 4587 1a56 F601      		movw r30,r12
 4588 1a58 E680      		ldd r14,Z+6
 4589 1a5a F780      		ldd r15,Z+7
 4590 1a5c 0085      		ldd r16,Z+8
 4591 1a5e 1185      		ldd r17,Z+9
 4592               	.LVL430:
 4593 1a60 E80E      		add r14,r24
 4594 1a62 F91E      		adc r15,r25
 4595 1a64 0A1F      		adc r16,r26
 4596 1a66 1B1F      		adc r17,r27
 4597 1a68 D601      		movw r26,r12
 4598               	.LVL431:
 4599 1a6a 1696      		adiw r26,6
 4600 1a6c ED92      		st X+,r14
 4601 1a6e FD92      		st X+,r15
 4602 1a70 0D93      		st X+,r16
 4603 1a72 1C93      		st X,r17
 4604 1a74 1997      		sbiw r26,6+3
 4605 1a76 E981      		ldd r30,Y+1
 4606 1a78 FA81      		ldd r31,Y+2
 4607 1a7a 8081      		ld r24,Z
 4608 1a7c 9181      		ldd r25,Z+1
 4609 1a7e 840F      		add r24,r20
 4610 1a80 951F      		adc r25,r21
 4611 1a82 9183      		std Z+1,r25
 4612 1a84 8083      		st Z,r24
 4613 1a86 441A      		sub r4,r20
 4614 1a88 550A      		sbc r5,r21
 4615               	.LM410:
 4616 1a8a 01F4      		brne .+2
 4617 1a8c 00C0      		rjmp .L290
 4618               	.LM411:
 4619 1a8e 240E      		add r2,r20
 4620 1a90 351E      		adc r3,r21
 4621 1a92 00C0      		rjmp .L291
 4622               	.LVL432:
 4623               	.L301:
 4624               	.LM412:
 4625 1a94 D601      		movw r26,r12
 4626 1a96 0D90      		ld __tmp_reg__,X+
 4627 1a98 BC91      		ld r27,X
 4628 1a9a A02D      		mov r26,__tmp_reg__
 4629 1a9c BC83      		std Y+4,r27
 4630 1a9e AB83      		std Y+3,r26
 4631 1aa0 D801      		movw r26,r16
 4632 1aa2 C701      		movw r24,r14
 4633 1aa4 29E0      		ldi r18,9
 4634 1aa6 B695      	1:	lsr r27
 4635 1aa8 A795      		ror r26
 4636 1aaa 9795      		ror r25
 4637 1aac 8795      		ror r24
 4638 1aae 2A95      		dec r18
 4639 1ab0 01F4      		brne 1b
 4640 1ab2 EB81      		ldd r30,Y+3
 4641 1ab4 FC81      		ldd r31,Y+4
 4642 1ab6 7280      		ldd r7,Z+2
 4643 1ab8 7A94      		dec r7
 4644 1aba 7822      		and r7,r24
 4645               	.LM413:
 4646 1abc 01F4      		brne .L268
 4647               	.LM414:
 4648 1abe E114      		cp r14,__zero_reg__
 4649 1ac0 F104      		cpc r15,__zero_reg__
 4650 1ac2 0105      		cpc r16,__zero_reg__
 4651 1ac4 1105      		cpc r17,__zero_reg__
 4652 1ac6 01F0      		breq .+2
 4653 1ac8 00C0      		rjmp .L269
 4654               	.LM415:
 4655 1aca D601      		movw r26,r12
 4656 1acc 1E96      		adiw r26,14
 4657 1ace 6D91      		ld r22,X+
 4658 1ad0 7D91      		ld r23,X+
 4659 1ad2 8D91      		ld r24,X+
 4660 1ad4 9C91      		ld r25,X
 4661 1ad6 5197      		sbiw r26,14+3
 4662               	.LVL433:
 4663               	.LM416:
 4664 1ad8 6115      		cp r22,__zero_reg__
 4665 1ada 7105      		cpc r23,__zero_reg__
 4666 1adc 8105      		cpc r24,__zero_reg__
 4667 1ade 9105      		cpc r25,__zero_reg__
 4668 1ae0 01F4      		brne .+2
 4669 1ae2 00C0      		rjmp .L307
 4670               	.L270:
 4671               	.LM417:
 4672 1ae4 6130      		cpi r22,lo8(1)
 4673 1ae6 7105      		cpc r23,__zero_reg__
 4674 1ae8 8105      		cpc r24,__zero_reg__
 4675 1aea 9105      		cpc r25,__zero_reg__
 4676 1aec 01F4      		brne .+2
 4677 1aee 00C0      		rjmp .L308
 4678               	.LM418:
 4679 1af0 6F3F      		cpi r22,lo8(-1)
 4680 1af2 BFEF      		ldi r27,hi8(-1)
 4681 1af4 7B07      		cpc r23,r27
 4682 1af6 BFEF      		ldi r27,hlo8(-1)
 4683 1af8 8B07      		cpc r24,r27
 4684 1afa BFEF      		ldi r27,hhi8(-1)
 4685 1afc 9B07      		cpc r25,r27
 4686 1afe 01F4      		brne .+2
 4687 1b00 00C0      		rjmp .L275
 4688               	.LM419:
 4689 1b02 D601      		movw r26,r12
 4690 1b04 5296      		adiw r26,18
 4691 1b06 6D93      		st X+,r22
 4692 1b08 7D93      		st X+,r23
 4693 1b0a 8D93      		st X+,r24
 4694 1b0c 9C93      		st X,r25
 4695 1b0e 5597      		sbiw r26,18+3
 4696 1b10 ED91      		ld r30,X+
 4697 1b12 FC91      		ld r31,X
 4698 1b14 FC83      		std Y+4,r31
 4699 1b16 EB83      		std Y+3,r30
 4700               	.L268:
 4701               	.LM420:
 4702 1b18 AB81      		ldd r26,Y+3
 4703 1b1a BC81      		ldd r27,Y+4
 4704 1b1c 9A96      		adiw r26,42
 4705 1b1e 2D91      		ld r18,X+
 4706 1b20 3D91      		ld r19,X+
 4707 1b22 4D91      		ld r20,X+
 4708 1b24 5C91      		ld r21,X
 4709 1b26 9D97      		sbiw r26,42+3
 4710 1b28 F601      		movw r30,r12
 4711 1b2a 8689      		ldd r24,Z+22
 4712 1b2c 9789      		ldd r25,Z+23
 4713 1b2e A08D      		ldd r26,Z+24
 4714 1b30 B18D      		ldd r27,Z+25
 4715 1b32 2817      		cp r18,r24
 4716 1b34 3907      		cpc r19,r25
 4717 1b36 4A07      		cpc r20,r26
 4718 1b38 5B07      		cpc r21,r27
 4719 1b3a 01F4      		brne .+2
 4720 1b3c 00C0      		rjmp .L309
 4721               	.L274:
 4722               	.LBB127:
 4723               	.LBB128:
 4724               	.LM421:
 4725 1b3e D601      		movw r26,r12
 4726 1b40 5296      		adiw r26,18
 4727 1b42 2D91      		ld r18,X+
 4728 1b44 3D91      		ld r19,X+
 4729 1b46 4D91      		ld r20,X+
 4730 1b48 5C91      		ld r21,X
 4731 1b4a 5597      		sbiw r26,18+3
 4732               	.LVL434:
 4733 1b4c 2250      		subi r18,lo8(-(-2))
 4734 1b4e 3040      		sbci r19,hi8(-(-2))
 4735 1b50 4040      		sbci r20,hlo8(-(-2))
 4736 1b52 5040      		sbci r21,hhi8(-(-2))
 4737               	.LM422:
 4738 1b54 EB81      		ldd r30,Y+3
 4739 1b56 FC81      		ldd r31,Y+4
 4740 1b58 8689      		ldd r24,Z+22
 4741 1b5a 9789      		ldd r25,Z+23
 4742 1b5c A08D      		ldd r26,Z+24
 4743 1b5e B18D      		ldd r27,Z+25
 4744 1b60 0297      		sbiw r24,2
 4745 1b62 A109      		sbc r26,__zero_reg__
 4746 1b64 B109      		sbc r27,__zero_reg__
 4747 1b66 2817      		cp r18,r24
 4748 1b68 3907      		cpc r19,r25
 4749 1b6a 4A07      		cpc r20,r26
 4750 1b6c 5B07      		cpc r21,r27
 4751 1b6e 00F0      		brlo .L310
 4752               	.LVL435:
 4753               	.L276:
 4754               	.LBE128:
 4755               	.LBE127:
 4756               	.LM423:
 4757 1b70 D601      		movw r26,r12
 4758 1b72 1496      		adiw r26,4
 4759 1b74 8C91      		ld r24,X
 4760 1b76 1497      		sbiw r26,4
 4761 1b78 8068      		ori r24,lo8(-128)
 4762 1b7a 1496      		adiw r26,4
 4763 1b7c 8C93      		st X,r24
 4764 1b7e F2E0      		ldi r31,lo8(2)
 4765 1b80 6F2E      		mov r6,r31
 4766               	.LVL436:
 4767               	.L263:
 4768               	.LM424:
 4769 1b82 862D      		mov r24,r6
 4770               	/* epilogue start */
 4771 1b84 0F90      		pop __tmp_reg__
 4772 1b86 0F90      		pop __tmp_reg__
 4773 1b88 0F90      		pop __tmp_reg__
 4774 1b8a 0F90      		pop __tmp_reg__
 4775 1b8c CF91      		pop r28
 4776 1b8e DF91      		pop r29
 4777 1b90 1F91      		pop r17
 4778               	.LVL437:
 4779 1b92 0F91      		pop r16
 4780               	.LVL438:
 4781 1b94 FF90      		pop r15
 4782 1b96 EF90      		pop r14
 4783               	.LVL439:
 4784 1b98 DF90      		pop r13
 4785 1b9a CF90      		pop r12
 4786               	.LVL440:
 4787 1b9c BF90      		pop r11
 4788 1b9e AF90      		pop r10
 4789 1ba0 9F90      		pop r9
 4790 1ba2 8F90      		pop r8
 4791               	.LVL441:
 4792 1ba4 7F90      		pop r7
 4793               	.LVL442:
 4794 1ba6 6F90      		pop r6
 4795               	.LVL443:
 4796 1ba8 5F90      		pop r5
 4797 1baa 4F90      		pop r4
 4798               	.LVL444:
 4799 1bac 3F90      		pop r3
 4800 1bae 2F90      		pop r2
 4801               	.LVL445:
 4802 1bb0 0895      		ret
 4803               	.LVL446:
 4804               	.L304:
 4805               	.LM425:
 4806 1bb2 37E0      		ldi r19,lo8(7)
 4807 1bb4 632E      		mov r6,r19
 4808               	.LVL447:
 4809 1bb6 00C0      		rjmp .L263
 4810               	.LVL448:
 4811               	.L305:
 4812 1bb8 D601      		movw r26,r12
 4813               	.LVL449:
 4814 1bba 1696      		adiw r26,6
 4815 1bbc ED90      		ld r14,X+
 4816 1bbe FD90      		ld r15,X+
 4817 1bc0 0D91      		ld r16,X+
 4818 1bc2 1C91      		ld r17,X
 4819 1bc4 1997      		sbiw r26,6+3
 4820               	.LVL450:
 4821               	.L266:
 4822               	.LM426:
 4823 1bc6 2E15      		cp r18,r14
 4824 1bc8 3F05      		cpc r19,r15
 4825 1bca 4007      		cpc r20,r16
 4826 1bcc 5107      		cpc r21,r17
 4827 1bce 00F4      		brsh .L292
 4828 1bd0 F601      		movw r30,r12
 4829 1bd2 E286      		std Z+10,r14
 4830 1bd4 F386      		std Z+11,r15
 4831 1bd6 0487      		std Z+12,r16
 4832 1bd8 1587      		std Z+13,r17
 4833               	.L292:
 4834               	.LM427:
 4835 1bda 6062      		ori r22,lo8(32)
 4836 1bdc D601      		movw r26,r12
 4837               	.LVL451:
 4838 1bde 1496      		adiw r26,4
 4839 1be0 6C93      		st X,r22
 4840 1be2 00C0      		rjmp .L263
 4841               	.LVL452:
 4842               	.L310:
 4843               	.LBB130:
 4844               	.LBB129:
 4845               	.LM428:
 4846 1be4 1281      		ldd r17,Z+2
 4847               	.LVL453:
 4848 1be6 612F      		mov r22,r17
 4849               	.LVL454:
 4850 1be8 70E0      		ldi r23,lo8(0)
 4851 1bea 80E0      		ldi r24,lo8(0)
 4852 1bec 90E0      		ldi r25,hi8(0)
 4853 1bee 0E94 0000 		call __mulsi3
 4854               	.LVL455:
 4855 1bf2 9B01      		movw r18,r22
 4856 1bf4 AC01      		movw r20,r24
 4857               	.LVL456:
 4858 1bf6 EB81      		ldd r30,Y+3
 4859 1bf8 FC81      		ldd r31,Y+4
 4860 1bfa 86A1      		ldd r24,Z+38
 4861 1bfc 97A1      		ldd r25,Z+39
 4862 1bfe A0A5      		ldd r26,Z+40
 4863 1c00 B1A5      		ldd r27,Z+41
 4864 1c02 280F      		add r18,r24
 4865 1c04 391F      		adc r19,r25
 4866 1c06 4A1F      		adc r20,r26
 4867 1c08 5B1F      		adc r21,r27
 4868               	.LBE129:
 4869               	.LBE130:
 4870               	.LM429:
 4871 1c0a 2115      		cp r18,__zero_reg__
 4872 1c0c 3105      		cpc r19,__zero_reg__
 4873 1c0e 4105      		cpc r20,__zero_reg__
 4874 1c10 5105      		cpc r21,__zero_reg__
 4875 1c12 01F4      		brne .+2
 4876 1c14 00C0      		rjmp .L276
 4877               	.LM430:
 4878 1c16 4901      		movw r8,r18
 4879 1c18 5A01      		movw r10,r20
 4880 1c1a 870C      		add r8,r7
 4881 1c1c 911C      		adc r9,__zero_reg__
 4882 1c1e A11C      		adc r10,__zero_reg__
 4883 1c20 B11C      		adc r11,__zero_reg__
 4884               	.LVL457:
 4885               	.LM431:
 4886 1c22 7201      		movw r14,r4
 4887               	.LVL458:
 4888 1c24 EF2C      		mov r14,r15
 4889 1c26 FF24      		clr r15
 4890 1c28 E694      		lsr r14
 4891               	.LM432:
 4892 1c2a E114      		cp r14,__zero_reg__
 4893 1c2c F104      		cpc r15,__zero_reg__
 4894 1c2e 01F4      		brne .+2
 4895 1c30 00C0      		rjmp .L278
 4896               	.LM433:
 4897 1c32 272D      		mov r18,r7
 4898 1c34 30E0      		ldi r19,lo8(0)
 4899               	.LVL459:
 4900 1c36 C701      		movw r24,r14
 4901 1c38 820F      		add r24,r18
 4902 1c3a 931F      		adc r25,r19
 4903 1c3c 612F      		mov r22,r17
 4904 1c3e 70E0      		ldi r23,lo8(0)
 4905 1c40 6817      		cp r22,r24
 4906 1c42 7907      		cpc r23,r25
 4907 1c44 00F4      		brsh .L279
 4908               	.LVL460:
 4909               	.LM434:
 4910 1c46 7B01      		movw r14,r22
 4911 1c48 E21A      		sub r14,r18
 4912 1c4a F30A      		sbc r15,r19
 4913               	.L279:
 4914               	.LM435:
 4915 1c4c EB81      		ldd r30,Y+3
 4916 1c4e FC81      		ldd r31,Y+4
 4917 1c50 8181      		ldd r24,Z+1
 4918 1c52 B101      		movw r22,r2
 4919 1c54 A501      		movw r20,r10
 4920 1c56 9401      		movw r18,r8
 4921               	.LVL461:
 4922 1c58 0E2D      		mov r16,r14
 4923               	.LVL462:
 4924 1c5a 0E94 0000 		call disk_write
 4925               	.LVL463:
 4926 1c5e 8823      		tst r24
 4927 1c60 01F0      		breq .+2
 4928 1c62 00C0      		rjmp .L303
 4929               	.LM436:
 4930 1c64 F601      		movw r30,r12
 4931 1c66 0190      		ld __tmp_reg__,Z+
 4932 1c68 F081      		ld r31,Z
 4933 1c6a E02D      		mov r30,__tmp_reg__
 4934 1c6c FC83      		std Y+4,r31
 4935 1c6e EB83      		std Y+3,r30
 4936 1c70 22A5      		ldd r18,Z+42
 4937 1c72 33A5      		ldd r19,Z+43
 4938 1c74 44A5      		ldd r20,Z+44
 4939 1c76 55A5      		ldd r21,Z+45
 4940 1c78 2819      		sub r18,r8
 4941 1c7a 3909      		sbc r19,r9
 4942 1c7c 4A09      		sbc r20,r10
 4943 1c7e 5B09      		sbc r21,r11
 4944 1c80 C701      		movw r24,r14
 4945 1c82 A0E0      		ldi r26,lo8(0)
 4946 1c84 B0E0      		ldi r27,hi8(0)
 4947               	.LVL464:
 4948 1c86 2817      		cp r18,r24
 4949 1c88 3907      		cpc r19,r25
 4950 1c8a 4A07      		cpc r20,r26
 4951 1c8c 5B07      		cpc r21,r27
 4952 1c8e 00F4      		brsh .L281
 4953               	.LVL465:
 4954               	.LBB131:
 4955               	.LBB132:
 4956               	.LM437:
 4957 1c90 DF01      		movw r26,r30
 4958               	.LVL466:
 4959 1c92 9E96      		adiw r26,46
 4960               	.LM438:
 4961 1c94 79E0      		ldi r23,9
 4962 1c96 220F      	1:	lsl r18
 4963 1c98 331F      		rol r19
 4964 1c9a 441F      		rol r20
 4965 1c9c 551F      		rol r21
 4966 1c9e 7A95      		dec r23
 4967 1ca0 01F4      		brne 1b
 4968 1ca2 F101      		movw r30,r2
 4969               	.LVL467:
 4970 1ca4 E20F      		add r30,r18
 4971 1ca6 F31F      		adc r31,r19
 4972 1ca8 9F01      		movw r18,r30
 4973 1caa 2050      		subi r18,lo8(-(512))
 4974 1cac 3E4F      		sbci r19,hi8(-(512))
 4975               	.L282:
 4976               	.LM439:
 4977 1cae 8191      		ld r24,Z+
 4978               	.LVL468:
 4979 1cb0 8D93      		st X+,r24
 4980               	.LM440:
 4981 1cb2 E217      		cp r30,r18
 4982 1cb4 F307      		cpc r31,r19
 4983 1cb6 01F4      		brne .L282
 4984               	.LBE132:
 4985               	.LBE131:
 4986               	.LM441:
 4987 1cb8 D601      		movw r26,r12
 4988               	.LVL469:
 4989 1cba ED91      		ld r30,X+
 4990 1cbc FC91      		ld r31,X
 4991               	.LVL470:
 4992 1cbe 1482      		std Z+4,__zero_reg__
 4993               	.LVL471:
 4994               	.L281:
 4995               	.LM442:
 4996 1cc0 A701      		movw r20,r14
 4997               	.LVL472:
 4998 1cc2 542F      		mov r21,r20
 4999 1cc4 4427      		clr r20
 5000 1cc6 550F      		lsl r21
 5001 1cc8 00C0      		rjmp .L283
 5002               	.LVL473:
 5003               	.L278:
 5004               	.LM443:
 5005 1cca F601      		movw r30,r12
 5006 1ccc E680      		ldd r14,Z+6
 5007 1cce F780      		ldd r15,Z+7
 5008 1cd0 0085      		ldd r16,Z+8
 5009 1cd2 1185      		ldd r17,Z+9
 5010               	.LVL474:
 5011 1cd4 8285      		ldd r24,Z+10
 5012 1cd6 9385      		ldd r25,Z+11
 5013 1cd8 A485      		ldd r26,Z+12
 5014 1cda B585      		ldd r27,Z+13
 5015 1cdc E816      		cp r14,r24
 5016 1cde F906      		cpc r15,r25
 5017 1ce0 0A07      		cpc r16,r26
 5018 1ce2 1B07      		cpc r17,r27
 5019 1ce4 00F4      		brsh .L311
 5020               	.L284:
 5021               	.LM444:
 5022 1ce6 D601      		movw r26,r12
 5023 1ce8 5696      		adiw r26,22
 5024 1cea 8D92      		st X+,r8
 5025 1cec 9D92      		st X+,r9
 5026 1cee AD92      		st X+,r10
 5027 1cf0 BC92      		st X,r11
 5028 1cf2 5997      		sbiw r26,22+3
 5029 1cf4 00C0      		rjmp .L267
 5030               	.LVL475:
 5031               	.L309:
 5032               	.LM445:
 5033 1cf6 8B81      		ldd r24,Y+3
 5034 1cf8 9C81      		ldd r25,Y+4
 5035 1cfa 40E0      		ldi r20,lo8(0)
 5036 1cfc 50E0      		ldi r21,hi8(0)
 5037 1cfe 60E0      		ldi r22,hlo8(0)
 5038 1d00 70E0      		ldi r23,hhi8(0)
 5039               	.LVL476:
 5040 1d02 0E94 0000 		call move_window
 5041               	.LVL477:
 5042 1d06 8823      		tst r24
 5043 1d08 01F0      		breq .+2
 5044 1d0a 00C0      		rjmp .L275
 5045 1d0c D601      		movw r26,r12
 5046 1d0e 0D90      		ld __tmp_reg__,X+
 5047 1d10 BC91      		ld r27,X
 5048 1d12 A02D      		mov r26,__tmp_reg__
 5049 1d14 BC83      		std Y+4,r27
 5050 1d16 AB83      		std Y+3,r26
 5051 1d18 00C0      		rjmp .L274
 5052               	.LVL478:
 5053               	.L269:
 5054               	.LM446:
 5055 1d1a D601      		movw r26,r12
 5056 1d1c 5296      		adiw r26,18
 5057 1d1e 4D91      		ld r20,X+
 5058 1d20 5D91      		ld r21,X+
 5059 1d22 6D91      		ld r22,X+
 5060 1d24 7C91      		ld r23,X
 5061 1d26 5597      		sbiw r26,18+3
 5062               	.LVL479:
 5063 1d28 8B81      		ldd r24,Y+3
 5064 1d2a 9C81      		ldd r25,Y+4
 5065 1d2c 0E94 0000 		call create_chain
 5066               	.LVL480:
 5067               	.L271:
 5068               	.LM447:
 5069 1d30 6115      		cp r22,__zero_reg__
 5070 1d32 7105      		cpc r23,__zero_reg__
 5071 1d34 8105      		cpc r24,__zero_reg__
 5072 1d36 9105      		cpc r25,__zero_reg__
 5073 1d38 01F0      		breq .+2
 5074 1d3a 00C0      		rjmp .L270
 5075 1d3c F601      		movw r30,r12
 5076 1d3e 2285      		ldd r18,Z+10
 5077 1d40 3385      		ldd r19,Z+11
 5078 1d42 4485      		ldd r20,Z+12
 5079 1d44 5585      		ldd r21,Z+13
 5080 1d46 6481      		ldd r22,Z+4
 5081               	.LVL481:
 5082 1d48 E680      		ldd r14,Z+6
 5083 1d4a F780      		ldd r15,Z+7
 5084 1d4c 0085      		ldd r16,Z+8
 5085 1d4e 1185      		ldd r17,Z+9
 5086 1d50 00C0      		rjmp .L266
 5087               	.LVL482:
 5088               	.L311:
 5089               	.LM448:
 5090 1d52 8B81      		ldd r24,Y+3
 5091 1d54 9C81      		ldd r25,Y+4
 5092 1d56 40E0      		ldi r20,lo8(0)
 5093 1d58 50E0      		ldi r21,hi8(0)
 5094 1d5a 60E0      		ldi r22,hlo8(0)
 5095 1d5c 70E0      		ldi r23,hhi8(0)
 5096               	.LVL483:
 5097 1d5e 0E94 0000 		call move_window
 5098               	.LVL484:
 5099 1d62 8823      		tst r24
 5100 1d64 01F4      		brne .L303
 5101               	.LM449:
 5102 1d66 F601      		movw r30,r12
 5103 1d68 0190      		ld __tmp_reg__,Z+
 5104 1d6a F081      		ld r31,Z
 5105 1d6c E02D      		mov r30,__tmp_reg__
 5106 1d6e FC83      		std Y+4,r31
 5107 1d70 EB83      		std Y+3,r30
 5108 1d72 82A6      		std Z+42,r8
 5109 1d74 93A6      		std Z+43,r9
 5110 1d76 A4A6      		std Z+44,r10
 5111 1d78 B5A6      		std Z+45,r11
 5112 1d7a F601      		movw r30,r12
 5113 1d7c E680      		ldd r14,Z+6
 5114 1d7e F780      		ldd r15,Z+7
 5115 1d80 0085      		ldd r16,Z+8
 5116 1d82 1185      		ldd r17,Z+9
 5117 1d84 00C0      		rjmp .L284
 5118               	.LVL485:
 5119               	.L307:
 5120               	.LM450:
 5121 1d86 CF01      		movw r24,r30
 5122 1d88 40E0      		ldi r20,lo8(0)
 5123 1d8a 50E0      		ldi r21,hi8(0)
 5124 1d8c 60E0      		ldi r22,hlo8(0)
 5125 1d8e 70E0      		ldi r23,hhi8(0)
 5126               	.LVL486:
 5127 1d90 0E94 0000 		call create_chain
 5128               	.LVL487:
 5129 1d94 F601      		movw r30,r12
 5130 1d96 6687      		std Z+14,r22
 5131 1d98 7787      		std Z+15,r23
 5132 1d9a 808B      		std Z+16,r24
 5133 1d9c 918B      		std Z+17,r25
 5134               	.LVL488:
 5135 1d9e 00C0      		rjmp .L271
 5136               	.LVL489:
 5137               	.L308:
 5138               	.LM451:
 5139 1da0 D601      		movw r26,r12
 5140 1da2 1496      		adiw r26,4
 5141 1da4 8C91      		ld r24,X
 5142 1da6 1497      		sbiw r26,4
 5143 1da8 8068      		ori r24,lo8(-128)
 5144 1daa 1496      		adiw r26,4
 5145 1dac 8C93      		st X,r24
 5146               	.LVL490:
 5147               	.L302:
 5148 1dae A2E0      		ldi r26,lo8(2)
 5149 1db0 6A2E      		mov r6,r26
 5150 1db2 00C0      		rjmp .L263
 5151               	.LVL491:
 5152               	.L303:
 5153               	.LM452:
 5154 1db4 D601      		movw r26,r12
 5155 1db6 1496      		adiw r26,4
 5156 1db8 8C91      		ld r24,X
 5157 1dba 1497      		sbiw r26,4
 5158 1dbc 8068      		ori r24,lo8(-128)
 5159 1dbe 1496      		adiw r26,4
 5160 1dc0 8C93      		st X,r24
 5161 1dc2 6624      		clr r6
 5162 1dc4 6394      		inc r6
 5163 1dc6 00C0      		rjmp .L263
 5164               	.LVL492:
 5165               	.L290:
 5166               	.LM453:
 5167 1dc8 D601      		movw r26,r12
 5168 1dca 1A96      		adiw r26,10
 5169 1dcc 2D91      		ld r18,X+
 5170 1dce 3D91      		ld r19,X+
 5171 1dd0 4D91      		ld r20,X+
 5172 1dd2 5C91      		ld r21,X
 5173 1dd4 1D97      		sbiw r26,10+3
 5174 1dd6 1496      		adiw r26,4
 5175 1dd8 6C91      		ld r22,X
 5176 1dda 00C0      		rjmp .L266
 5177               	.LVL493:
 5178               	.L275:
 5179               	.LM454:
 5180 1ddc F601      		movw r30,r12
 5181 1dde 8481      		ldd r24,Z+4
 5182 1de0 8068      		ori r24,lo8(-128)
 5183 1de2 8483      		std Z+4,r24
 5184 1de4 6624      		clr r6
 5185 1de6 6394      		inc r6
 5186 1de8 00C0      		rjmp .L263
 5187               	.LVL494:
 5188               	.L306:
 5189 1dea F601      		movw r30,r12
 5190 1dec E680      		ldd r14,Z+6
 5191 1dee F780      		ldd r15,Z+7
 5192 1df0 0085      		ldd r16,Z+8
 5193 1df2 1185      		ldd r17,Z+9
 5194 1df4 00C0      		rjmp .L266
 5195               	.LFE27:
 5198               	check_fs:
 5199               	.LFB21:
 5200               	.LM455:
 5201               	.LVL495:
 5202 1df6 0F93      		push r16
 5203 1df8 CF93      		push r28
 5204 1dfa DF93      		push r29
 5205               	/* prologue: function */
 5206               	/* frame size = 0 */
 5207 1dfc EC01      		movw r28,r24
 5208 1dfe 9A01      		movw r18,r20
 5209 1e00 AB01      		movw r20,r22
 5210               	.LM456:
 5211 1e02 BC01      		movw r22,r24
 5212 1e04 625D      		subi r22,lo8(-(46))
 5213 1e06 7F4F      		sbci r23,hi8(-(46))
 5214 1e08 8981      		ldd r24,Y+1
 5215               	.LVL496:
 5216 1e0a 01E0      		ldi r16,lo8(1)
 5217 1e0c 0E94 0000 		call disk_read
 5218               	.LVL497:
 5219 1e10 8823      		tst r24
 5220 1e12 01F0      		breq .+2
 5221 1e14 00C0      		rjmp .L319
 5222               	.LM457:
 5223 1e16 C35D      		subi r28,lo8(-(557))
 5224 1e18 DD4F      		sbci r29,hi8(-(557))
 5225 1e1a 9881      		ld r25,Y
 5226 1e1c 80E0      		ldi r24,lo8(0)
 5227 1e1e 2A91      		ld r18,-Y
 5228 1e20 CC52      		subi r28,lo8(-(-556))
 5229 1e22 D240      		sbci r29,hi8(-(-556))
 5230 1e24 30E0      		ldi r19,lo8(0)
 5231 1e26 822B      		or r24,r18
 5232 1e28 932B      		or r25,r19
 5233 1e2a 8555      		subi r24,lo8(-21931)
 5234 1e2c 9A4A      		sbci r25,hi8(-21931)
 5235 1e2e 01F0      		breq .L315
 5236 1e30 62E0      		ldi r22,lo8(2)
 5237               	.L314:
 5238               	.LM458:
 5239 1e32 862F      		mov r24,r22
 5240               	/* epilogue start */
 5241 1e34 DF91      		pop r29
 5242 1e36 CF91      		pop r28
 5243               	.LVL498:
 5244 1e38 0F91      		pop r16
 5245 1e3a 0895      		ret
 5246               	.LVL499:
 5247               	.L315:
 5248               	.LM459:
 5249 1e3c C959      		subi r28,lo8(-(103))
 5250 1e3e DF4F      		sbci r29,hi8(-(103))
 5251 1e40 2881      		ld r18,Y
 5252 1e42 30E0      		ldi r19,lo8(0)
 5253 1e44 40E0      		ldi r20,lo8(0)
 5254 1e46 50E0      		ldi r21,hi8(0)
 5255 1e48 522F      		mov r21,r18
 5256 1e4a 4427      		clr r20
 5257 1e4c 3327      		clr r19
 5258 1e4e 2227      		clr r18
 5259 1e50 8A91      		ld r24,-Y
 5260 1e52 90E0      		ldi r25,lo8(0)
 5261 1e54 A0E0      		ldi r26,lo8(0)
 5262 1e56 B0E0      		ldi r27,hi8(0)
 5263 1e58 DC01      		movw r26,r24
 5264 1e5a 9927      		clr r25
 5265 1e5c 8827      		clr r24
 5266 1e5e 282B      		or r18,r24
 5267 1e60 392B      		or r19,r25
 5268 1e62 4A2B      		or r20,r26
 5269 1e64 5B2B      		or r21,r27
 5270 1e66 2297      		sbiw r28,2
 5271 1e68 8991      		ld r24,Y+
 5272 1e6a 90E0      		ldi r25,lo8(0)
 5273 1e6c A0E0      		ldi r26,lo8(0)
 5274 1e6e B0E0      		ldi r27,hi8(0)
 5275 1e70 282B      		or r18,r24
 5276 1e72 392B      		or r19,r25
 5277 1e74 4A2B      		or r20,r26
 5278 1e76 5B2B      		or r21,r27
 5279 1e78 9881      		ld r25,Y
 5280 1e7a C556      		subi r28,lo8(-(-101))
 5281 1e7c D040      		sbci r29,hi8(-(-101))
 5282 1e7e 80E0      		ldi r24,lo8(0)
 5283 1e80 A0E0      		ldi r26,lo8(0)
 5284 1e82 B0E0      		ldi r27,hi8(0)
 5285 1e84 282B      		or r18,r24
 5286 1e86 392B      		or r19,r25
 5287 1e88 4A2B      		or r20,r26
 5288 1e8a 5B2B      		or r21,r27
 5289 1e8c 5070      		andi r21,hhi8(16777215)
 5290 1e8e 2654      		subi r18,lo8(5521734)
 5291 1e90 3144      		sbci r19,hi8(5521734)
 5292 1e92 4445      		sbci r20,hlo8(5521734)
 5293 1e94 5040      		sbci r21,hhi8(5521734)
 5294 1e96 01F0      		breq .L320
 5295 1e98 60E0      		ldi r22,lo8(0)
 5296 1e9a CD57      		subi r28,lo8(-(131))
 5297 1e9c DF4F      		sbci r29,hi8(-(131))
 5298 1e9e 2881      		ld r18,Y
 5299 1ea0 30E0      		ldi r19,lo8(0)
 5300 1ea2 40E0      		ldi r20,lo8(0)
 5301 1ea4 50E0      		ldi r21,hi8(0)
 5302 1ea6 522F      		mov r21,r18
 5303 1ea8 4427      		clr r20
 5304 1eaa 3327      		clr r19
 5305 1eac 2227      		clr r18
 5306 1eae 8A91      		ld r24,-Y
 5307 1eb0 90E0      		ldi r25,lo8(0)
 5308 1eb2 A0E0      		ldi r26,lo8(0)
 5309 1eb4 B0E0      		ldi r27,hi8(0)
 5310 1eb6 DC01      		movw r26,r24
 5311 1eb8 9927      		clr r25
 5312 1eba 8827      		clr r24
 5313 1ebc 282B      		or r18,r24
 5314 1ebe 392B      		or r19,r25
 5315 1ec0 4A2B      		or r20,r26
 5316 1ec2 5B2B      		or r21,r27
 5317 1ec4 2297      		sbiw r28,2
 5318 1ec6 8991      		ld r24,Y+
 5319 1ec8 90E0      		ldi r25,lo8(0)
 5320 1eca A0E0      		ldi r26,lo8(0)
 5321 1ecc B0E0      		ldi r27,hi8(0)
 5322 1ece 282B      		or r18,r24
 5323 1ed0 392B      		or r19,r25
 5324 1ed2 4A2B      		or r20,r26
 5325 1ed4 5B2B      		or r21,r27
 5326 1ed6 9881      		ld r25,Y
 5327               	.LVL500:
 5328 1ed8 80E0      		ldi r24,lo8(0)
 5329 1eda A0E0      		ldi r26,lo8(0)
 5330 1edc B0E0      		ldi r27,hi8(0)
 5331 1ede 282B      		or r18,r24
 5332 1ee0 392B      		or r19,r25
 5333 1ee2 4A2B      		or r20,r26
 5334 1ee4 5B2B      		or r21,r27
 5335 1ee6 5070      		andi r21,hhi8(16777215)
 5336 1ee8 2654      		subi r18,lo8(5521734)
 5337 1eea 3144      		sbci r19,hi8(5521734)
 5338 1eec 4445      		sbci r20,hlo8(5521734)
 5339 1eee 5040      		sbci r21,hhi8(5521734)
 5340 1ef0 01F4      		brne .+2
 5341 1ef2 00C0      		rjmp .L314
 5342 1ef4 61E0      		ldi r22,lo8(1)
 5343               	.LM460:
 5344 1ef6 862F      		mov r24,r22
 5345 1ef8 DF91      		pop r29
 5346 1efa CF91      		pop r28
 5347 1efc 0F91      		pop r16
 5348 1efe 0895      		ret
 5349               	.LVL501:
 5350               	.L319:
 5351               	.LM461:
 5352 1f00 63E0      		ldi r22,lo8(3)
 5353               	.LM462:
 5354 1f02 862F      		mov r24,r22
 5355 1f04 DF91      		pop r29
 5356 1f06 CF91      		pop r28
 5357               	.LVL502:
 5358 1f08 0F91      		pop r16
 5359 1f0a 0895      		ret
 5360               	.LVL503:
 5361               	.L320:
 5362               	.LM463:
 5363 1f0c 60E0      		ldi r22,lo8(0)
 5364 1f0e 00C0      		rjmp .L314
 5365               	.LFE21:
 5367               	.global	f_read
 5369               	f_read:
 5370               	.LFB26:
 5371               	.LM464:
 5372               	.LVL504:
 5373 1f10 2F92      		push r2
 5374 1f12 3F92      		push r3
 5375 1f14 4F92      		push r4
 5376 1f16 5F92      		push r5
 5377 1f18 6F92      		push r6
 5378 1f1a 7F92      		push r7
 5379 1f1c 8F92      		push r8
 5380 1f1e 9F92      		push r9
 5381 1f20 AF92      		push r10
 5382 1f22 BF92      		push r11
 5383 1f24 CF92      		push r12
 5384 1f26 DF92      		push r13
 5385 1f28 EF92      		push r14
 5386 1f2a FF92      		push r15
 5387 1f2c 0F93      		push r16
 5388 1f2e 1F93      		push r17
 5389 1f30 DF93      		push r29
 5390 1f32 CF93      		push r28
 5391 1f34 00D0      		rcall .
 5392 1f36 00D0      		rcall .
 5393 1f38 CDB7      		in r28,__SP_L__
 5394 1f3a DEB7      		in r29,__SP_H__
 5395               	/* prologue: function */
 5396               	/* frame size = 4 */
 5397 1f3c 6C01      		movw r12,r24
 5398 1f3e B62E      		mov r11,r22
 5399 1f40 A72E      		mov r10,r23
 5400               	.LVL505:
 5401 1f42 2A01      		movw r4,r20
 5402 1f44 3A83      		std Y+2,r19
 5403 1f46 2983      		std Y+1,r18
 5404               	.LM465:
 5405 1f48 F901      		movw r30,r18
 5406 1f4a 1182      		std Z+1,__zero_reg__
 5407 1f4c 1082      		st Z,__zero_reg__
 5408               	.LM466:
 5409 1f4e FC01      		movw r30,r24
 5410 1f50 6281      		ldd r22,Z+2
 5411 1f52 7381      		ldd r23,Z+3
 5412               	.LVL506:
 5413 1f54 8081      		ld r24,Z
 5414 1f56 9181      		ldd r25,Z+1
 5415               	.LVL507:
 5416 1f58 0E94 0000 		call validate
 5417               	.LVL508:
 5418 1f5c 682E      		mov r6,r24
 5419               	.LVL509:
 5420               	.LM467:
 5421 1f5e 8823      		tst r24
 5422 1f60 01F0      		breq .+2
 5423 1f62 00C0      		rjmp .L322
 5424               	.LVL510:
 5425               	.LM468:
 5426 1f64 F601      		movw r30,r12
 5427 1f66 8481      		ldd r24,Z+4
 5428               	.LVL511:
 5429 1f68 87FD      		sbrc r24,7
 5430 1f6a 00C0      		rjmp .L323
 5431               	.LM469:
 5432 1f6c 80FF      		sbrs r24,0
 5433 1f6e 00C0      		rjmp .L350
 5434               	.LM470:
 5435 1f70 F601      		movw r30,r12
 5436 1f72 E680      		ldd r14,Z+6
 5437 1f74 F780      		ldd r15,Z+7
 5438 1f76 0085      		ldd r16,Z+8
 5439 1f78 1185      		ldd r17,Z+9
 5440 1f7a 2285      		ldd r18,Z+10
 5441 1f7c 3385      		ldd r19,Z+11
 5442 1f7e 4485      		ldd r20,Z+12
 5443 1f80 5585      		ldd r21,Z+13
 5444               	.LVL512:
 5445 1f82 2E19      		sub r18,r14
 5446 1f84 3F09      		sbc r19,r15
 5447 1f86 400B      		sbc r20,r16
 5448 1f88 510B      		sbc r21,r17
 5449               	.LM471:
 5450 1f8a C201      		movw r24,r4
 5451 1f8c A0E0      		ldi r26,lo8(0)
 5452 1f8e B0E0      		ldi r27,hi8(0)
 5453               	.LVL513:
 5454 1f90 2817      		cp r18,r24
 5455 1f92 3907      		cpc r19,r25
 5456 1f94 4A07      		cpc r20,r26
 5457 1f96 5B07      		cpc r21,r27
 5458 1f98 00F4      		brsh .+2
 5459 1f9a 00C0      		rjmp .L351
 5460               	.L325:
 5461               	.LM472:
 5462 1f9c 4114      		cp r4,__zero_reg__
 5463 1f9e 5104      		cpc r5,__zero_reg__
 5464 1fa0 01F4      		brne .+2
 5465 1fa2 00C0      		rjmp .L322
 5466               	.LM473:
 5467 1fa4 8B2D      		mov r24,r11
 5468               	.LVL514:
 5469 1fa6 9A2D      		mov r25,r10
 5470               	.LVL515:
 5471 1fa8 9C01      		movw r18,r24
 5472               	.LVL516:
 5473 1faa 1901      		movw r2,r18
 5474               	.LVL517:
 5475               	.LVL518:
 5476               	.L343:
 5477               	.LM474:
 5478 1fac D801      		movw r26,r16
 5479 1fae C701      		movw r24,r14
 5480 1fb0 9170      		andi r25,hi8(511)
 5481 1fb2 A070      		andi r26,hlo8(511)
 5482 1fb4 B070      		andi r27,hhi8(511)
 5483 1fb6 0097      		sbiw r24,0
 5484 1fb8 A105      		cpc r26,__zero_reg__
 5485 1fba B105      		cpc r27,__zero_reg__
 5486 1fbc 01F4      		brne .+2
 5487 1fbe 00C0      		rjmp .L348
 5488 1fc0 F601      		movw r30,r12
 5489 1fc2 0190      		ld __tmp_reg__,Z+
 5490 1fc4 F081      		ld r31,Z
 5491 1fc6 E02D      		mov r30,__tmp_reg__
 5492 1fc8 FC83      		std Y+4,r31
 5493 1fca EB83      		std Y+3,r30
 5494               	.L326:
 5495               	.LM475:
 5496 1fcc F601      		movw r30,r12
 5497 1fce 4689      		ldd r20,Z+22
 5498 1fd0 5789      		ldd r21,Z+23
 5499 1fd2 608D      		ldd r22,Z+24
 5500 1fd4 718D      		ldd r23,Z+25
 5501 1fd6 8B81      		ldd r24,Y+3
 5502 1fd8 9C81      		ldd r25,Y+4
 5503 1fda 0E94 0000 		call move_window
 5504               	.LVL519:
 5505 1fde 8823      		tst r24
 5506 1fe0 01F0      		breq .+2
 5507 1fe2 00C0      		rjmp .L349
 5508               	.LM476:
 5509 1fe4 C701      		movw r24,r14
 5510 1fe6 9170      		andi r25,hi8(511)
 5511 1fe8 00E0      		ldi r16,lo8(512)
 5512 1fea 12E0      		ldi r17,hi8(512)
 5513 1fec 081B      		sub r16,r24
 5514 1fee 190B      		sbc r17,r25
 5515 1ff0 4016      		cp r4,r16
 5516 1ff2 5106      		cpc r5,r17
 5517 1ff4 00F4      		brsh .L341
 5518 1ff6 8201      		movw r16,r4
 5519               	.L341:
 5520               	.LM477:
 5521 1ff8 F601      		movw r30,r12
 5522 1ffa 0190      		ld __tmp_reg__,Z+
 5523 1ffc F081      		ld r31,Z
 5524 1ffe E02D      		mov r30,__tmp_reg__
 5525 2000 FC83      		std Y+4,r31
 5526 2002 EB83      		std Y+3,r30
 5527 2004 F601      		movw r30,r12
 5528 2006 6681      		ldd r22,Z+6
 5529 2008 7781      		ldd r23,Z+7
 5530 200a 8085      		ldd r24,Z+8
 5531 200c 9185      		ldd r25,Z+9
 5532               	.LBB133:
 5533               	.LBB134:
 5534               	.LM478:
 5535 200e 0115      		cp r16,__zero_reg__
 5536 2010 1105      		cpc r17,__zero_reg__
 5537 2012 01F0      		breq .L339
 5538               	.LM479:
 5539 2014 FB01      		movw r30,r22
 5540               	.LVL520:
 5541 2016 F170      		andi r31,hi8(511)
 5542 2018 BE96      		adiw r30,46
 5543 201a 8B81      		ldd r24,Y+3
 5544 201c 9C81      		ldd r25,Y+4
 5545 201e E80F      		add r30,r24
 5546 2020 F91F      		adc r31,r25
 5547 2022 D101      		movw r26,r2
 5548 2024 9801      		movw r18,r16
 5549               	.LVL521:
 5550               	.L342:
 5551               	.LM480:
 5552 2026 8191      		ld r24,Z+
 5553 2028 8D93      		st X+,r24
 5554 202a 2150      		subi r18,lo8(-(-1))
 5555 202c 3040      		sbci r19,hi8(-(-1))
 5556               	.LM481:
 5557 202e 01F4      		brne .L342
 5558 2030 F601      		movw r30,r12
 5559               	.LVL522:
 5560 2032 6681      		ldd r22,Z+6
 5561 2034 7781      		ldd r23,Z+7
 5562 2036 8085      		ldd r24,Z+8
 5563 2038 9185      		ldd r25,Z+9
 5564               	.LVL523:
 5565               	.L339:
 5566               	.LBE134:
 5567               	.LBE133:
 5568               	.LM482:
 5569 203a 9801      		movw r18,r16
 5570 203c 40E0      		ldi r20,lo8(0)
 5571 203e 50E0      		ldi r21,hi8(0)
 5572 2040 260F      		add r18,r22
 5573 2042 371F      		adc r19,r23
 5574 2044 481F      		adc r20,r24
 5575 2046 591F      		adc r21,r25
 5576 2048 F601      		movw r30,r12
 5577 204a 2683      		std Z+6,r18
 5578 204c 3783      		std Z+7,r19
 5579 204e 4087      		std Z+8,r20
 5580 2050 5187      		std Z+9,r21
 5581 2052 E981      		ldd r30,Y+1
 5582 2054 FA81      		ldd r31,Y+2
 5583 2056 8081      		ld r24,Z
 5584 2058 9181      		ldd r25,Z+1
 5585 205a 800F      		add r24,r16
 5586 205c 911F      		adc r25,r17
 5587 205e 9183      		std Z+1,r25
 5588 2060 8083      		st Z,r24
 5589 2062 401A      		sub r4,r16
 5590 2064 510A      		sbc r5,r17
 5591               	.LM483:
 5592 2066 01F4      		brne .+2
 5593 2068 00C0      		rjmp .L322
 5594               	.LM484:
 5595 206a 200E      		add r2,r16
 5596 206c 311E      		adc r3,r17
 5597 206e 7901      		movw r14,r18
 5598 2070 8A01      		movw r16,r20
 5599               	.LVL524:
 5600 2072 00C0      		rjmp .L343
 5601               	.LVL525:
 5602               	.L348:
 5603               	.LM485:
 5604 2074 F601      		movw r30,r12
 5605 2076 0190      		ld __tmp_reg__,Z+
 5606 2078 F081      		ld r31,Z
 5607 207a E02D      		mov r30,__tmp_reg__
 5608 207c FC83      		std Y+4,r31
 5609 207e EB83      		std Y+3,r30
 5610 2080 D801      		movw r26,r16
 5611 2082 C701      		movw r24,r14
 5612 2084 49E0      		ldi r20,9
 5613 2086 B695      	1:	lsr r27
 5614 2088 A795      		ror r26
 5615 208a 9795      		ror r25
 5616 208c 8795      		ror r24
 5617 208e 4A95      		dec r20
 5618 2090 01F4      		brne 1b
 5619 2092 7280      		ldd r7,Z+2
 5620 2094 7A94      		dec r7
 5621 2096 7822      		and r7,r24
 5622               	.LM486:
 5623 2098 01F4      		brne .L327
 5624               	.LM487:
 5625 209a E114      		cp r14,__zero_reg__
 5626 209c F104      		cpc r15,__zero_reg__
 5627 209e 0105      		cpc r16,__zero_reg__
 5628 20a0 1105      		cpc r17,__zero_reg__
 5629 20a2 01F0      		breq .+2
 5630 20a4 00C0      		rjmp .L328
 5631 20a6 F601      		movw r30,r12
 5632 20a8 6685      		ldd r22,Z+14
 5633 20aa 7785      		ldd r23,Z+15
 5634 20ac 8089      		ldd r24,Z+16
 5635 20ae 9189      		ldd r25,Z+17
 5636               	.LVL526:
 5637               	.L329:
 5638               	.LM488:
 5639 20b0 6230      		cpi r22,lo8(2)
 5640 20b2 7105      		cpc r23,__zero_reg__
 5641 20b4 8105      		cpc r24,__zero_reg__
 5642 20b6 9105      		cpc r25,__zero_reg__
 5643 20b8 00F0      		brlo .L332
 5644               	.LM489:
 5645 20ba 6F3F      		cpi r22,lo8(-1)
 5646 20bc FFEF      		ldi r31,hi8(-1)
 5647 20be 7F07      		cpc r23,r31
 5648 20c0 FFEF      		ldi r31,hlo8(-1)
 5649 20c2 8F07      		cpc r24,r31
 5650 20c4 FFEF      		ldi r31,hhi8(-1)
 5651 20c6 9F07      		cpc r25,r31
 5652 20c8 01F4      		brne .+2
 5653 20ca 00C0      		rjmp .L349
 5654               	.LM490:
 5655 20cc F601      		movw r30,r12
 5656 20ce 628B      		std Z+18,r22
 5657 20d0 738B      		std Z+19,r23
 5658 20d2 848B      		std Z+20,r24
 5659 20d4 958B      		std Z+21,r25
 5660 20d6 8081      		ld r24,Z
 5661 20d8 9181      		ldd r25,Z+1
 5662 20da 9C83      		std Y+4,r25
 5663 20dc 8B83      		std Y+3,r24
 5664               	.L327:
 5665               	.LBB135:
 5666               	.LBB136:
 5667               	.LM491:
 5668 20de F601      		movw r30,r12
 5669 20e0 2289      		ldd r18,Z+18
 5670 20e2 3389      		ldd r19,Z+19
 5671 20e4 4489      		ldd r20,Z+20
 5672 20e6 5589      		ldd r21,Z+21
 5673               	.LVL527:
 5674 20e8 2250      		subi r18,lo8(-(-2))
 5675 20ea 3040      		sbci r19,hi8(-(-2))
 5676 20ec 4040      		sbci r20,hlo8(-(-2))
 5677 20ee 5040      		sbci r21,hhi8(-(-2))
 5678               	.LM492:
 5679 20f0 EB81      		ldd r30,Y+3
 5680 20f2 FC81      		ldd r31,Y+4
 5681 20f4 8689      		ldd r24,Z+22
 5682 20f6 9789      		ldd r25,Z+23
 5683 20f8 A08D      		ldd r26,Z+24
 5684 20fa B18D      		ldd r27,Z+25
 5685 20fc 0297      		sbiw r24,2
 5686 20fe A109      		sbc r26,__zero_reg__
 5687 2100 B109      		sbc r27,__zero_reg__
 5688 2102 2817      		cp r18,r24
 5689 2104 3907      		cpc r19,r25
 5690 2106 4A07      		cpc r20,r26
 5691 2108 5B07      		cpc r21,r27
 5692 210a 00F0      		brlo .L352
 5693               	.LVL528:
 5694               	.L332:
 5695               	.LBE136:
 5696               	.LBE135:
 5697               	.LM493:
 5698 210c F601      		movw r30,r12
 5699 210e 8481      		ldd r24,Z+4
 5700 2110 8068      		ori r24,lo8(-128)
 5701 2112 8483      		std Z+4,r24
 5702 2114 32E0      		ldi r19,lo8(2)
 5703 2116 632E      		mov r6,r19
 5704               	.LVL529:
 5705               	.L322:
 5706               	.LM494:
 5707 2118 862D      		mov r24,r6
 5708               	/* epilogue start */
 5709 211a 0F90      		pop __tmp_reg__
 5710 211c 0F90      		pop __tmp_reg__
 5711 211e 0F90      		pop __tmp_reg__
 5712 2120 0F90      		pop __tmp_reg__
 5713 2122 CF91      		pop r28
 5714 2124 DF91      		pop r29
 5715 2126 1F91      		pop r17
 5716 2128 0F91      		pop r16
 5717               	.LVL530:
 5718 212a FF90      		pop r15
 5719 212c EF90      		pop r14
 5720               	.LVL531:
 5721 212e DF90      		pop r13
 5722 2130 CF90      		pop r12
 5723               	.LVL532:
 5724 2132 BF90      		pop r11
 5725               	.LVL533:
 5726 2134 AF90      		pop r10
 5727               	.LVL534:
 5728 2136 9F90      		pop r9
 5729 2138 8F90      		pop r8
 5730               	.LVL535:
 5731 213a 7F90      		pop r7
 5732               	.LVL536:
 5733 213c 6F90      		pop r6
 5734               	.LVL537:
 5735 213e 5F90      		pop r5
 5736 2140 4F90      		pop r4
 5737               	.LVL538:
 5738 2142 3F90      		pop r3
 5739 2144 2F90      		pop r2
 5740               	.LVL539:
 5741 2146 0895      		ret
 5742               	.LVL540:
 5743               	.L350:
 5744               	.LM495:
 5745 2148 57E0      		ldi r21,lo8(7)
 5746 214a 652E      		mov r6,r21
 5747 214c 00C0      		rjmp .L322
 5748               	.LVL541:
 5749               	.L352:
 5750               	.LBB138:
 5751               	.LBB137:
 5752               	.LM496:
 5753 214e 1281      		ldd r17,Z+2
 5754 2150 612F      		mov r22,r17
 5755               	.LVL542:
 5756 2152 70E0      		ldi r23,lo8(0)
 5757 2154 80E0      		ldi r24,lo8(0)
 5758 2156 90E0      		ldi r25,hi8(0)
 5759 2158 0E94 0000 		call __mulsi3
 5760               	.LVL543:
 5761 215c 9B01      		movw r18,r22
 5762 215e AC01      		movw r20,r24
 5763               	.LVL544:
 5764 2160 EB81      		ldd r30,Y+3
 5765 2162 FC81      		ldd r31,Y+4
 5766 2164 86A1      		ldd r24,Z+38
 5767 2166 97A1      		ldd r25,Z+39
 5768 2168 A0A5      		ldd r26,Z+40
 5769 216a B1A5      		ldd r27,Z+41
 5770 216c 280F      		add r18,r24
 5771 216e 391F      		adc r19,r25
 5772 2170 4A1F      		adc r20,r26
 5773 2172 5B1F      		adc r21,r27
 5774               	.LBE137:
 5775               	.LBE138:
 5776               	.LM497:
 5777 2174 2115      		cp r18,__zero_reg__
 5778 2176 3105      		cpc r19,__zero_reg__
 5779 2178 4105      		cpc r20,__zero_reg__
 5780 217a 5105      		cpc r21,__zero_reg__
 5781 217c 01F0      		breq .L332
 5782               	.LM498:
 5783 217e 4901      		movw r8,r18
 5784 2180 5A01      		movw r10,r20
 5785 2182 870C      		add r8,r7
 5786 2184 911C      		adc r9,__zero_reg__
 5787 2186 A11C      		adc r10,__zero_reg__
 5788 2188 B11C      		adc r11,__zero_reg__
 5789               	.LVL545:
 5790               	.LM499:
 5791 218a 7201      		movw r14,r4
 5792               	.LVL546:
 5793 218c EF2C      		mov r14,r15
 5794 218e FF24      		clr r15
 5795 2190 E694      		lsr r14
 5796               	.LM500:
 5797 2192 E114      		cp r14,__zero_reg__
 5798 2194 F104      		cpc r15,__zero_reg__
 5799 2196 01F4      		brne .+2
 5800 2198 00C0      		rjmp .L334
 5801               	.LM501:
 5802 219a 272D      		mov r18,r7
 5803 219c 30E0      		ldi r19,lo8(0)
 5804               	.LVL547:
 5805 219e C901      		movw r24,r18
 5806 21a0 8E0D      		add r24,r14
 5807 21a2 9F1D      		adc r25,r15
 5808 21a4 612F      		mov r22,r17
 5809 21a6 70E0      		ldi r23,lo8(0)
 5810 21a8 6817      		cp r22,r24
 5811 21aa 7907      		cpc r23,r25
 5812 21ac 00F4      		brsh .L335
 5813               	.LVL548:
 5814               	.LM502:
 5815 21ae 7B01      		movw r14,r22
 5816 21b0 E21A      		sub r14,r18
 5817 21b2 F30A      		sbc r15,r19
 5818               	.L335:
 5819               	.LM503:
 5820 21b4 EB81      		ldd r30,Y+3
 5821 21b6 FC81      		ldd r31,Y+4
 5822 21b8 8181      		ldd r24,Z+1
 5823 21ba B101      		movw r22,r2
 5824 21bc A501      		movw r20,r10
 5825 21be 9401      		movw r18,r8
 5826               	.LVL549:
 5827 21c0 0E2D      		mov r16,r14
 5828               	.LVL550:
 5829 21c2 0E94 0000 		call disk_read
 5830               	.LVL551:
 5831 21c6 8823      		tst r24
 5832 21c8 01F0      		breq .+2
 5833 21ca 00C0      		rjmp .L349
 5834               	.LM504:
 5835 21cc F601      		movw r30,r12
 5836 21ce 0190      		ld __tmp_reg__,Z+
 5837 21d0 F081      		ld r31,Z
 5838 21d2 E02D      		mov r30,__tmp_reg__
 5839 21d4 FC83      		std Y+4,r31
 5840 21d6 EB83      		std Y+3,r30
 5841 21d8 8481      		ldd r24,Z+4
 5842 21da 8823      		tst r24
 5843 21dc 01F0      		breq .L337
 5844 21de 22A5      		ldd r18,Z+42
 5845 21e0 33A5      		ldd r19,Z+43
 5846 21e2 44A5      		ldd r20,Z+44
 5847 21e4 55A5      		ldd r21,Z+45
 5848 21e6 2819      		sub r18,r8
 5849 21e8 3909      		sbc r19,r9
 5850 21ea 4A09      		sbc r20,r10
 5851 21ec 5B09      		sbc r21,r11
 5852 21ee C701      		movw r24,r14
 5853 21f0 A0E0      		ldi r26,lo8(0)
 5854 21f2 B0E0      		ldi r27,hi8(0)
 5855               	.LVL552:
 5856 21f4 2817      		cp r18,r24
 5857 21f6 3907      		cpc r19,r25
 5858 21f8 4A07      		cpc r20,r26
 5859 21fa 5B07      		cpc r21,r27
 5860 21fc 00F4      		brsh .L337
 5861               	.LVL553:
 5862               	.LBB139:
 5863               	.LBB140:
 5864               	.LM505:
 5865 21fe 99E0      		ldi r25,9
 5866 2200 220F      	1:	lsl r18
 5867 2202 331F      		rol r19
 5868 2204 441F      		rol r20
 5869 2206 551F      		rol r21
 5870 2208 9A95      		dec r25
 5871 220a 01F4      		brne 1b
 5872 220c C101      		movw r24,r2
 5873               	.LVL554:
 5874 220e 820F      		add r24,r18
 5875 2210 931F      		adc r25,r19
 5876               	.LM506:
 5877 2212 DF01      		movw r26,r30
 5878               	.LVL555:
 5879 2214 9E96      		adiw r26,46
 5880 2216 FC01      		movw r30,r24
 5881 2218 9C01      		movw r18,r24
 5882 221a 2050      		subi r18,lo8(-(512))
 5883 221c 3E4F      		sbci r19,hi8(-(512))
 5884               	.L338:
 5885               	.LM507:
 5886 221e 8D91      		ld r24,X+
 5887               	.LVL556:
 5888 2220 8193      		st Z+,r24
 5889               	.LM508:
 5890 2222 E217      		cp r30,r18
 5891 2224 F307      		cpc r31,r19
 5892 2226 01F4      		brne .L338
 5893               	.LVL557:
 5894               	.L337:
 5895               	.LBE140:
 5896               	.LBE139:
 5897               	.LM509:
 5898 2228 8701      		movw r16,r14
 5899               	.LVL558:
 5900 222a 102F      		mov r17,r16
 5901 222c 0027      		clr r16
 5902 222e 110F      		lsl r17
 5903 2230 F601      		movw r30,r12
 5904               	.LVL559:
 5905 2232 6681      		ldd r22,Z+6
 5906 2234 7781      		ldd r23,Z+7
 5907 2236 8085      		ldd r24,Z+8
 5908 2238 9185      		ldd r25,Z+9
 5909 223a 00C0      		rjmp .L339
 5910               	.LVL560:
 5911               	.L334:
 5912               	.LM510:
 5913 223c F601      		movw r30,r12
 5914 223e 868A      		std Z+22,r8
 5915 2240 978A      		std Z+23,r9
 5916 2242 A08E      		std Z+24,r10
 5917 2244 B18E      		std Z+25,r11
 5918 2246 E680      		ldd r14,Z+6
 5919 2248 F780      		ldd r15,Z+7
 5920 224a 0085      		ldd r16,Z+8
 5921 224c 1185      		ldd r17,Z+9
 5922               	.LVL561:
 5923 224e 00C0      		rjmp .L326
 5924               	.LVL562:
 5925               	.L328:
 5926               	.LM511:
 5927 2250 F601      		movw r30,r12
 5928 2252 4289      		ldd r20,Z+18
 5929 2254 5389      		ldd r21,Z+19
 5930 2256 6489      		ldd r22,Z+20
 5931 2258 7589      		ldd r23,Z+21
 5932 225a 8B81      		ldd r24,Y+3
 5933 225c 9C81      		ldd r25,Y+4
 5934 225e 0E94 0000 		call get_fat
 5935               	.LVL563:
 5936 2262 00C0      		rjmp .L329
 5937               	.LVL564:
 5938               	.L351:
 5939               	.LM512:
 5940 2264 2901      		movw r4,r18
 5941               	.LVL565:
 5942 2266 00C0      		rjmp .L325
 5943               	.LVL566:
 5944               	.L349:
 5945               	.LM513:
 5946 2268 F601      		movw r30,r12
 5947 226a 8481      		ldd r24,Z+4
 5948 226c 8068      		ori r24,lo8(-128)
 5949 226e 8483      		std Z+4,r24
 5950 2270 6624      		clr r6
 5951 2272 6394      		inc r6
 5952 2274 00C0      		rjmp .L322
 5953               	.LVL567:
 5954               	.L323:
 5955               	.LM514:
 5956 2276 B2E0      		ldi r27,lo8(2)
 5957 2278 6B2E      		mov r6,r27
 5958 227a 00C0      		rjmp .L322
 5959               	.LFE26:
 5962               	chk_mounted:
 5963               	.LFB22:
 5964               	.LM515:
 5965               	.LVL568:
 5966 227c 2F92      		push r2
 5967 227e 3F92      		push r3
 5968 2280 4F92      		push r4
 5969 2282 5F92      		push r5
 5970 2284 6F92      		push r6
 5971 2286 7F92      		push r7
 5972 2288 8F92      		push r8
 5973 228a 9F92      		push r9
 5974 228c AF92      		push r10
 5975 228e BF92      		push r11
 5976 2290 CF92      		push r12
 5977 2292 DF92      		push r13
 5978 2294 EF92      		push r14
 5979 2296 FF92      		push r15
 5980 2298 0F93      		push r16
 5981 229a 1F93      		push r17
 5982 229c DF93      		push r29
 5983 229e CF93      		push r28
 5984 22a0 CDB7      		in r28,__SP_L__
 5985 22a2 DEB7      		in r29,__SP_H__
 5986 22a4 2A97      		sbiw r28,10
 5987 22a6 0FB6      		in __tmp_reg__,__SREG__
 5988 22a8 F894      		cli
 5989 22aa DEBF      		out __SP_H__,r29
 5990 22ac 0FBE      		out __SREG__,__tmp_reg__
 5991 22ae CDBF      		out __SP_L__,r28
 5992               	/* prologue: function */
 5993               	/* frame size = 10 */
 5994 22b0 DC01      		movw r26,r24
 5995 22b2 042F      		mov r16,r20
 5996               	.LM516:
 5997 22b4 ED91      		ld r30,X+
 5998 22b6 FC91      		ld r31,X
 5999 22b8 1197      		sbiw r26,1
 6000               	.LVL569:
 6001               	.LM517:
 6002 22ba 8081      		ld r24,Z
 6003               	.LVL570:
 6004 22bc 282F      		mov r18,r24
 6005               	.LVL571:
 6006 22be 30E0      		ldi r19,lo8(0)
 6007               	.LVL572:
 6008 22c0 2053      		subi r18,lo8(-(-48))
 6009 22c2 3040      		sbci r19,hi8(-(-48))
 6010               	.LVL573:
 6011               	.LM518:
 6012 22c4 2A30      		cpi r18,10
 6013 22c6 3105      		cpc r19,__zero_reg__
 6014 22c8 00F4      		brsh .L354
 6015               	.LVL574:
 6016 22ca 8181      		ldd r24,Z+1
 6017 22cc 8A33      		cpi r24,lo8(58)
 6018 22ce 01F4      		brne .+2
 6019 22d0 00C0      		rjmp .L379
 6020               	.L354:
 6021               	.LM519:
 6022 22d2 E090 0000 		lds r14,FatFs
 6023 22d6 F090 0000 		lds r15,(FatFs)+1
 6024               	.LVL575:
 6025 22da DB01      		movw r26,r22
 6026               	.LVL576:
 6027 22dc ED92      		st X+,r14
 6028 22de FC92      		st X,r15
 6029               	.LM520:
 6030 22e0 E114      		cp r14,__zero_reg__
 6031 22e2 F104      		cpc r15,__zero_reg__
 6032 22e4 01F4      		brne .+2
 6033 22e6 00C0      		rjmp .L380
 6034               	.LM521:
 6035 22e8 F701      		movw r30,r14
 6036               	.LVL577:
 6037 22ea 8081      		ld r24,Z
 6038 22ec 8823      		tst r24
 6039 22ee 01F4      		brne .L381
 6040               	.L357:
 6041               	.LM522:
 6042 22f0 D701      		movw r26,r14
 6043 22f2 1C92      		st X,__zero_reg__
 6044               	.LM523:
 6045 22f4 1196      		adiw r26,1
 6046 22f6 1C92      		st X,__zero_reg__
 6047               	.LM524:
 6048 22f8 80E0      		ldi r24,lo8(0)
 6049 22fa 0E94 0000 		call disk_initialize
 6050               	.LVL578:
 6051               	.LM525:
 6052 22fe 80FD      		sbrc r24,0
 6053 2300 00C0      		rjmp .L382
 6054               	.LM526:
 6055 2302 0023      		tst r16
 6056 2304 01F0      		breq .L361
 6057 2306 82FD      		sbrc r24,2
 6058 2308 00C0      		rjmp .L359
 6059               	.L361:
 6060               	.LM527:
 6061 230a C701      		movw r24,r14
 6062 230c 40E0      		ldi r20,lo8(0)
 6063 230e 50E0      		ldi r21,hi8(0)
 6064 2310 60E0      		ldi r22,hlo8(0)
 6065 2312 70E0      		ldi r23,hhi8(0)
 6066 2314 0E94 0000 		call check_fs
 6067               	.LM528:
 6068 2318 8130      		cpi r24,lo8(1)
 6069               	.LVL579:
 6070 231a 01F4      		brne .+2
 6071 231c 00C0      		rjmp .L362
 6072 231e 6624      		clr r6
 6073 2320 7724      		clr r7
 6074 2322 4301      		movw r8,r6
 6075               	.LVL580:
 6076               	.L363:
 6077               	.LM529:
 6078 2324 8330      		cpi r24,lo8(3)
 6079 2326 01F4      		brne .+2
 6080 2328 00C0      		rjmp .L383
 6081               	.LM530:
 6082 232a 8823      		tst r24
 6083 232c 01F4      		brne .L364
 6084               	.LM531:
 6085 232e F701      		movw r30,r14
 6086 2330 92AD      		ldd r25,Z+58
 6087 2332 80E0      		ldi r24,lo8(0)
 6088               	.LVL581:
 6089 2334 21AD      		ldd r18,Z+57
 6090 2336 30E0      		ldi r19,lo8(0)
 6091 2338 822B      		or r24,r18
 6092 233a 932B      		or r25,r19
 6093 233c 8050      		subi r24,lo8(512)
 6094 233e 9240      		sbci r25,hi8(512)
 6095 2340 01F4      		brne .+2
 6096 2342 00C0      		rjmp .L384
 6097               	.LVL582:
 6098               	.L364:
 6099               	.LM532:
 6100 2344 8DE0      		ldi r24,lo8(13)
 6101               	.LVL583:
 6102 2346 00C0      		rjmp .L355
 6103               	.LVL584:
 6104               	.L381:
 6105               	.LM533:
 6106 2348 8181      		ldd r24,Z+1
 6107 234a 0E94 0000 		call disk_status
 6108               	.LVL585:
 6109               	.LM534:
 6110 234e 80FD      		sbrc r24,0
 6111 2350 00C0      		rjmp .L357
 6112               	.LM535:
 6113 2352 0023      		tst r16
 6114 2354 01F0      		breq .L358
 6115 2356 82FF      		sbrs r24,2
 6116 2358 00C0      		rjmp .L358
 6117               	.L359:
 6118               	.LM536:
 6119 235a 8AE0      		ldi r24,lo8(10)
 6120               	.LVL586:
 6121               	.L355:
 6122               	/* epilogue start */
 6123               	.LM537:
 6124 235c 2A96      		adiw r28,10
 6125 235e 0FB6      		in __tmp_reg__,__SREG__
 6126 2360 F894      		cli
 6127 2362 DEBF      		out __SP_H__,r29
 6128 2364 0FBE      		out __SREG__,__tmp_reg__
 6129 2366 CDBF      		out __SP_L__,r28
 6130 2368 CF91      		pop r28
 6131 236a DF91      		pop r29
 6132 236c 1F91      		pop r17
 6133               	.LVL587:
 6134 236e 0F91      		pop r16
 6135               	.LVL588:
 6136 2370 FF90      		pop r15
 6137 2372 EF90      		pop r14
 6138               	.LVL589:
 6139 2374 DF90      		pop r13
 6140 2376 CF90      		pop r12
 6141               	.LVL590:
 6142 2378 BF90      		pop r11
 6143 237a AF90      		pop r10
 6144               	.LVL591:
 6145 237c 9F90      		pop r9
 6146 237e 8F90      		pop r8
 6147 2380 7F90      		pop r7
 6148 2382 6F90      		pop r6
 6149               	.LVL592:
 6150 2384 5F90      		pop r5
 6151 2386 4F90      		pop r4
 6152               	.LVL593:
 6153 2388 3F90      		pop r3
 6154 238a 2F90      		pop r2
 6155               	.LVL594:
 6156 238c 0895      		ret
 6157               	.LVL595:
 6158               	.L382:
 6159               	.LM538:
 6160 238e 83E0      		ldi r24,lo8(3)
 6161 2390 00C0      		rjmp .L355
 6162               	.LVL596:
 6163               	.L379:
 6164               	.LM539:
 6165 2392 3296      		adiw r30,2
 6166 2394 ED93      		st X+,r30
 6167 2396 FC93      		st X,r31
 6168               	.LM540:
 6169 2398 232B      		or r18,r19
 6170 239a 01F4      		brne .+2
 6171 239c 00C0      		rjmp .L354
 6172 239e 8BE0      		ldi r24,lo8(11)
 6173 23a0 00C0      		rjmp .L355
 6174               	.LVL597:
 6175               	.L358:
 6176               	.LM541:
 6177 23a2 80E0      		ldi r24,lo8(0)
 6178 23a4 00C0      		rjmp .L355
 6179               	.LVL598:
 6180               	.L380:
 6181               	.LM542:
 6182 23a6 8CE0      		ldi r24,lo8(12)
 6183 23a8 00C0      		rjmp .L355
 6184               	.LVL599:
 6185               	.L362:
 6186               	.LM543:
 6187 23aa F701      		movw r30,r14
 6188               	.LVL600:
 6189 23ac E451      		subi r30,lo8(-(492))
 6190 23ae FE4F      		sbci r31,hi8(-(492))
 6191               	.LM544:
 6192 23b0 8481      		ldd r24,Z+4
 6193               	.LVL601:
 6194 23b2 8823      		tst r24
 6195 23b4 01F0      		breq .L364
 6196               	.LM545:
 6197 23b6 8385      		ldd r24,Z+11
 6198 23b8 90E0      		ldi r25,lo8(0)
 6199 23ba A0E0      		ldi r26,lo8(0)
 6200 23bc B0E0      		ldi r27,hi8(0)
 6201 23be 982E      		mov r9,r24
 6202 23c0 8824      		clr r8
 6203 23c2 7724      		clr r7
 6204 23c4 6624      		clr r6
 6205               	.LVL602:
 6206 23c6 8285      		ldd r24,Z+10
 6207 23c8 90E0      		ldi r25,lo8(0)
 6208 23ca A0E0      		ldi r26,lo8(0)
 6209 23cc B0E0      		ldi r27,hi8(0)
 6210 23ce DC01      		movw r26,r24
 6211 23d0 9927      		clr r25
 6212 23d2 8827      		clr r24
 6213 23d4 682A      		or r6,r24
 6214 23d6 792A      		or r7,r25
 6215 23d8 8A2A      		or r8,r26
 6216 23da 9B2A      		or r9,r27
 6217 23dc 8085      		ldd r24,Z+8
 6218 23de 90E0      		ldi r25,lo8(0)
 6219 23e0 A0E0      		ldi r26,lo8(0)
 6220 23e2 B0E0      		ldi r27,hi8(0)
 6221 23e4 682A      		or r6,r24
 6222 23e6 792A      		or r7,r25
 6223 23e8 8A2A      		or r8,r26
 6224 23ea 9B2A      		or r9,r27
 6225 23ec 9185      		ldd r25,Z+9
 6226 23ee 80E0      		ldi r24,lo8(0)
 6227 23f0 A0E0      		ldi r26,lo8(0)
 6228 23f2 B0E0      		ldi r27,hi8(0)
 6229 23f4 682A      		or r6,r24
 6230 23f6 792A      		or r7,r25
 6231 23f8 8A2A      		or r8,r26
 6232 23fa 9B2A      		or r9,r27
 6233               	.LM546:
 6234 23fc C701      		movw r24,r14
 6235 23fe B401      		movw r22,r8
 6236 2400 A301      		movw r20,r6
 6237 2402 0E94 0000 		call check_fs
 6238               	.LVL603:
 6239 2406 00C0      		rjmp .L363
 6240               	.L384:
 6241               	.LM547:
 6242 2408 25E4      		ldi r18,lo8(69)
 6243 240a 30E0      		ldi r19,hi8(69)
 6244 240c E20E      		add r14,r18
 6245 240e F31E      		adc r15,r19
 6246 2410 D701      		movw r26,r14
 6247 2412 9C91      		ld r25,X
 6248 2414 80E0      		ldi r24,lo8(0)
 6249 2416 F701      		movw r30,r14
 6250 2418 2291      		ld r18,-Z
 6251 241a 7F01      		movw r14,r30
 6252 241c 4CEB      		ldi r20,lo8(-68)
 6253 241e 5FEF      		ldi r21,hi8(-68)
 6254 2420 E40E      		add r14,r20
 6255 2422 F51E      		adc r15,r21
 6256 2424 30E0      		ldi r19,lo8(0)
 6257 2426 822B      		or r24,r18
 6258 2428 932B      		or r25,r19
 6259 242a 5C01      		movw r10,r24
 6260               	.LVL604:
 6261 242c CC24      		clr r12
 6262 242e DD24      		clr r13
 6263               	.LVL605:
 6264               	.LM548:
 6265 2430 A114      		cp r10,__zero_reg__
 6266 2432 B104      		cpc r11,__zero_reg__
 6267 2434 C104      		cpc r12,__zero_reg__
 6268 2436 D104      		cpc r13,__zero_reg__
 6269 2438 01F4      		brne .L366
 6270 243a 65E5      		ldi r22,lo8(85)
 6271 243c 70E0      		ldi r23,hi8(85)
 6272 243e E60E      		add r14,r22
 6273 2440 F71E      		adc r15,r23
 6274 2442 D701      		movw r26,r14
 6275 2444 8C91      		ld r24,X
 6276 2446 90E0      		ldi r25,lo8(0)
 6277 2448 A0E0      		ldi r26,lo8(0)
 6278 244a B0E0      		ldi r27,hi8(0)
 6279 244c D82E      		mov r13,r24
 6280 244e CC24      		clr r12
 6281 2450 BB24      		clr r11
 6282 2452 AA24      		clr r10
 6283               	.LVL606:
 6284 2454 F701      		movw r30,r14
 6285 2456 8291      		ld r24,-Z
 6286 2458 7F01      		movw r14,r30
 6287 245a 90E0      		ldi r25,lo8(0)
 6288 245c A0E0      		ldi r26,lo8(0)
 6289 245e B0E0      		ldi r27,hi8(0)
 6290 2460 DC01      		movw r26,r24
 6291 2462 9927      		clr r25
 6292 2464 8827      		clr r24
 6293 2466 A82A      		or r10,r24
 6294 2468 B92A      		or r11,r25
 6295 246a CA2A      		or r12,r26
 6296 246c DB2A      		or r13,r27
 6297 246e 2EEF      		ldi r18,lo8(-2)
 6298 2470 3FEF      		ldi r19,hi8(-2)
 6299 2472 E20E      		add r14,r18
 6300 2474 F31E      		adc r15,r19
 6301 2476 D701      		movw r26,r14
 6302 2478 8D91      		ld r24,X+
 6303 247a 7D01      		movw r14,r26
 6304 247c 90E0      		ldi r25,lo8(0)
 6305 247e A0E0      		ldi r26,lo8(0)
 6306 2480 B0E0      		ldi r27,hi8(0)
 6307 2482 A82A      		or r10,r24
 6308 2484 B92A      		or r11,r25
 6309 2486 CA2A      		or r12,r26
 6310 2488 DB2A      		or r13,r27
 6311 248a F701      		movw r30,r14
 6312 248c 9081      		ld r25,Z
 6313 248e 2DEA      		ldi r18,lo8(-83)
 6314 2490 3FEF      		ldi r19,hi8(-83)
 6315 2492 E20E      		add r14,r18
 6316 2494 F31E      		adc r15,r19
 6317 2496 80E0      		ldi r24,lo8(0)
 6318 2498 A0E0      		ldi r26,lo8(0)
 6319 249a B0E0      		ldi r27,hi8(0)
 6320 249c A82A      		or r10,r24
 6321 249e B92A      		or r11,r25
 6322 24a0 CA2A      		or r12,r26
 6323 24a2 DB2A      		or r13,r27
 6324               	.L366:
 6325               	.LM549:
 6326 24a4 D701      		movw r26,r14
 6327 24a6 5A96      		adiw r26,26
 6328 24a8 AD92      		st X+,r10
 6329 24aa BD92      		st X+,r11
 6330 24ac CD92      		st X+,r12
 6331 24ae DC92      		st X,r13
 6332 24b0 5D97      		sbiw r26,26+3
 6333               	.LM550:
 6334 24b2 DE96      		adiw r26,62
 6335 24b4 4C91      		ld r20,X
 6336 24b6 DE97      		sbiw r26,62
 6337               	.LVL607:
 6338 24b8 1396      		adiw r26,3
 6339 24ba 4C93      		st X,r20
 6340 24bc 1397      		sbiw r26,3
 6341               	.LM551:
 6342 24be 842F      		mov r24,r20
 6343 24c0 8150      		subi r24,lo8(-(-1))
 6344 24c2 8230      		cpi r24,lo8(2)
 6345 24c4 00F0      		brlo .+2
 6346 24c6 00C0      		rjmp .L364
 6347               	.LM552:
 6348 24c8 DB96      		adiw r26,59
 6349 24ca 2C91      		ld r18,X
 6350 24cc DB97      		sbiw r26,59
 6351               	.LVL608:
 6352 24ce 1296      		adiw r26,2
 6353 24d0 2C93      		st X,r18
 6354               	.LM553:
 6355 24d2 2223      		tst r18
 6356 24d4 01F4      		brne .+2
 6357 24d6 00C0      		rjmp .L364
 6358 24d8 30E0      		ldi r19,lo8(0)
 6359 24da C901      		movw r24,r18
 6360               	.LVL609:
 6361 24dc 0197      		sbiw r24,1
 6362 24de 8223      		and r24,r18
 6363 24e0 9323      		and r25,r19
 6364 24e2 892B      		or r24,r25
 6365 24e4 01F0      		breq .+2
 6366 24e6 00C0      		rjmp .L364
 6367               	.LM554:
 6368 24e8 E0E4      		ldi r30,lo8(64)
 6369 24ea F0E0      		ldi r31,hi8(64)
 6370 24ec EE0E      		add r14,r30
 6371 24ee FF1E      		adc r15,r31
 6372 24f0 D701      		movw r26,r14
 6373 24f2 9C91      		ld r25,X
 6374 24f4 E0EC      		ldi r30,lo8(-64)
 6375 24f6 FFEF      		ldi r31,hi8(-64)
 6376 24f8 EE0E      		add r14,r30
 6377 24fa FF1E      		adc r15,r31
 6378 24fc 80E0      		ldi r24,lo8(0)
 6379 24fe D701      		movw r26,r14
 6380 2500 DF96      		adiw r26,63
 6381 2502 2C91      		ld r18,X
 6382 2504 DF97      		sbiw r26,63
 6383 2506 022F      		mov r16,r18
 6384               	.LVL610:
 6385 2508 10E0      		ldi r17,lo8(0)
 6386 250a 082B      		or r16,r24
 6387 250c 192B      		or r17,r25
 6388 250e 1996      		adiw r26,8+1
 6389 2510 1C93      		st X,r17
 6390 2512 0E93      		st -X,r16
 6391 2514 1897      		sbiw r26,8
 6392               	.LM555:
 6393 2516 C801      		movw r24,r16
 6394 2518 8F70      		andi r24,lo8(15)
 6395 251a 9070      		andi r25,hi8(15)
 6396 251c 892B      		or r24,r25
 6397 251e 01F0      		breq .+2
 6398 2520 00C0      		rjmp .L364
 6399               	.LM556:
 6400 2522 E2E4      		ldi r30,lo8(66)
 6401 2524 F0E0      		ldi r31,hi8(66)
 6402 2526 EE0E      		add r14,r30
 6403 2528 FF1E      		adc r15,r31
 6404 252a D701      		movw r26,r14
 6405 252c 9C91      		ld r25,X
 6406 252e 80E0      		ldi r24,lo8(0)
 6407 2530 F701      		movw r30,r14
 6408 2532 2291      		ld r18,-Z
 6409 2534 7F01      		movw r14,r30
 6410 2536 6FEB      		ldi r22,lo8(-65)
 6411 2538 7FEF      		ldi r23,hi8(-65)
 6412 253a E60E      		add r14,r22
 6413 253c F71E      		adc r15,r23
 6414 253e 30E0      		ldi r19,lo8(0)
 6415 2540 822B      		or r24,r18
 6416 2542 932B      		or r25,r19
 6417 2544 1C01      		movw r2,r24
 6418               	.LVL611:
 6419 2546 4424      		clr r4
 6420 2548 5524      		clr r5
 6421               	.LVL612:
 6422               	.LM557:
 6423 254a 2114      		cp r2,__zero_reg__
 6424 254c 3104      		cpc r3,__zero_reg__
 6425 254e 4104      		cpc r4,__zero_reg__
 6426 2550 5104      		cpc r5,__zero_reg__
 6427 2552 01F4      		brne .L367
 6428 2554 81E5      		ldi r24,lo8(81)
 6429 2556 90E0      		ldi r25,hi8(81)
 6430 2558 E80E      		add r14,r24
 6431 255a F91E      		adc r15,r25
 6432 255c D701      		movw r26,r14
 6433 255e 8C91      		ld r24,X
 6434 2560 90E0      		ldi r25,lo8(0)
 6435 2562 A0E0      		ldi r26,lo8(0)
 6436 2564 B0E0      		ldi r27,hi8(0)
 6437 2566 582E      		mov r5,r24
 6438 2568 4424      		clr r4
 6439 256a 3324      		clr r3
 6440 256c 2224      		clr r2
 6441               	.LVL613:
 6442 256e F701      		movw r30,r14
 6443 2570 8291      		ld r24,-Z
 6444 2572 7F01      		movw r14,r30
 6445 2574 90E0      		ldi r25,lo8(0)
 6446 2576 A0E0      		ldi r26,lo8(0)
 6447 2578 B0E0      		ldi r27,hi8(0)
 6448 257a DC01      		movw r26,r24
 6449 257c 9927      		clr r25
 6450 257e 8827      		clr r24
 6451 2580 282A      		or r2,r24
 6452 2582 392A      		or r3,r25
 6453 2584 4A2A      		or r4,r26
 6454 2586 5B2A      		or r5,r27
 6455 2588 2EEF      		ldi r18,lo8(-2)
 6456 258a 3FEF      		ldi r19,hi8(-2)
 6457 258c E20E      		add r14,r18
 6458 258e F31E      		adc r15,r19
 6459 2590 D701      		movw r26,r14
 6460 2592 8D91      		ld r24,X+
 6461 2594 7D01      		movw r14,r26
 6462 2596 90E0      		ldi r25,lo8(0)
 6463 2598 A0E0      		ldi r26,lo8(0)
 6464 259a B0E0      		ldi r27,hi8(0)
 6465 259c 282A      		or r2,r24
 6466 259e 392A      		or r3,r25
 6467 25a0 4A2A      		or r4,r26
 6468 25a2 5B2A      		or r5,r27
 6469 25a4 F701      		movw r30,r14
 6470 25a6 9081      		ld r25,Z
 6471 25a8 21EB      		ldi r18,lo8(-79)
 6472 25aa 3FEF      		ldi r19,hi8(-79)
 6473 25ac E20E      		add r14,r18
 6474 25ae F31E      		adc r15,r19
 6475 25b0 80E0      		ldi r24,lo8(0)
 6476 25b2 A0E0      		ldi r26,lo8(0)
 6477 25b4 B0E0      		ldi r27,hi8(0)
 6478 25b6 282A      		or r2,r24
 6479 25b8 392A      		or r3,r25
 6480 25ba 4A2A      		or r4,r26
 6481 25bc 5B2A      		or r5,r27
 6482               	.L367:
 6483               	.LM558:
 6484 25be D701      		movw r26,r14
 6485 25c0 DD96      		adiw r26,61
 6486 25c2 9C91      		ld r25,X
 6487 25c4 DD97      		sbiw r26,61
 6488 25c6 80E0      		ldi r24,lo8(0)
 6489 25c8 DC96      		adiw r26,60
 6490 25ca 2C91      		ld r18,X
 6491 25cc E22F      		mov r30,r18
 6492 25ce F0E0      		ldi r31,lo8(0)
 6493 25d0 E82B      		or r30,r24
 6494 25d2 F92B      		or r31,r25
 6495 25d4 FA87      		std Y+10,r31
 6496 25d6 E987      		std Y+9,r30
 6497               	.LVL614:
 6498               	.LM559:
 6499 25d8 EF2B      		or r30,r31
 6500 25da 01F4      		brne .+2
 6501 25dc 00C0      		rjmp .L364
 6502               	.LM560:
 6503 25de 242F      		mov r18,r20
 6504               	.LVL615:
 6505 25e0 30E0      		ldi r19,lo8(0)
 6506               	.LVL616:
 6507 25e2 40E0      		ldi r20,lo8(0)
 6508 25e4 50E0      		ldi r21,hi8(0)
 6509               	.LVL617:
 6510 25e6 C601      		movw r24,r12
 6511 25e8 B501      		movw r22,r10
 6512 25ea 0E94 0000 		call __mulsi3
 6513               	.LVL618:
 6514 25ee 6983      		std Y+1,r22
 6515 25f0 7A83      		std Y+2,r23
 6516 25f2 8B83      		std Y+3,r24
 6517 25f4 9C83      		std Y+4,r25
 6518               	.LVL619:
 6519               	.LM561:
 6520 25f6 4985      		ldd r20,Y+9
 6521 25f8 5A85      		ldd r21,Y+10
 6522               	.LVL620:
 6523 25fa 9A01      		movw r18,r20
 6524 25fc 40E0      		ldi r20,lo8(0)
 6525 25fe 50E0      		ldi r21,hi8(0)
 6526 2600 2D83      		std Y+5,r18
 6527 2602 3E83      		std Y+6,r19
 6528 2604 4F83      		std Y+7,r20
 6529 2606 5887      		std Y+8,r21
 6530 2608 1295      		swap r17
 6531 260a 0295      		swap r16
 6532 260c 0F70      		andi r16,0x0f
 6533 260e 0127      		eor r16,r17
 6534 2610 1F70      		andi r17,0x0f
 6535 2612 0127      		eor r16,r17
 6536 2614 5801      		movw r10,r16
 6537               	.LVL621:
 6538 2616 CC24      		clr r12
 6539 2618 DD24      		clr r13
 6540               	.LVL622:
 6541 261a A20E      		add r10,r18
 6542 261c B31E      		adc r11,r19
 6543 261e C41E      		adc r12,r20
 6544 2620 D51E      		adc r13,r21
 6545               	.LVL623:
 6546 2622 A60E      		add r10,r22
 6547 2624 B71E      		adc r11,r23
 6548 2626 C81E      		adc r12,r24
 6549 2628 D91E      		adc r13,r25
 6550               	.LM562:
 6551 262a 2A14      		cp r2,r10
 6552 262c 3B04      		cpc r3,r11
 6553 262e 4C04      		cpc r4,r12
 6554 2630 5D04      		cpc r5,r13
 6555 2632 00F4      		brsh .+2
 6556 2634 00C0      		rjmp .L364
 6557               	.LM563:
 6558 2636 2A18      		sub r2,r10
 6559 2638 3B08      		sbc r3,r11
 6560 263a 4C08      		sbc r4,r12
 6561 263c 5D08      		sbc r5,r13
 6562               	.LVL624:
 6563 263e D701      		movw r26,r14
 6564 2640 1296      		adiw r26,2
 6565 2642 2C91      		ld r18,X
 6566 2644 30E0      		ldi r19,lo8(0)
 6567               	.LVL625:
 6568 2646 40E0      		ldi r20,lo8(0)
 6569 2648 50E0      		ldi r21,hi8(0)
 6570 264a C201      		movw r24,r4
 6571 264c B101      		movw r22,r2
 6572 264e 0E94 0000 		call __udivmodsi4
 6573 2652 C901      		movw r24,r18
 6574 2654 DA01      		movw r26,r20
 6575               	.LM564:
 6576 2656 0097      		sbiw r24,0
 6577 2658 A105      		cpc r26,__zero_reg__
 6578 265a B105      		cpc r27,__zero_reg__
 6579               	.LVL626:
 6580 265c 01F4      		brne .+2
 6581 265e 00C0      		rjmp .L364
 6582               	.LM565:
 6583 2660 863F      		cpi r24,lo8(4086)
 6584 2662 EFE0      		ldi r30,hi8(4086)
 6585 2664 9E07      		cpc r25,r30
 6586 2666 E0E0      		ldi r30,hlo8(4086)
 6587 2668 AE07      		cpc r26,r30
 6588 266a E0E0      		ldi r30,hhi8(4086)
 6589 266c BE07      		cpc r27,r30
 6590 266e 00F4      		brsh .+2
 6591 2670 00C0      		rjmp .L385
 6592               	.LM566:
 6593 2672 863F      		cpi r24,lo8(65526)
 6594 2674 FFEF      		ldi r31,hi8(65526)
 6595 2676 9F07      		cpc r25,r31
 6596 2678 F0E0      		ldi r31,hlo8(65526)
 6597 267a AF07      		cpc r26,r31
 6598 267c F0E0      		ldi r31,hhi8(65526)
 6599 267e BF07      		cpc r27,r31
 6600 2680 00F4      		brsh .+2
 6601 2682 00C0      		rjmp .L386
 6602               	.LM567:
 6603 2684 62E0      		ldi r22,lo8(2)
 6604 2686 262E      		mov r2,r22
 6605 2688 312C      		mov r3,__zero_reg__
 6606 268a 412C      		mov r4,__zero_reg__
 6607 268c 512C      		mov r5,__zero_reg__
 6608               	.LVL627:
 6609 268e 280E      		add r2,r24
 6610 2690 391E      		adc r3,r25
 6611 2692 4A1E      		adc r4,r26
 6612 2694 5B1E      		adc r5,r27
 6613 2696 F701      		movw r30,r14
 6614 2698 268A      		std Z+22,r2
 6615 269a 378A      		std Z+23,r3
 6616 269c 408E      		std Z+24,r4
 6617 269e 518E      		std Z+25,r5
 6618               	.LM568:
 6619 26a0 A60C      		add r10,r6
 6620 26a2 B71C      		adc r11,r7
 6621 26a4 C81C      		adc r12,r8
 6622 26a6 D91C      		adc r13,r9
 6623 26a8 D701      		movw r26,r14
 6624 26aa 9696      		adiw r26,38
 6625 26ac AD92      		st X+,r10
 6626 26ae BD92      		st X+,r11
 6627 26b0 CD92      		st X+,r12
 6628 26b2 DC92      		st X,r13
 6629 26b4 9997      		sbiw r26,38+3
 6630               	.LM569:
 6631 26b6 2D81      		ldd r18,Y+5
 6632 26b8 3E81      		ldd r19,Y+6
 6633 26ba 4F81      		ldd r20,Y+7
 6634 26bc 5885      		ldd r21,Y+8
 6635 26be 260D      		add r18,r6
 6636 26c0 371D      		adc r19,r7
 6637 26c2 481D      		adc r20,r8
 6638 26c4 591D      		adc r21,r9
 6639 26c6 5E96      		adiw r26,30
 6640 26c8 2D93      		st X+,r18
 6641 26ca 3D93      		st X+,r19
 6642 26cc 4D93      		st X+,r20
 6643 26ce 5C93      		st X,r21
 6644 26d0 9197      		sbiw r26,30+3
 6645               	.LM570:
 6646 26d2 1896      		adiw r26,8
 6647 26d4 8D91      		ld r24,X+
 6648 26d6 9C91      		ld r25,X
 6649 26d8 1997      		sbiw r26,8+1
 6650               	.LVL628:
 6651 26da 892B      		or r24,r25
 6652 26dc 01F0      		breq .+2
 6653 26de 00C0      		rjmp .L364
 6654               	.LM571:
 6655 26e0 EDE5      		ldi r30,lo8(93)
 6656 26e2 F0E0      		ldi r31,hi8(93)
 6657 26e4 EE0E      		add r14,r30
 6658 26e6 FF1E      		adc r15,r31
 6659 26e8 D701      		movw r26,r14
 6660 26ea 2C91      		ld r18,X
 6661 26ec 30E0      		ldi r19,lo8(0)
 6662 26ee 40E0      		ldi r20,lo8(0)
 6663 26f0 50E0      		ldi r21,hi8(0)
 6664 26f2 522F      		mov r21,r18
 6665 26f4 4427      		clr r20
 6666 26f6 3327      		clr r19
 6667 26f8 2227      		clr r18
 6668 26fa F701      		movw r30,r14
 6669 26fc 8291      		ld r24,-Z
 6670 26fe 7F01      		movw r14,r30
 6671 2700 90E0      		ldi r25,lo8(0)
 6672 2702 A0E0      		ldi r26,lo8(0)
 6673 2704 B0E0      		ldi r27,hi8(0)
 6674 2706 DC01      		movw r26,r24
 6675 2708 9927      		clr r25
 6676 270a 8827      		clr r24
 6677 270c 282B      		or r18,r24
 6678 270e 392B      		or r19,r25
 6679 2710 4A2B      		or r20,r26
 6680 2712 5B2B      		or r21,r27
 6681 2714 6EEF      		ldi r22,lo8(-2)
 6682 2716 7FEF      		ldi r23,hi8(-2)
 6683 2718 E60E      		add r14,r22
 6684 271a F71E      		adc r15,r23
 6685 271c D701      		movw r26,r14
 6686 271e 8D91      		ld r24,X+
 6687 2720 7D01      		movw r14,r26
 6688 2722 90E0      		ldi r25,lo8(0)
 6689 2724 A0E0      		ldi r26,lo8(0)
 6690 2726 B0E0      		ldi r27,hi8(0)
 6691 2728 282B      		or r18,r24
 6692 272a 392B      		or r19,r25
 6693 272c 4A2B      		or r20,r26
 6694 272e 5B2B      		or r21,r27
 6695 2730 F701      		movw r30,r14
 6696 2732 9081      		ld r25,Z
 6697 2734 65EA      		ldi r22,lo8(-91)
 6698 2736 7FEF      		ldi r23,hi8(-91)
 6699 2738 E60E      		add r14,r22
 6700 273a F71E      		adc r15,r23
 6701 273c 80E0      		ldi r24,lo8(0)
 6702 273e A0E0      		ldi r26,lo8(0)
 6703 2740 B0E0      		ldi r27,hi8(0)
 6704 2742 282B      		or r18,r24
 6705 2744 392B      		or r19,r25
 6706 2746 4A2B      		or r20,r26
 6707 2748 5B2B      		or r21,r27
 6708 274a D701      		movw r26,r14
 6709 274c 9296      		adiw r26,34
 6710 274e 2D93      		st X+,r18
 6711 2750 3D93      		st X+,r19
 6712 2752 4D93      		st X+,r20
 6713 2754 5C93      		st X,r21
 6714 2756 9597      		sbiw r26,34+3
 6715               	.LM572:
 6716 2758 A201      		movw r20,r4
 6717 275a 9101      		movw r18,r2
 6718               	.LVL629:
 6719 275c 220F      		lsl r18
 6720 275e 331F      		rol r19
 6721 2760 441F      		rol r20
 6722 2762 551F      		rol r21
 6723 2764 220F      		lsl r18
 6724 2766 331F      		rol r19
 6725 2768 441F      		rol r20
 6726 276a 551F      		rol r21
 6727 276c 13E0      		ldi r17,lo8(3)
 6728               	.LVL630:
 6729               	.L372:
 6730               	.LM573:
 6731 276e 2150      		subi r18,lo8(-(511))
 6732 2770 3E4F      		sbci r19,hi8(-(511))
 6733 2772 4F4F      		sbci r20,hlo8(-(511))
 6734 2774 5F4F      		sbci r21,hhi8(-(511))
 6735 2776 E9E0      		ldi r30,9
 6736 2778 5695      	1:	lsr r21
 6737 277a 4795      		ror r20
 6738 277c 3795      		ror r19
 6739 277e 2795      		ror r18
 6740 2780 EA95      		dec r30
 6741 2782 01F4      		brne 1b
 6742 2784 F701      		movw r30,r14
 6743 2786 828D      		ldd r24,Z+26
 6744 2788 938D      		ldd r25,Z+27
 6745 278a A48D      		ldd r26,Z+28
 6746 278c B58D      		ldd r27,Z+29
 6747 278e 8217      		cp r24,r18
 6748 2790 9307      		cpc r25,r19
 6749 2792 A407      		cpc r26,r20
 6750 2794 B507      		cpc r27,r21
 6751 2796 00F4      		brsh .+2
 6752 2798 00C0      		rjmp .L364
 6753               	.LM574:
 6754 279a 8FEF      		ldi r24,lo8(-1)
 6755 279c 9FEF      		ldi r25,hi8(-1)
 6756 279e AFEF      		ldi r26,hlo8(-1)
 6757 27a0 BFEF      		ldi r27,hhi8(-1)
 6758 27a2 8687      		std Z+14,r24
 6759 27a4 9787      		std Z+15,r25
 6760 27a6 A08B      		std Z+16,r26
 6761 27a8 B18B      		std Z+17,r27
 6762               	.LM575:
 6763 27aa D701      		movw r26,r14
 6764 27ac 1A96      		adiw r26,10
 6765 27ae 1D92      		st X+,__zero_reg__
 6766 27b0 1D92      		st X+,__zero_reg__
 6767 27b2 1D92      		st X+,__zero_reg__
 6768 27b4 1C92      		st X,__zero_reg__
 6769 27b6 1D97      		sbiw r26,10+3
 6770               	.LM576:
 6771 27b8 1330      		cpi r17,lo8(3)
 6772 27ba 01F4      		brne .+2
 6773 27bc 00C0      		rjmp .L387
 6774               	.L374:
 6775               	.LM577:
 6776 27be F701      		movw r30,r14
 6777 27c0 1083      		st Z,r17
 6778               	.LM578:
 6779 27c2 8091 0000 		lds r24,Fsid
 6780 27c6 9091 0000 		lds r25,(Fsid)+1
 6781 27ca 0196      		adiw r24,1
 6782 27cc 9093 0000 		sts (Fsid)+1,r25
 6783 27d0 8093 0000 		sts Fsid,r24
 6784 27d4 9783      		std Z+7,r25
 6785 27d6 8683      		std Z+6,r24
 6786               	.LM579:
 6787 27d8 D701      		movw r26,r14
 6788 27da 9A96      		adiw r26,42
 6789 27dc 1D92      		st X+,__zero_reg__
 6790 27de 1D92      		st X+,__zero_reg__
 6791 27e0 1D92      		st X+,__zero_reg__
 6792 27e2 1C92      		st X,__zero_reg__
 6793 27e4 9D97      		sbiw r26,42+3
 6794               	.LM580:
 6795 27e6 1496      		adiw r26,4
 6796 27e8 1C92      		st X,__zero_reg__
 6797 27ea 80E0      		ldi r24,lo8(0)
 6798 27ec 00C0      		rjmp .L355
 6799               	.LVL631:
 6800               	.L383:
 6801               	.LM581:
 6802 27ee 81E0      		ldi r24,lo8(1)
 6803               	.LVL632:
 6804 27f0 00C0      		rjmp .L355
 6805               	.LVL633:
 6806               	.L385:
 6807               	.LM582:
 6808 27f2 11E0      		ldi r17,lo8(1)
 6809               	.LVL634:
 6810               	.L369:
 6811               	.LM583:
 6812 27f4 22E0      		ldi r18,lo8(2)
 6813 27f6 222E      		mov r2,r18
 6814 27f8 312C      		mov r3,__zero_reg__
 6815 27fa 412C      		mov r4,__zero_reg__
 6816 27fc 512C      		mov r5,__zero_reg__
 6817               	.LVL635:
 6818 27fe 280E      		add r2,r24
 6819 2800 391E      		adc r3,r25
 6820 2802 4A1E      		adc r4,r26
 6821 2804 5B1E      		adc r5,r27
 6822 2806 D701      		movw r26,r14
 6823 2808 5696      		adiw r26,22
 6824 280a 2D92      		st X+,r2
 6825 280c 3D92      		st X+,r3
 6826 280e 4D92      		st X+,r4
 6827 2810 5C92      		st X,r5
 6828 2812 5997      		sbiw r26,22+3
 6829               	.LM584:
 6830 2814 A60C      		add r10,r6
 6831 2816 B71C      		adc r11,r7
 6832 2818 C81C      		adc r12,r8
 6833 281a D91C      		adc r13,r9
 6834 281c F701      		movw r30,r14
 6835 281e A6A2      		std Z+38,r10
 6836 2820 B7A2      		std Z+39,r11
 6837 2822 C0A6      		std Z+40,r12
 6838 2824 D1A6      		std Z+41,r13
 6839               	.LM585:
 6840 2826 AD80      		ldd r10,Y+5
 6841 2828 BE80      		ldd r11,Y+6
 6842 282a CF80      		ldd r12,Y+7
 6843 282c D884      		ldd r13,Y+8
 6844               	.LVL636:
 6845 282e A60C      		add r10,r6
 6846 2830 B71C      		adc r11,r7
 6847 2832 C81C      		adc r12,r8
 6848 2834 D91C      		adc r13,r9
 6849 2836 5E96      		adiw r26,30
 6850 2838 AD92      		st X+,r10
 6851 283a BD92      		st X+,r11
 6852 283c CD92      		st X+,r12
 6853 283e DC92      		st X,r13
 6854 2840 9197      		sbiw r26,30+3
 6855               	.LM586:
 6856 2842 1896      		adiw r26,8
 6857 2844 8D91      		ld r24,X+
 6858 2846 9C91      		ld r25,X
 6859 2848 1997      		sbiw r26,8+1
 6860               	.LVL637:
 6861 284a 892B      		or r24,r25
 6862 284c 01F4      		brne .+2
 6863 284e 00C0      		rjmp .L364
 6864               	.LM587:
 6865 2850 2981      		ldd r18,Y+1
 6866 2852 3A81      		ldd r19,Y+2
 6867 2854 4B81      		ldd r20,Y+3
 6868 2856 5C81      		ldd r21,Y+4
 6869 2858 A20E      		add r10,r18
 6870 285a B31E      		adc r11,r19
 6871 285c C41E      		adc r12,r20
 6872 285e D51E      		adc r13,r21
 6873 2860 D701      		movw r26,r14
 6874 2862 9296      		adiw r26,34
 6875 2864 AD92      		st X+,r10
 6876 2866 BD92      		st X+,r11
 6877 2868 CD92      		st X+,r12
 6878 286a DC92      		st X,r13
 6879 286c 9597      		sbiw r26,34+3
 6880               	.LM588:
 6881 286e 1230      		cpi r17,lo8(2)
 6882 2870 01F0      		breq .L388
 6883 2872 A201      		movw r20,r4
 6884 2874 9101      		movw r18,r2
 6885               	.LVL638:
 6886 2876 220F      		lsl r18
 6887 2878 331F      		rol r19
 6888 287a 441F      		rol r20
 6889 287c 551F      		rol r21
 6890 287e 220D      		add r18,r2
 6891 2880 331D      		adc r19,r3
 6892 2882 441D      		adc r20,r4
 6893 2884 551D      		adc r21,r5
 6894 2886 5695      		lsr r21
 6895 2888 4795      		ror r20
 6896 288a 3795      		ror r19
 6897 288c 2795      		ror r18
 6898 288e 61E0      		ldi r22,lo8(1)
 6899 2890 70E0      		ldi r23,hi8(1)
 6900 2892 80E0      		ldi r24,hlo8(1)
 6901 2894 90E0      		ldi r25,hhi8(1)
 6902 2896 2622      		and r2,r22
 6903 2898 3722      		and r3,r23
 6904 289a 4822      		and r4,r24
 6905 289c 5922      		and r5,r25
 6906 289e 220D      		add r18,r2
 6907 28a0 331D      		adc r19,r3
 6908 28a2 441D      		adc r20,r4
 6909 28a4 551D      		adc r21,r5
 6910 28a6 00C0      		rjmp .L372
 6911               	.LVL639:
 6912               	.L388:
 6913 28a8 A201      		movw r20,r4
 6914 28aa 9101      		movw r18,r2
 6915               	.LVL640:
 6916 28ac 220F      		lsl r18
 6917 28ae 331F      		rol r19
 6918 28b0 441F      		rol r20
 6919 28b2 551F      		rol r21
 6920 28b4 00C0      		rjmp .L372
 6921               	.LVL641:
 6922               	.L387:
 6923               	.LM589:
 6924 28b6 1596      		adiw r26,5
 6925 28b8 1C92      		st X,__zero_reg__
 6926               	.LM590:
 6927 28ba EFE5      		ldi r30,lo8(95)
 6928 28bc F0E0      		ldi r31,hi8(95)
 6929 28be EE0E      		add r14,r30
 6930 28c0 FF1E      		adc r15,r31
 6931 28c2 D701      		movw r26,r14
 6932 28c4 3C91      		ld r19,X
 6933 28c6 20E0      		ldi r18,lo8(0)
 6934               	.LVL642:
 6935 28c8 F701      		movw r30,r14
 6936 28ca 8291      		ld r24,-Z
 6937 28cc 7F01      		movw r14,r30
 6938 28ce 42EA      		ldi r20,lo8(-94)
 6939 28d0 5FEF      		ldi r21,hi8(-94)
 6940 28d2 E40E      		add r14,r20
 6941 28d4 F51E      		adc r15,r21
 6942 28d6 90E0      		ldi r25,lo8(0)
 6943 28d8 282B      		or r18,r24
 6944 28da 392B      		or r19,r25
 6945 28dc 40E0      		ldi r20,lo8(0)
 6946 28de 50E0      		ldi r21,hi8(0)
 6947 28e0 260D      		add r18,r6
 6948 28e2 371D      		adc r19,r7
 6949 28e4 481D      		adc r20,r8
 6950 28e6 591D      		adc r21,r9
 6951 28e8 D701      		movw r26,r14
 6952 28ea 5296      		adiw r26,18
 6953 28ec 2D93      		st X+,r18
 6954 28ee 3D93      		st X+,r19
 6955 28f0 4D93      		st X+,r20
 6956 28f2 5C93      		st X,r21
 6957 28f4 5597      		sbiw r26,18+3
 6958               	.LM591:
 6959 28f6 B701      		movw r22,r14
 6960 28f8 625D      		subi r22,lo8(-(46))
 6961 28fa 7F4F      		sbci r23,hi8(-(46))
 6962 28fc 1196      		adiw r26,1
 6963 28fe 8C91      		ld r24,X
 6964 2900 01E0      		ldi r16,lo8(1)
 6965 2902 0E94 0000 		call disk_read
 6966 2906 8823      		tst r24
 6967 2908 01F0      		breq .+2
 6968 290a 00C0      		rjmp .L374
 6969 290c EDE2      		ldi r30,lo8(557)
 6970 290e F2E0      		ldi r31,hi8(557)
 6971 2910 EE0E      		add r14,r30
 6972 2912 FF1E      		adc r15,r31
 6973 2914 D701      		movw r26,r14
 6974 2916 9C91      		ld r25,X
 6975 2918 80E0      		ldi r24,lo8(0)
 6976 291a F701      		movw r30,r14
 6977 291c 2291      		ld r18,-Z
 6978 291e 7F01      		movw r14,r30
 6979 2920 44ED      		ldi r20,lo8(-556)
 6980 2922 5DEF      		ldi r21,hi8(-556)
 6981 2924 E40E      		add r14,r20
 6982 2926 F51E      		adc r15,r21
 6983 2928 30E0      		ldi r19,lo8(0)
 6984 292a 822B      		or r24,r18
 6985 292c 932B      		or r25,r19
 6986 292e 8555      		subi r24,lo8(-21931)
 6987 2930 9A4A      		sbci r25,hi8(-21931)
 6988 2932 01F0      		breq .+2
 6989 2934 00C0      		rjmp .L374
 6990 2936 D701      		movw r26,r14
 6991 2938 D196      		adiw r26,49
 6992 293a 2C91      		ld r18,X
 6993 293c D197      		sbiw r26,49
 6994 293e 30E0      		ldi r19,lo8(0)
 6995 2940 40E0      		ldi r20,lo8(0)
 6996 2942 50E0      		ldi r21,hi8(0)
 6997 2944 522F      		mov r21,r18
 6998 2946 4427      		clr r20
 6999 2948 3327      		clr r19
 7000 294a 2227      		clr r18
 7001 294c D096      		adiw r26,48
 7002 294e 8C91      		ld r24,X
 7003 2950 90E0      		ldi r25,lo8(0)
 7004 2952 A0E0      		ldi r26,lo8(0)
 7005 2954 B0E0      		ldi r27,hi8(0)
 7006 2956 DC01      		movw r26,r24
 7007 2958 9927      		clr r25
 7008 295a 8827      		clr r24
 7009 295c 282B      		or r18,r24
 7010 295e 392B      		or r19,r25
 7011 2960 4A2B      		or r20,r26
 7012 2962 5B2B      		or r21,r27
 7013 2964 F701      		movw r30,r14
 7014 2966 86A5      		ldd r24,Z+46
 7015 2968 90E0      		ldi r25,lo8(0)
 7016 296a A0E0      		ldi r26,lo8(0)
 7017 296c B0E0      		ldi r27,hi8(0)
 7018 296e 282B      		or r18,r24
 7019 2970 392B      		or r19,r25
 7020 2972 4A2B      		or r20,r26
 7021 2974 5B2B      		or r21,r27
 7022 2976 97A5      		ldd r25,Z+47
 7023 2978 80E0      		ldi r24,lo8(0)
 7024 297a A0E0      		ldi r26,lo8(0)
 7025 297c B0E0      		ldi r27,hi8(0)
 7026 297e 282B      		or r18,r24
 7027 2980 392B      		or r19,r25
 7028 2982 4A2B      		or r20,r26
 7029 2984 5B2B      		or r21,r27
 7030 2986 2255      		subi r18,lo8(1096897106)
 7031 2988 3245      		sbci r19,hi8(1096897106)
 7032 298a 4146      		sbci r20,hlo8(1096897106)
 7033 298c 5144      		sbci r21,hhi8(1096897106)
 7034 298e 01F0      		breq .+2
 7035 2990 00C0      		rjmp .L374
 7036 2992 25E1      		ldi r18,lo8(533)
 7037 2994 32E0      		ldi r19,hi8(533)
 7038 2996 E20E      		add r14,r18
 7039 2998 F31E      		adc r15,r19
 7040 299a D701      		movw r26,r14
 7041 299c 2C91      		ld r18,X
 7042 299e 30E0      		ldi r19,lo8(0)
 7043 29a0 40E0      		ldi r20,lo8(0)
 7044 29a2 50E0      		ldi r21,hi8(0)
 7045 29a4 522F      		mov r21,r18
 7046 29a6 4427      		clr r20
 7047 29a8 3327      		clr r19
 7048 29aa 2227      		clr r18
 7049 29ac F701      		movw r30,r14
 7050 29ae 8291      		ld r24,-Z
 7051 29b0 7F01      		movw r14,r30
 7052 29b2 90E0      		ldi r25,lo8(0)
 7053 29b4 A0E0      		ldi r26,lo8(0)
 7054 29b6 B0E0      		ldi r27,hi8(0)
 7055 29b8 DC01      		movw r26,r24
 7056 29ba 9927      		clr r25
 7057 29bc 8827      		clr r24
 7058 29be 282B      		or r18,r24
 7059 29c0 392B      		or r19,r25
 7060 29c2 4A2B      		or r20,r26
 7061 29c4 5B2B      		or r21,r27
 7062 29c6 6EEF      		ldi r22,lo8(-2)
 7063 29c8 7FEF      		ldi r23,hi8(-2)
 7064 29ca E60E      		add r14,r22
 7065 29cc F71E      		adc r15,r23
 7066 29ce D701      		movw r26,r14
 7067 29d0 8D91      		ld r24,X+
 7068 29d2 7D01      		movw r14,r26
 7069 29d4 90E0      		ldi r25,lo8(0)
 7070 29d6 A0E0      		ldi r26,lo8(0)
 7071 29d8 B0E0      		ldi r27,hi8(0)
 7072 29da 282B      		or r18,r24
 7073 29dc 392B      		or r19,r25
 7074 29de 4A2B      		or r20,r26
 7075 29e0 5B2B      		or r21,r27
 7076 29e2 F701      		movw r30,r14
 7077 29e4 9081      		ld r25,Z
 7078 29e6 6DEE      		ldi r22,lo8(-531)
 7079 29e8 7DEF      		ldi r23,hi8(-531)
 7080 29ea E60E      		add r14,r22
 7081 29ec F71E      		adc r15,r23
 7082 29ee 80E0      		ldi r24,lo8(0)
 7083 29f0 A0E0      		ldi r26,lo8(0)
 7084 29f2 B0E0      		ldi r27,hi8(0)
 7085 29f4 282B      		or r18,r24
 7086 29f6 392B      		or r19,r25
 7087 29f8 4A2B      		or r20,r26
 7088 29fa 5B2B      		or r21,r27
 7089 29fc 2257      		subi r18,lo8(1631679090)
 7090 29fe 3247      		sbci r19,hi8(1631679090)
 7091 2a00 4144      		sbci r20,hlo8(1631679090)
 7092 2a02 5146      		sbci r21,hhi8(1631679090)
 7093 2a04 01F0      		breq .+2
 7094 2a06 00C0      		rjmp .L374
 7095               	.LM592:
 7096 2a08 8DE1      		ldi r24,lo8(541)
 7097 2a0a 92E0      		ldi r25,hi8(541)
 7098 2a0c E80E      		add r14,r24
 7099 2a0e F91E      		adc r15,r25
 7100 2a10 D701      		movw r26,r14
 7101 2a12 2C91      		ld r18,X
 7102 2a14 30E0      		ldi r19,lo8(0)
 7103 2a16 40E0      		ldi r20,lo8(0)
 7104 2a18 50E0      		ldi r21,hi8(0)
 7105 2a1a 522F      		mov r21,r18
 7106 2a1c 4427      		clr r20
 7107 2a1e 3327      		clr r19
 7108 2a20 2227      		clr r18
 7109 2a22 F701      		movw r30,r14
 7110 2a24 8291      		ld r24,-Z
 7111 2a26 7F01      		movw r14,r30
 7112 2a28 90E0      		ldi r25,lo8(0)
 7113 2a2a A0E0      		ldi r26,lo8(0)
 7114 2a2c B0E0      		ldi r27,hi8(0)
 7115 2a2e DC01      		movw r26,r24
 7116 2a30 9927      		clr r25
 7117 2a32 8827      		clr r24
 7118 2a34 282B      		or r18,r24
 7119 2a36 392B      		or r19,r25
 7120 2a38 4A2B      		or r20,r26
 7121 2a3a 5B2B      		or r21,r27
 7122 2a3c 6EEF      		ldi r22,lo8(-2)
 7123 2a3e 7FEF      		ldi r23,hi8(-2)
 7124 2a40 E60E      		add r14,r22
 7125 2a42 F71E      		adc r15,r23
 7126 2a44 D701      		movw r26,r14
 7127 2a46 8D91      		ld r24,X+
 7128 2a48 7D01      		movw r14,r26
 7129 2a4a 90E0      		ldi r25,lo8(0)
 7130 2a4c A0E0      		ldi r26,lo8(0)
 7131 2a4e B0E0      		ldi r27,hi8(0)
 7132 2a50 282B      		or r18,r24
 7133 2a52 392B      		or r19,r25
 7134 2a54 4A2B      		or r20,r26
 7135 2a56 5B2B      		or r21,r27
 7136 2a58 F701      		movw r30,r14
 7137 2a5a 9081      		ld r25,Z
 7138 2a5c 65EE      		ldi r22,lo8(-539)
 7139 2a5e 7DEF      		ldi r23,hi8(-539)
 7140 2a60 E60E      		add r14,r22
 7141 2a62 F71E      		adc r15,r23
 7142 2a64 80E0      		ldi r24,lo8(0)
 7143 2a66 A0E0      		ldi r26,lo8(0)
 7144 2a68 B0E0      		ldi r27,hi8(0)
 7145 2a6a 282B      		or r18,r24
 7146 2a6c 392B      		or r19,r25
 7147 2a6e 4A2B      		or r20,r26
 7148 2a70 5B2B      		or r21,r27
 7149 2a72 D701      		movw r26,r14
 7150 2a74 1A96      		adiw r26,10
 7151 2a76 2D93      		st X+,r18
 7152 2a78 3D93      		st X+,r19
 7153 2a7a 4D93      		st X+,r20
 7154 2a7c 5C93      		st X,r21
 7155 2a7e 1D97      		sbiw r26,10+3
 7156               	.LM593:
 7157 2a80 E9E1      		ldi r30,lo8(537)
 7158 2a82 F2E0      		ldi r31,hi8(537)
 7159 2a84 EE0E      		add r14,r30
 7160 2a86 FF1E      		adc r15,r31
 7161 2a88 D701      		movw r26,r14
 7162 2a8a 2C91      		ld r18,X
 7163 2a8c 30E0      		ldi r19,lo8(0)
 7164 2a8e 40E0      		ldi r20,lo8(0)
 7165 2a90 50E0      		ldi r21,hi8(0)
 7166 2a92 522F      		mov r21,r18
 7167 2a94 4427      		clr r20
 7168 2a96 3327      		clr r19
 7169 2a98 2227      		clr r18
 7170 2a9a F701      		movw r30,r14
 7171 2a9c 8291      		ld r24,-Z
 7172 2a9e 7F01      		movw r14,r30
 7173 2aa0 90E0      		ldi r25,lo8(0)
 7174 2aa2 A0E0      		ldi r26,lo8(0)
 7175 2aa4 B0E0      		ldi r27,hi8(0)
 7176 2aa6 DC01      		movw r26,r24
 7177 2aa8 9927      		clr r25
 7178 2aaa 8827      		clr r24
 7179 2aac 282B      		or r18,r24
 7180 2aae 392B      		or r19,r25
 7181 2ab0 4A2B      		or r20,r26
 7182 2ab2 5B2B      		or r21,r27
 7183 2ab4 6EEF      		ldi r22,lo8(-2)
 7184 2ab6 7FEF      		ldi r23,hi8(-2)
 7185 2ab8 E60E      		add r14,r22
 7186 2aba F71E      		adc r15,r23
 7187 2abc D701      		movw r26,r14
 7188 2abe 8D91      		ld r24,X+
 7189 2ac0 7D01      		movw r14,r26
 7190 2ac2 90E0      		ldi r25,lo8(0)
 7191 2ac4 A0E0      		ldi r26,lo8(0)
 7192 2ac6 B0E0      		ldi r27,hi8(0)
 7193 2ac8 282B      		or r18,r24
 7194 2aca 392B      		or r19,r25
 7195 2acc 4A2B      		or r20,r26
 7196 2ace 5B2B      		or r21,r27
 7197 2ad0 F701      		movw r30,r14
 7198 2ad2 9081      		ld r25,Z
 7199 2ad4 69EE      		ldi r22,lo8(-535)
 7200 2ad6 7DEF      		ldi r23,hi8(-535)
 7201 2ad8 E60E      		add r14,r22
 7202 2ada F71E      		adc r15,r23
 7203 2adc 80E0      		ldi r24,lo8(0)
 7204 2ade A0E0      		ldi r26,lo8(0)
 7205 2ae0 B0E0      		ldi r27,hi8(0)
 7206 2ae2 282B      		or r18,r24
 7207 2ae4 392B      		or r19,r25
 7208 2ae6 4A2B      		or r20,r26
 7209 2ae8 5B2B      		or r21,r27
 7210 2aea D701      		movw r26,r14
 7211 2aec 1E96      		adiw r26,14
 7212 2aee 2D93      		st X+,r18
 7213 2af0 3D93      		st X+,r19
 7214 2af2 4D93      		st X+,r20
 7215 2af4 5C93      		st X,r21
 7216 2af6 5197      		sbiw r26,14+3
 7217 2af8 00C0      		rjmp .L374
 7218               	.LVL643:
 7219               	.L386:
 7220               	.LM594:
 7221 2afa 12E0      		ldi r17,lo8(2)
 7222               	.LVL644:
 7223 2afc 00C0      		rjmp .L369
 7224               	.LFE22:
 7226               	.global	f_opendir
 7228               	f_opendir:
 7229               	.LFB31:
 7230               	.LM595:
 7231               	.LVL645:
 7232 2afe 0F93      		push r16
 7233 2b00 1F93      		push r17
 7234 2b02 DF93      		push r29
 7235 2b04 CF93      		push r28
 7236 2b06 CDB7      		in r28,__SP_L__
 7237 2b08 DEB7      		in r29,__SP_H__
 7238 2b0a 2E97      		sbiw r28,14
 7239 2b0c 0FB6      		in __tmp_reg__,__SREG__
 7240 2b0e F894      		cli
 7241 2b10 DEBF      		out __SP_H__,r29
 7242 2b12 0FBE      		out __SREG__,__tmp_reg__
 7243 2b14 CDBF      		out __SP_L__,r28
 7244               	/* prologue: function */
 7245               	/* frame size = 14 */
 7246 2b16 8C01      		movw r16,r24
 7247 2b18 7E87      		std Y+14,r23
 7248 2b1a 6D87      		std Y+13,r22
 7249               	.LM596:
 7250 2b1c CE01      		movw r24,r28
 7251               	.LVL646:
 7252 2b1e 0D96      		adiw r24,13
 7253 2b20 B801      		movw r22,r16
 7254               	.LVL647:
 7255 2b22 40E0      		ldi r20,lo8(0)
 7256 2b24 0E94 0000 		call chk_mounted
 7257               	.LM597:
 7258 2b28 8823      		tst r24
 7259               	.LVL648:
 7260 2b2a 01F0      		breq .L396
 7261               	.L390:
 7262               	.LVL649:
 7263               	/* epilogue start */
 7264               	.LM598:
 7265 2b2c 2E96      		adiw r28,14
 7266 2b2e 0FB6      		in __tmp_reg__,__SREG__
 7267 2b30 F894      		cli
 7268 2b32 DEBF      		out __SP_H__,r29
 7269 2b34 0FBE      		out __SREG__,__tmp_reg__
 7270 2b36 CDBF      		out __SP_L__,r28
 7271 2b38 CF91      		pop r28
 7272 2b3a DF91      		pop r29
 7273 2b3c 1F91      		pop r17
 7274 2b3e 0F91      		pop r16
 7275               	.LVL650:
 7276 2b40 0895      		ret
 7277               	.LVL651:
 7278               	.L396:
 7279               	.LM599:
 7280 2b42 CE01      		movw r24,r28
 7281               	.LVL652:
 7282 2b44 0196      		adiw r24,1
 7283 2b46 D801      		movw r26,r16
 7284 2b48 5596      		adiw r26,20+1
 7285 2b4a 9C93      		st X,r25
 7286 2b4c 8E93      		st -X,r24
 7287 2b4e 5497      		sbiw r26,20
 7288               	.LM600:
 7289 2b50 6D85      		ldd r22,Y+13
 7290 2b52 7E85      		ldd r23,Y+14
 7291 2b54 C801      		movw r24,r16
 7292 2b56 0E94 0000 		call follow_path
 7293               	.LM601:
 7294 2b5a 8823      		tst r24
 7295               	.LVL653:
 7296 2b5c 01F4      		brne .L391
 7297               	.LM602:
 7298 2b5e D801      		movw r26,r16
 7299 2b60 5296      		adiw r26,18
 7300 2b62 ED91      		ld r30,X+
 7301 2b64 FC91      		ld r31,X
 7302 2b66 5397      		sbiw r26,18+1
 7303 2b68 3097      		sbiw r30,0
 7304 2b6a 01F0      		breq .L392
 7305               	.LM603:
 7306 2b6c 8385      		ldd r24,Z+11
 7307               	.LVL654:
 7308 2b6e 84FF      		sbrs r24,4
 7309 2b70 00C0      		rjmp .L395
 7310               	.LM604:
 7311 2b72 3589      		ldd r19,Z+21
 7312 2b74 20E0      		ldi r18,lo8(0)
 7313 2b76 8489      		ldd r24,Z+20
 7314 2b78 90E0      		ldi r25,lo8(0)
 7315 2b7a 282B      		or r18,r24
 7316 2b7c 392B      		or r19,r25
 7317 2b7e 40E0      		ldi r20,lo8(0)
 7318 2b80 50E0      		ldi r21,hi8(0)
 7319 2b82 A901      		movw r20,r18
 7320 2b84 3327      		clr r19
 7321 2b86 2227      		clr r18
 7322 2b88 938D      		ldd r25,Z+27
 7323 2b8a 80E0      		ldi r24,lo8(0)
 7324 2b8c 628D      		ldd r22,Z+26
 7325 2b8e 70E0      		ldi r23,lo8(0)
 7326 2b90 862B      		or r24,r22
 7327 2b92 972B      		or r25,r23
 7328 2b94 A0E0      		ldi r26,lo8(0)
 7329 2b96 B0E0      		ldi r27,hi8(0)
 7330 2b98 282B      		or r18,r24
 7331 2b9a 392B      		or r19,r25
 7332 2b9c 4A2B      		or r20,r26
 7333 2b9e 5B2B      		or r21,r27
 7334 2ba0 F801      		movw r30,r16
 7335 2ba2 2683      		std Z+6,r18
 7336 2ba4 3783      		std Z+7,r19
 7337 2ba6 4087      		std Z+8,r20
 7338 2ba8 5187      		std Z+9,r21
 7339               	.LVL655:
 7340               	.L392:
 7341               	.LM605:
 7342 2baa D801      		movw r26,r16
 7343 2bac ED91      		ld r30,X+
 7344 2bae FC91      		ld r31,X
 7345 2bb0 1197      		sbiw r26,1
 7346 2bb2 8681      		ldd r24,Z+6
 7347 2bb4 9781      		ldd r25,Z+7
 7348               	.LVL656:
 7349 2bb6 1396      		adiw r26,2+1
 7350 2bb8 9C93      		st X,r25
 7351 2bba 8E93      		st -X,r24
 7352 2bbc 1297      		sbiw r26,2
 7353               	.LM606:
 7354 2bbe C801      		movw r24,r16
 7355 2bc0 60E0      		ldi r22,lo8(0)
 7356 2bc2 70E0      		ldi r23,hi8(0)
 7357 2bc4 0E94 0000 		call dir_sdi
 7358               	.LVL657:
 7359               	.L391:
 7360               	.LM607:
 7361 2bc8 8430      		cpi r24,lo8(4)
 7362 2bca 01F0      		breq .+2
 7363 2bcc 00C0      		rjmp .L390
 7364               	.L395:
 7365 2bce 85E0      		ldi r24,lo8(5)
 7366 2bd0 00C0      		rjmp .L390
 7367               	.LFE31:
 7369               	.global	f_open
 7371               	f_open:
 7372               	.LFB25:
 7373               	.LM608:
 7374               	.LVL658:
 7375 2bd2 2F92      		push r2
 7376 2bd4 3F92      		push r3
 7377 2bd6 4F92      		push r4
 7378 2bd8 5F92      		push r5
 7379 2bda 6F92      		push r6
 7380 2bdc 7F92      		push r7
 7381 2bde 8F92      		push r8
 7382 2be0 9F92      		push r9
 7383 2be2 AF92      		push r10
 7384 2be4 BF92      		push r11
 7385 2be6 CF92      		push r12
 7386 2be8 DF92      		push r13
 7387 2bea EF92      		push r14
 7388 2bec FF92      		push r15
 7389 2bee 0F93      		push r16
 7390 2bf0 1F93      		push r17
 7391 2bf2 DF93      		push r29
 7392 2bf4 CF93      		push r28
 7393 2bf6 CDB7      		in r28,__SP_L__
 7394 2bf8 DEB7      		in r29,__SP_H__
 7395 2bfa AD97      		sbiw r28,45
 7396 2bfc 0FB6      		in __tmp_reg__,__SREG__
 7397 2bfe F894      		cli
 7398 2c00 DEBF      		out __SP_H__,r29
 7399 2c02 0FBE      		out __SREG__,__tmp_reg__
 7400 2c04 CDBF      		out __SP_L__,r28
 7401               	/* prologue: function */
 7402               	/* frame size = 45 */
 7403 2c06 2C01      		movw r4,r24
 7404 2c08 7CA3      		std Y+36,r23
 7405 2c0a 6BA3      		std Y+35,r22
 7406               	.LM609:
 7407 2c0c DC01      		movw r26,r24
 7408 2c0e 1D92      		st X+,__zero_reg__
 7409 2c10 1C92      		st X,__zero_reg__
 7410               	.LM610:
 7411 2c12 EFE1      		ldi r30,lo8(31)
 7412 2c14 3E2E      		mov r3,r30
 7413               	.LVL659:
 7414 2c16 3422      		and r3,r20
 7415               	.LM611:
 7416 2c18 7DE0      		ldi r23,lo8(13)
 7417 2c1a E72E      		mov r14,r23
 7418 2c1c F12C      		mov r15,__zero_reg__
 7419 2c1e EC0E      		add r14,r28
 7420 2c20 FD1E      		adc r15,r29
 7421 2c22 4E71      		andi r20,lo8(30)
 7422               	.LVL660:
 7423 2c24 CE01      		movw r24,r28
 7424               	.LVL661:
 7425 2c26 8396      		adiw r24,35
 7426 2c28 B701      		movw r22,r14
 7427               	.LVL662:
 7428 2c2a 0E94 0000 		call chk_mounted
 7429               	.LVL663:
 7430 2c2e 182F      		mov r17,r24
 7431               	.LVL664:
 7432               	.LM612:
 7433 2c30 CE01      		movw r24,r28
 7434 2c32 0196      		adiw r24,1
 7435 2c34 9AA3      		std Y+34,r25
 7436 2c36 89A3      		std Y+33,r24
 7437               	.LM613:
 7438 2c38 1123      		tst r17
 7439 2c3a 01F0      		breq .L429
 7440               	.LM614:
 7441 2c3c AF8C      		ldd r10,Y+31
 7442 2c3e B8A0      		ldd r11,Y+32
 7443               	.LVL665:
 7444               	.L399:
 7445               	.LM615:
 7446 2c40 632C      		mov r6,r3
 7447               	.LVL666:
 7448 2c42 7724      		clr r7
 7449               	.LVL667:
 7450 2c44 C301      		movw r24,r6
 7451 2c46 8C71      		andi r24,lo8(28)
 7452 2c48 9070      		andi r25,hi8(28)
 7453 2c4a 892B      		or r24,r25
 7454 2c4c 01F0      		breq .L400
 7455               	.LVL668:
 7456               	.LBB141:
 7457               	.LM616:
 7458 2c4e 1123      		tst r17
 7459 2c50 01F0      		breq .L401
 7460               	.LM617:
 7461 2c52 1430      		cpi r17,lo8(4)
 7462 2c54 01F4      		brne .+2
 7463 2c56 00C0      		rjmp .L430
 7464               	.LVL669:
 7465               	.L402:
 7466               	.LBE141:
 7467               	.LM618:
 7468 2c58 812F      		mov r24,r17
 7469               	/* epilogue start */
 7470 2c5a AD96      		adiw r28,45
 7471 2c5c 0FB6      		in __tmp_reg__,__SREG__
 7472 2c5e F894      		cli
 7473 2c60 DEBF      		out __SP_H__,r29
 7474 2c62 0FBE      		out __SREG__,__tmp_reg__
 7475 2c64 CDBF      		out __SP_L__,r28
 7476 2c66 CF91      		pop r28
 7477 2c68 DF91      		pop r29
 7478 2c6a 1F91      		pop r17
 7479               	.LVL670:
 7480 2c6c 0F91      		pop r16
 7481 2c6e FF90      		pop r15
 7482 2c70 EF90      		pop r14
 7483 2c72 DF90      		pop r13
 7484 2c74 CF90      		pop r12
 7485               	.LVL671:
 7486 2c76 BF90      		pop r11
 7487 2c78 AF90      		pop r10
 7488               	.LVL672:
 7489 2c7a 9F90      		pop r9
 7490 2c7c 8F90      		pop r8
 7491 2c7e 7F90      		pop r7
 7492               	.LVL673:
 7493 2c80 6F90      		pop r6
 7494               	.LVL674:
 7495 2c82 5F90      		pop r5
 7496 2c84 4F90      		pop r4
 7497               	.LVL675:
 7498 2c86 3F90      		pop r3
 7499               	.LVL676:
 7500 2c88 2F90      		pop r2
 7501               	.LVL677:
 7502 2c8a 0895      		ret
 7503               	.LVL678:
 7504               	.L400:
 7505               	.LM619:
 7506 2c8c 1123      		tst r17
 7507 2c8e 01F4      		brne .L402
 7508               	.LM620:
 7509 2c90 D501      		movw r26,r10
 7510 2c92 1B96      		adiw r26,11
 7511 2c94 8C91      		ld r24,X
 7512 2c96 84FD      		sbrc r24,4
 7513 2c98 00C0      		rjmp .L431
 7514               	.LM621:
 7515 2c9a 31FE      		sbrs r3,1
 7516 2c9c 00C0      		rjmp .L422
 7517               	.LVL679:
 7518 2c9e 80FF      		sbrs r24,0
 7519 2ca0 00C0      		rjmp .L422
 7520               	.L409:
 7521               	.LM622:
 7522 2ca2 17E0      		ldi r17,lo8(7)
 7523 2ca4 00C0      		rjmp .L402
 7524               	.LVL680:
 7525               	.L401:
 7526               	.LBB156:
 7527               	.LM623:
 7528 2ca6 32FE      		sbrs r3,2
 7529 2ca8 00C0      		rjmp .L408
 7530               	.LVL681:
 7531 2caa 18E0      		ldi r17,lo8(8)
 7532 2cac 00C0      		rjmp .L402
 7533               	.LVL682:
 7534               	.L429:
 7535               	.LBE156:
 7536               	.LM624:
 7537 2cae 6BA1      		ldd r22,Y+35
 7538 2cb0 7CA1      		ldd r23,Y+36
 7539 2cb2 C701      		movw r24,r14
 7540 2cb4 0E94 0000 		call follow_path
 7541 2cb8 182F      		mov r17,r24
 7542               	.LM625:
 7543 2cba AF8C      		ldd r10,Y+31
 7544 2cbc B8A0      		ldd r11,Y+32
 7545               	.LVL683:
 7546               	.LM626:
 7547 2cbe 8823      		tst r24
 7548 2cc0 01F0      		breq .+2
 7549 2cc2 00C0      		rjmp .L399
 7550               	.LVL684:
 7551               	.LM627:
 7552 2cc4 A114      		cp r10,__zero_reg__
 7553 2cc6 B104      		cpc r11,__zero_reg__
 7554 2cc8 01F0      		breq .+2
 7555 2cca 00C0      		rjmp .L399
 7556 2ccc 16E0      		ldi r17,lo8(6)
 7557               	.LVL685:
 7558 2cce 00C0      		rjmp .L399
 7559               	.LVL686:
 7560               	.L431:
 7561               	.LM628:
 7562 2cd0 14E0      		ldi r17,lo8(4)
 7563 2cd2 00C0      		rjmp .L402
 7564               	.LVL687:
 7565               	.L408:
 7566               	.LBB157:
 7567               	.LM629:
 7568 2cd4 D501      		movw r26,r10
 7569 2cd6 1B96      		adiw r26,11
 7570 2cd8 8C91      		ld r24,X
 7571 2cda 8171      		andi r24,lo8(17)
 7572 2cdc 01F4      		brne .L409
 7573               	.LVL688:
 7574               	.L407:
 7575               	.LM630:
 7576 2cde 68E0      		ldi r22,lo8(8)
 7577 2ce0 E62E      		mov r14,r22
 7578 2ce2 F12C      		mov r15,__zero_reg__
 7579 2ce4 E620      		and r14,r6
 7580 2ce6 F720      		and r15,r7
 7581 2ce8 63FC      		sbrc r6,3
 7582 2cea 00C0      		rjmp .L432
 7583               	.LVL689:
 7584               	.LBE157:
 7585               	.LM631:
 7586 2cec 8D84      		ldd r8,Y+13
 7587 2cee 9E84      		ldd r9,Y+14
 7588               	.LVL690:
 7589               	.L411:
 7590 2cf0 10E0      		ldi r17,lo8(0)
 7591               	.LVL691:
 7592               	.L419:
 7593               	.LM632:
 7594 2cf2 EF28      		or r14,r15
 7595 2cf4 01F0      		breq .L421
 7596               	.LM633:
 7597 2cf6 B0E2      		ldi r27,lo8(32)
 7598 2cf8 3B2A      		or r3,r27
 7599               	.LVL692:
 7600               	.L421:
 7601               	.LM634:
 7602 2cfa F401      		movw r30,r8
 7603 2cfc 82A5      		ldd r24,Z+42
 7604 2cfe 93A5      		ldd r25,Z+43
 7605 2d00 A4A5      		ldd r26,Z+44
 7606 2d02 B5A5      		ldd r27,Z+45
 7607 2d04 F201      		movw r30,r4
 7608 2d06 828F      		std Z+26,r24
 7609 2d08 938F      		std Z+27,r25
 7610 2d0a A48F      		std Z+28,r26
 7611 2d0c B58F      		std Z+29,r27
 7612               	.LM635:
 7613 2d0e B78E      		std Z+31,r11
 7614 2d10 A68E      		std Z+30,r10
 7615               	.LM636:
 7616 2d12 3482      		std Z+4,r3
 7617               	.LM637:
 7618 2d14 D501      		movw r26,r10
 7619               	.LVL693:
 7620 2d16 5596      		adiw r26,21
 7621 2d18 3C91      		ld r19,X
 7622 2d1a 5597      		sbiw r26,21
 7623 2d1c 20E0      		ldi r18,lo8(0)
 7624               	.LVL694:
 7625 2d1e 5496      		adiw r26,20
 7626 2d20 8C91      		ld r24,X
 7627 2d22 5497      		sbiw r26,20
 7628 2d24 90E0      		ldi r25,lo8(0)
 7629               	.LVL695:
 7630 2d26 282B      		or r18,r24
 7631 2d28 392B      		or r19,r25
 7632 2d2a 40E0      		ldi r20,lo8(0)
 7633 2d2c 50E0      		ldi r21,hi8(0)
 7634 2d2e A901      		movw r20,r18
 7635 2d30 3327      		clr r19
 7636 2d32 2227      		clr r18
 7637 2d34 5B96      		adiw r26,27
 7638 2d36 9C91      		ld r25,X
 7639 2d38 5B97      		sbiw r26,27
 7640 2d3a 80E0      		ldi r24,lo8(0)
 7641 2d3c 5A96      		adiw r26,26
 7642 2d3e 6C91      		ld r22,X
 7643 2d40 70E0      		ldi r23,lo8(0)
 7644 2d42 862B      		or r24,r22
 7645 2d44 972B      		or r25,r23
 7646 2d46 A0E0      		ldi r26,lo8(0)
 7647 2d48 B0E0      		ldi r27,hi8(0)
 7648 2d4a 282B      		or r18,r24
 7649 2d4c 392B      		or r19,r25
 7650 2d4e 4A2B      		or r20,r26
 7651 2d50 5B2B      		or r21,r27
 7652 2d52 2687      		std Z+14,r18
 7653 2d54 3787      		std Z+15,r19
 7654 2d56 408B      		std Z+16,r20
 7655 2d58 518B      		std Z+17,r21
 7656               	.LM638:
 7657 2d5a D501      		movw r26,r10
 7658 2d5c 5F96      		adiw r26,31
 7659 2d5e 2C91      		ld r18,X
 7660 2d60 5F97      		sbiw r26,31
 7661 2d62 30E0      		ldi r19,lo8(0)
 7662 2d64 40E0      		ldi r20,lo8(0)
 7663 2d66 50E0      		ldi r21,hi8(0)
 7664 2d68 522F      		mov r21,r18
 7665 2d6a 4427      		clr r20
 7666 2d6c 3327      		clr r19
 7667 2d6e 2227      		clr r18
 7668 2d70 5E96      		adiw r26,30
 7669 2d72 8C91      		ld r24,X
 7670 2d74 90E0      		ldi r25,lo8(0)
 7671 2d76 A0E0      		ldi r26,lo8(0)
 7672 2d78 B0E0      		ldi r27,hi8(0)
 7673 2d7a DC01      		movw r26,r24
 7674 2d7c 9927      		clr r25
 7675 2d7e 8827      		clr r24
 7676 2d80 282B      		or r18,r24
 7677 2d82 392B      		or r19,r25
 7678 2d84 4A2B      		or r20,r26
 7679 2d86 5B2B      		or r21,r27
 7680 2d88 F501      		movw r30,r10
 7681 2d8a 848D      		ldd r24,Z+28
 7682 2d8c 90E0      		ldi r25,lo8(0)
 7683 2d8e A0E0      		ldi r26,lo8(0)
 7684 2d90 B0E0      		ldi r27,hi8(0)
 7685 2d92 282B      		or r18,r24
 7686 2d94 392B      		or r19,r25
 7687 2d96 4A2B      		or r20,r26
 7688 2d98 5B2B      		or r21,r27
 7689 2d9a 958D      		ldd r25,Z+29
 7690 2d9c 80E0      		ldi r24,lo8(0)
 7691 2d9e A0E0      		ldi r26,lo8(0)
 7692 2da0 B0E0      		ldi r27,hi8(0)
 7693 2da2 282B      		or r18,r24
 7694 2da4 392B      		or r19,r25
 7695 2da6 4A2B      		or r20,r26
 7696 2da8 5B2B      		or r21,r27
 7697 2daa D201      		movw r26,r4
 7698 2dac 1A96      		adiw r26,10
 7699 2dae 2D93      		st X+,r18
 7700 2db0 3D93      		st X+,r19
 7701 2db2 4D93      		st X+,r20
 7702 2db4 5C93      		st X,r21
 7703 2db6 1D97      		sbiw r26,10+3
 7704               	.LM639:
 7705 2db8 F201      		movw r30,r4
 7706 2dba 1682      		std Z+6,__zero_reg__
 7707 2dbc 1782      		std Z+7,__zero_reg__
 7708 2dbe 1086      		std Z+8,__zero_reg__
 7709 2dc0 1186      		std Z+9,__zero_reg__
 7710               	.LM640:
 7711 2dc2 5696      		adiw r26,22
 7712 2dc4 1D92      		st X+,__zero_reg__
 7713 2dc6 1D92      		st X+,__zero_reg__
 7714 2dc8 1D92      		st X+,__zero_reg__
 7715 2dca 1C92      		st X,__zero_reg__
 7716 2dcc 5997      		sbiw r26,22+3
 7717               	.LM641:
 7718 2dce 1196      		adiw r26,1
 7719 2dd0 9C92      		st X,r9
 7720 2dd2 8E92      		st -X,r8
 7721 2dd4 ED85      		ldd r30,Y+13
 7722 2dd6 FE85      		ldd r31,Y+14
 7723 2dd8 8681      		ldd r24,Z+6
 7724 2dda 9781      		ldd r25,Z+7
 7725 2ddc 1396      		adiw r26,2+1
 7726 2dde 9C93      		st X,r25
 7727 2de0 8E93      		st -X,r24
 7728 2de2 1297      		sbiw r26,2
 7729 2de4 00C0      		rjmp .L402
 7730               	.LVL696:
 7731               	.L432:
 7732               	.LBB158:
 7733               	.LM642:
 7734 2de6 0E94 0000 		call get_fattime
 7735               	.LVL697:
 7736               	.LM643:
 7737 2dea F501      		movw r30,r10
 7738 2dec 6687      		std Z+14,r22
 7739               	.LVL698:
 7740 2dee 272F      		mov r18,r23
 7741 2df0 3327      		clr r19
 7742 2df2 2787      		std Z+15,r18
 7743 2df4 9C01      		movw r18,r24
 7744 2df6 4427      		clr r20
 7745 2df8 5527      		clr r21
 7746 2dfa 208B      		std Z+16,r18
 7747 2dfc 692F      		mov r22,r25
 7748 2dfe 7727      		clr r23
 7749 2e00 8827      		clr r24
 7750 2e02 9927      		clr r25
 7751               	.LVL699:
 7752 2e04 618B      		std Z+17,r22
 7753               	.LM644:
 7754 2e06 1386      		std Z+11,__zero_reg__
 7755               	.LM645:
 7756 2e08 148E      		std Z+28,__zero_reg__
 7757 2e0a 158E      		std Z+29,__zero_reg__
 7758 2e0c 168E      		std Z+30,__zero_reg__
 7759 2e0e 178E      		std Z+31,__zero_reg__
 7760               	.LM646:
 7761 2e10 9589      		ldd r25,Z+21
 7762 2e12 80E0      		ldi r24,lo8(0)
 7763 2e14 2489      		ldd r18,Z+20
 7764 2e16 30E0      		ldi r19,lo8(0)
 7765 2e18 822B      		or r24,r18
 7766 2e1a 932B      		or r25,r19
 7767 2e1c A0E0      		ldi r26,lo8(0)
 7768 2e1e B0E0      		ldi r27,hi8(0)
 7769 2e20 AC01      		movw r20,r24
 7770 2e22 3327      		clr r19
 7771 2e24 2227      		clr r18
 7772 2e26 29A7      		std Y+41,r18
 7773 2e28 3AA7      		std Y+42,r19
 7774 2e2a 4BA7      		std Y+43,r20
 7775 2e2c 5CA7      		std Y+44,r21
 7776               	.LVL700:
 7777 2e2e 938D      		ldd r25,Z+27
 7778 2e30 80E0      		ldi r24,lo8(0)
 7779 2e32 228D      		ldd r18,Z+26
 7780 2e34 30E0      		ldi r19,lo8(0)
 7781 2e36 822B      		or r24,r18
 7782 2e38 932B      		or r25,r19
 7783 2e3a A0E0      		ldi r26,lo8(0)
 7784 2e3c B0E0      		ldi r27,hi8(0)
 7785 2e3e 29A5      		ldd r18,Y+41
 7786 2e40 3AA5      		ldd r19,Y+42
 7787 2e42 4BA5      		ldd r20,Y+43
 7788 2e44 5CA5      		ldd r21,Y+44
 7789 2e46 282B      		or r18,r24
 7790 2e48 392B      		or r19,r25
 7791 2e4a 4A2B      		or r20,r26
 7792 2e4c 5B2B      		or r21,r27
 7793 2e4e 29A7      		std Y+41,r18
 7794 2e50 3AA7      		std Y+42,r19
 7795 2e52 4BA7      		std Y+43,r20
 7796 2e54 5CA7      		std Y+44,r21
 7797               	.LVL701:
 7798               	.LM647:
 7799 2e56 128E      		std Z+26,__zero_reg__
 7800 2e58 138E      		std Z+27,__zero_reg__
 7801 2e5a 148A      		std Z+20,__zero_reg__
 7802 2e5c 158A      		std Z+21,__zero_reg__
 7803               	.LM648:
 7804 2e5e 8D84      		ldd r8,Y+13
 7805 2e60 9E84      		ldd r9,Y+14
 7806 2e62 81E0      		ldi r24,lo8(1)
 7807 2e64 D401      		movw r26,r8
 7808 2e66 1496      		adiw r26,4
 7809 2e68 8C93      		st X,r24
 7810 2e6a 1497      		sbiw r26,4
 7811               	.LM649:
 7812 2e6c 2115      		cp r18,__zero_reg__
 7813 2e6e 3105      		cpc r19,__zero_reg__
 7814 2e70 4105      		cpc r20,__zero_reg__
 7815 2e72 5105      		cpc r21,__zero_reg__
 7816 2e74 01F4      		brne .+2
 7817 2e76 00C0      		rjmp .L411
 7818               	.LM650:
 7819 2e78 9A96      		adiw r26,42
 7820 2e7a 2D91      		ld r18,X+
 7821 2e7c 3D91      		ld r19,X+
 7822 2e7e 4D91      		ld r20,X+
 7823 2e80 5C91      		ld r21,X
 7824 2e82 9D97      		sbiw r26,42+3
 7825 2e84 2DA3      		std Y+37,r18
 7826 2e86 3EA3      		std Y+38,r19
 7827 2e88 4FA3      		std Y+39,r20
 7828 2e8a 58A7      		std Y+40,r21
 7829               	.LVL702:
 7830               	.LBB151:
 7831               	.LBB152:
 7832               	.LM651:
 7833 2e8c 29A5      		ldd r18,Y+41
 7834 2e8e 3AA5      		ldd r19,Y+42
 7835 2e90 4BA5      		ldd r20,Y+43
 7836 2e92 5CA5      		ldd r21,Y+44
 7837 2e94 2130      		cpi r18,lo8(1)
 7838 2e96 3105      		cpc r19,__zero_reg__
 7839 2e98 4105      		cpc r20,__zero_reg__
 7840 2e9a 5105      		cpc r21,__zero_reg__
 7841 2e9c 01F4      		brne .+2
 7842 2e9e 00C0      		rjmp .L412
 7843 2ea0 5696      		adiw r26,22
 7844 2ea2 8D91      		ld r24,X+
 7845 2ea4 9D91      		ld r25,X+
 7846 2ea6 0D90      		ld __tmp_reg__,X+
 7847 2ea8 BC91      		ld r27,X
 7848 2eaa A02D      		mov r26,__tmp_reg__
 7849 2eac 2817      		cp r18,r24
 7850 2eae 3907      		cpc r19,r25
 7851 2eb0 4A07      		cpc r20,r26
 7852 2eb2 5B07      		cpc r21,r27
 7853 2eb4 00F0      		brlo .+2
 7854 2eb6 00C0      		rjmp .L412
 7855 2eb8 2DA7      		std Y+45,r18
 7856 2eba 2AA4      		ldd r2,Y+42
 7857               	.LVL703:
 7858 2ebc 0BA5      		ldd r16,Y+43
 7859               	.LVL704:
 7860 2ebe 1CA5      		ldd r17,Y+44
 7861               	.LVL705:
 7862 2ec0 00C0      		rjmp .L416
 7863               	.LVL706:
 7864               	.L433:
 7865               	.LM652:
 7866 2ec2 6130      		cpi r22,lo8(1)
 7867 2ec4 7105      		cpc r23,__zero_reg__
 7868 2ec6 8105      		cpc r24,__zero_reg__
 7869 2ec8 9105      		cpc r25,__zero_reg__
 7870 2eca 01F4      		brne .+2
 7871 2ecc 00C0      		rjmp .L412
 7872               	.LM653:
 7873 2ece 6F3F      		cpi r22,lo8(-1)
 7874 2ed0 4FEF      		ldi r20,hi8(-1)
 7875 2ed2 7407      		cpc r23,r20
 7876 2ed4 4FEF      		ldi r20,hlo8(-1)
 7877 2ed6 8407      		cpc r24,r20
 7878 2ed8 4FEF      		ldi r20,hhi8(-1)
 7879 2eda 9407      		cpc r25,r20
 7880 2edc 01F4      		brne .+2
 7881 2ede 00C0      		rjmp .L414
 7882               	.LBE152:
 7883               	.LM654:
 7884 2ee0 C401      		movw r24,r8
 7885 2ee2 4DA5      		ldd r20,Y+45
 7886 2ee4 522D      		mov r21,r2
 7887 2ee6 B801      		movw r22,r16
 7888               	.LVL707:
 7889 2ee8 00E0      		ldi r16,lo8(0)
 7890 2eea 10E0      		ldi r17,hi8(0)
 7891 2eec 20E0      		ldi r18,hlo8(0)
 7892 2eee 30E0      		ldi r19,hhi8(0)
 7893 2ef0 0E94 0000 		call put_fat
 7894 2ef4 182F      		mov r17,r24
 7895               	.LBB153:
 7896               	.LM655:
 7897 2ef6 8823      		tst r24
 7898 2ef8 01F0      		breq .+2
 7899 2efa 00C0      		rjmp .L402
 7900               	.LVL708:
 7901               	.LM656:
 7902 2efc F401      		movw r30,r8
 7903 2efe 8685      		ldd r24,Z+14
 7904 2f00 9785      		ldd r25,Z+15
 7905 2f02 A089      		ldd r26,Z+16
 7906 2f04 B189      		ldd r27,Z+17
 7907               	.LVL709:
 7908 2f06 8F3F      		cpi r24,lo8(-1)
 7909 2f08 FFEF      		ldi r31,hi8(-1)
 7910 2f0a 9F07      		cpc r25,r31
 7911 2f0c FFEF      		ldi r31,hlo8(-1)
 7912 2f0e AF07      		cpc r26,r31
 7913 2f10 FFEF      		ldi r31,hhi8(-1)
 7914 2f12 BF07      		cpc r27,r31
 7915 2f14 01F0      		breq .L415
 7916               	.LM657:
 7917 2f16 0196      		adiw r24,1
 7918 2f18 A11D      		adc r26,__zero_reg__
 7919 2f1a B11D      		adc r27,__zero_reg__
 7920 2f1c F401      		movw r30,r8
 7921 2f1e 8687      		std Z+14,r24
 7922 2f20 9787      		std Z+15,r25
 7923 2f22 A08B      		std Z+16,r26
 7924 2f24 B18B      		std Z+17,r27
 7925               	.LM658:
 7926 2f26 21E0      		ldi r18,lo8(1)
 7927 2f28 2583      		std Z+5,r18
 7928               	.L415:
 7929               	.LM659:
 7930 2f2a F401      		movw r30,r8
 7931 2f2c 8689      		ldd r24,Z+22
 7932 2f2e 9789      		ldd r25,Z+23
 7933 2f30 A08D      		ldd r26,Z+24
 7934 2f32 B18D      		ldd r27,Z+25
 7935 2f34 C816      		cp r12,r24
 7936 2f36 D906      		cpc r13,r25
 7937 2f38 EA06      		cpc r14,r26
 7938 2f3a FB06      		cpc r15,r27
 7939 2f3c 00F4      		brsh .L413
 7940 2f3e CDA6      		std Y+45,r12
 7941 2f40 2D2C      		mov r2,r13
 7942 2f42 8701      		movw r16,r14
 7943               	.LVL710:
 7944               	.L416:
 7945               	.LBE153:
 7946               	.LM660:
 7947 2f44 C401      		movw r24,r8
 7948 2f46 4DA5      		ldd r20,Y+45
 7949 2f48 522D      		mov r21,r2
 7950 2f4a B801      		movw r22,r16
 7951 2f4c 0E94 0000 		call get_fat
 7952 2f50 6B01      		movw r12,r22
 7953 2f52 7C01      		movw r14,r24
 7954               	.LBB154:
 7955               	.LM661:
 7956 2f54 6115      		cp r22,__zero_reg__
 7957 2f56 7105      		cpc r23,__zero_reg__
 7958 2f58 8105      		cpc r24,__zero_reg__
 7959 2f5a 9105      		cpc r25,__zero_reg__
 7960 2f5c 01F0      		breq .+2
 7961 2f5e 00C0      		rjmp .L433
 7962               	.L413:
 7963               	.LBE154:
 7964               	.LBE151:
 7965               	.LM662:
 7966 2f60 ED85      		ldd r30,Y+13
 7967 2f62 FE85      		ldd r31,Y+14
 7968 2f64 29A5      		ldd r18,Y+41
 7969 2f66 3AA5      		ldd r19,Y+42
 7970 2f68 4BA5      		ldd r20,Y+43
 7971 2f6a 5CA5      		ldd r21,Y+44
 7972 2f6c 2150      		subi r18,lo8(-(-1))
 7973 2f6e 3040      		sbci r19,hi8(-(-1))
 7974 2f70 4040      		sbci r20,hlo8(-(-1))
 7975 2f72 5040      		sbci r21,hhi8(-(-1))
 7976 2f74 2287      		std Z+10,r18
 7977 2f76 3387      		std Z+11,r19
 7978 2f78 4487      		std Z+12,r20
 7979 2f7a 5587      		std Z+13,r21
 7980               	.LM663:
 7981 2f7c CF01      		movw r24,r30
 7982 2f7e 4DA1      		ldd r20,Y+37
 7983 2f80 5EA1      		ldd r21,Y+38
 7984 2f82 6FA1      		ldd r22,Y+39
 7985 2f84 78A5      		ldd r23,Y+40
 7986 2f86 0E94 0000 		call move_window
 7987 2f8a 182F      		mov r17,r24
 7988               	.LBE158:
 7989               	.LM664:
 7990 2f8c 8823      		tst r24
 7991 2f8e 01F0      		breq .+2
 7992 2f90 00C0      		rjmp .L402
 7993               	.LVL711:
 7994               	.L422:
 7995               	.LM665:
 7996 2f92 88E0      		ldi r24,lo8(8)
 7997 2f94 E82E      		mov r14,r24
 7998 2f96 F12C      		mov r15,__zero_reg__
 7999 2f98 E620      		and r14,r6
 8000 2f9a F720      		and r15,r7
 8001 2f9c 8D84      		ldd r8,Y+13
 8002 2f9e 9E84      		ldd r9,Y+14
 8003 2fa0 00C0      		rjmp .L419
 8004               	.LVL712:
 8005               	.L430:
 8006               	.LBB159:
 8007               	.LBB142:
 8008               	.LM666:
 8009 2fa2 C701      		movw r24,r14
 8010 2fa4 60E0      		ldi r22,lo8(0)
 8011 2fa6 70E0      		ldi r23,hi8(0)
 8012 2fa8 0E94 0000 		call dir_sdi
 8013 2fac 182F      		mov r17,r24
 8014               	.LBB145:
 8015               	.LM667:
 8016 2fae 8823      		tst r24
 8017 2fb0 01F0      		breq .+2
 8018 2fb2 00C0      		rjmp .L402
 8019               	.LVL713:
 8020               	.L425:
 8021               	.LBE145:
 8022               	.LM668:
 8023 2fb4 4B8D      		ldd r20,Y+27
 8024 2fb6 5C8D      		ldd r21,Y+28
 8025 2fb8 6D8D      		ldd r22,Y+29
 8026 2fba 7E8D      		ldd r23,Y+30
 8027 2fbc 8D85      		ldd r24,Y+13
 8028 2fbe 9E85      		ldd r25,Y+14
 8029               	.LVL714:
 8030 2fc0 0E94 0000 		call move_window
 8031 2fc4 182F      		mov r17,r24
 8032               	.LBB144:
 8033               	.LM669:
 8034 2fc6 8823      		tst r24
 8035 2fc8 01F0      		breq .+2
 8036 2fca 00C0      		rjmp .L402
 8037               	.LVL715:
 8038               	.LM670:
 8039 2fcc EF8D      		ldd r30,Y+31
 8040 2fce F8A1      		ldd r31,Y+32
 8041 2fd0 E081      		ld r30,Z
 8042               	.LVL716:
 8043               	.LM671:
 8044 2fd2 E53E      		cpi r30,lo8(-27)
 8045 2fd4 01F0      		breq .L403
 8046 2fd6 EE23      		tst r30
 8047 2fd8 01F0      		breq .L403
 8048               	.LBE144:
 8049               	.LM672:
 8050 2fda C701      		movw r24,r14
 8051               	.LVL717:
 8052 2fdc 61E0      		ldi r22,lo8(1)
 8053 2fde 70E0      		ldi r23,hi8(1)
 8054 2fe0 0E94 0000 		call dir_next
 8055               	.LVL718:
 8056 2fe4 182F      		mov r17,r24
 8057               	.LBB143:
 8058               	.LM673:
 8059 2fe6 8823      		tst r24
 8060 2fe8 01F0      		breq .L425
 8061               	.LVL719:
 8062 2fea 00C0      		rjmp .L402
 8063               	.LVL720:
 8064               	.L412:
 8065               	.LBE143:
 8066               	.LBE142:
 8067               	.LBE159:
 8068               	.LM674:
 8069 2fec 12E0      		ldi r17,lo8(2)
 8070 2fee 00C0      		rjmp .L402
 8071               	.LVL721:
 8072               	.L403:
 8073               	.LBB160:
 8074               	.LBB155:
 8075               	.LM675:
 8076 2ff0 4B8D      		ldd r20,Y+27
 8077 2ff2 5C8D      		ldd r21,Y+28
 8078 2ff4 6D8D      		ldd r22,Y+29
 8079 2ff6 7E8D      		ldd r23,Y+30
 8080 2ff8 8D85      		ldd r24,Y+13
 8081 2ffa 9E85      		ldd r25,Y+14
 8082               	.LVL722:
 8083 2ffc 0E94 0000 		call move_window
 8084               	.LVL723:
 8085 3000 182F      		mov r17,r24
 8086               	.LBB150:
 8087               	.LM676:
 8088 3002 8823      		tst r24
 8089 3004 01F0      		breq .+2
 8090 3006 00C0      		rjmp .L402
 8091               	.LVL724:
 8092               	.LM677:
 8093 3008 AF8D      		ldd r26,Y+31
 8094 300a B8A1      		ldd r27,Y+32
 8095               	.LVL725:
 8096 300c FD01      		movw r30,r26
 8097 300e 8FE1      		ldi r24,lo8(31)
 8098 3010 90E0      		ldi r25,hi8(31)
 8099               	.LVL726:
 8100               	.L405:
 8101               	.LBB146:
 8102               	.LBB147:
 8103               	.LM678:
 8104 3012 1192      		st Z+,__zero_reg__
 8105               	.LM679:
 8106 3014 0197      		sbiw r24,1
 8107 3016 2FEF      		ldi r18,hi8(-1)
 8108 3018 8F3F      		cpi r24,lo8(-1)
 8109 301a 9207      		cpc r25,r18
 8110 301c 01F4      		brne .L405
 8111               	.LBE147:
 8112               	.LBE146:
 8113               	.LM680:
 8114 301e 89A1      		ldd r24,Y+33
 8115               	.LVL727:
 8116 3020 9AA1      		ldd r25,Y+34
 8117               	.LVL728:
 8118 3022 9C01      		movw r18,r24
 8119               	.LVL729:
 8120 3024 F901      		movw r30,r18
 8121               	.LVL730:
 8122 3026 2AE0      		ldi r18,lo8(10)
 8123 3028 30E0      		ldi r19,hi8(10)
 8124               	.LVL731:
 8125               	.L406:
 8126               	.LBB148:
 8127               	.LBB149:
 8128               	.LM681:
 8129 302a 8191      		ld r24,Z+
 8130 302c 8D93      		st X+,r24
 8131               	.LM682:
 8132 302e 2150      		subi r18,lo8(-(-1))
 8133 3030 3040      		sbci r19,hi8(-(-1))
 8134 3032 4FEF      		ldi r20,hi8(-1)
 8135 3034 2F3F      		cpi r18,lo8(-1)
 8136 3036 3407      		cpc r19,r20
 8137 3038 01F4      		brne .L406
 8138               	.LBE149:
 8139               	.LBE148:
 8140               	.LM683:
 8141 303a ED85      		ldd r30,Y+13
 8142 303c FE85      		ldd r31,Y+14
 8143               	.LVL732:
 8144 303e 81E0      		ldi r24,lo8(1)
 8145 3040 8483      		std Z+4,r24
 8146               	.LBE150:
 8147               	.LBE155:
 8148               	.LM684:
 8149 3042 58E0      		ldi r21,lo8(8)
 8150 3044 352A      		or r3,r21
 8151               	.LVL733:
 8152               	.LM685:
 8153 3046 AF8C      		ldd r10,Y+31
 8154 3048 B8A0      		ldd r11,Y+32
 8155 304a 632C      		mov r6,r3
 8156 304c 7724      		clr r7
 8157               	.LVL734:
 8158 304e 00C0      		rjmp .L407
 8159               	.LVL735:
 8160               	.L414:
 8161               	.LBE160:
 8162               	.LM686:
 8163 3050 11E0      		ldi r17,lo8(1)
 8164 3052 00C0      		rjmp .L402
 8165               	.LFE25:
 8167               	.global	f_sync
 8169               	f_sync:
 8170               	.LFB28:
 8171               	.LM687:
 8172               	.LVL736:
 8173 3054 0F93      		push r16
 8174 3056 1F93      		push r17
 8175 3058 CF93      		push r28
 8176 305a DF93      		push r29
 8177               	/* prologue: function */
 8178               	/* frame size = 0 */
 8179 305c EC01      		movw r28,r24
 8180               	.LM688:
 8181 305e 6A81      		ldd r22,Y+2
 8182 3060 7B81      		ldd r23,Y+3
 8183 3062 8881      		ld r24,Y
 8184 3064 9981      		ldd r25,Y+1
 8185               	.LVL737:
 8186 3066 0E94 0000 		call validate
 8187 306a 982F      		mov r25,r24
 8188               	.LVL738:
 8189               	.LM689:
 8190 306c 8823      		tst r24
 8191 306e 01F4      		brne .L435
 8192               	.LVL739:
 8193               	.LM690:
 8194 3070 8C81      		ldd r24,Y+4
 8195               	.LVL740:
 8196 3072 85FD      		sbrc r24,5
 8197 3074 00C0      		rjmp .L441
 8198               	.LVL741:
 8199               	.L435:
 8200               	.LM691:
 8201 3076 892F      		mov r24,r25
 8202               	/* epilogue start */
 8203 3078 DF91      		pop r29
 8204 307a CF91      		pop r28
 8205               	.LVL742:
 8206 307c 1F91      		pop r17
 8207 307e 0F91      		pop r16
 8208               	.LVL743:
 8209 3080 0895      		ret
 8210               	.LVL744:
 8211               	.L441:
 8212               	.LM692:
 8213 3082 4A8D      		ldd r20,Y+26
 8214 3084 5B8D      		ldd r21,Y+27
 8215 3086 6C8D      		ldd r22,Y+28
 8216 3088 7D8D      		ldd r23,Y+29
 8217 308a 8881      		ld r24,Y
 8218 308c 9981      		ldd r25,Y+1
 8219 308e 0E94 0000 		call move_window
 8220               	.LVL745:
 8221 3092 982F      		mov r25,r24
 8222               	.LVL746:
 8223               	.LM693:
 8224 3094 8823      		tst r24
 8225 3096 01F4      		brne .L435
 8226               	.LVL747:
 8227               	.LM694:
 8228 3098 0E8D      		ldd r16,Y+30
 8229 309a 1F8D      		ldd r17,Y+31
 8230               	.LVL748:
 8231               	.LM695:
 8232 309c F801      		movw r30,r16
 8233 309e 8385      		ldd r24,Z+11
 8234               	.LVL749:
 8235 30a0 8062      		ori r24,lo8(32)
 8236 30a2 8387      		std Z+11,r24
 8237               	.LM696:
 8238 30a4 8A85      		ldd r24,Y+10
 8239 30a6 848F      		std Z+28,r24
 8240 30a8 8B85      		ldd r24,Y+11
 8241 30aa 858F      		std Z+29,r24
 8242 30ac 8A85      		ldd r24,Y+10
 8243 30ae 9B85      		ldd r25,Y+11
 8244 30b0 AC85      		ldd r26,Y+12
 8245 30b2 BD85      		ldd r27,Y+13
 8246 30b4 CD01      		movw r24,r26
 8247 30b6 AA27      		clr r26
 8248 30b8 BB27      		clr r27
 8249 30ba 868F      		std Z+30,r24
 8250 30bc 8A85      		ldd r24,Y+10
 8251 30be 9B85      		ldd r25,Y+11
 8252 30c0 AC85      		ldd r26,Y+12
 8253 30c2 BD85      		ldd r27,Y+13
 8254 30c4 8B2F      		mov r24,r27
 8255 30c6 9927      		clr r25
 8256 30c8 AA27      		clr r26
 8257 30ca BB27      		clr r27
 8258 30cc 878F      		std Z+31,r24
 8259               	.LM697:
 8260 30ce 8E85      		ldd r24,Y+14
 8261 30d0 828F      		std Z+26,r24
 8262 30d2 8F85      		ldd r24,Y+15
 8263 30d4 838F      		std Z+27,r24
 8264 30d6 8E85      		ldd r24,Y+14
 8265 30d8 9F85      		ldd r25,Y+15
 8266 30da A889      		ldd r26,Y+16
 8267 30dc B989      		ldd r27,Y+17
 8268 30de CD01      		movw r24,r26
 8269 30e0 AA27      		clr r26
 8270 30e2 BB27      		clr r27
 8271 30e4 848B      		std Z+20,r24
 8272 30e6 8E85      		ldd r24,Y+14
 8273 30e8 9F85      		ldd r25,Y+15
 8274 30ea A889      		ldd r26,Y+16
 8275 30ec B989      		ldd r27,Y+17
 8276 30ee CD01      		movw r24,r26
 8277 30f0 AA27      		clr r26
 8278 30f2 BB27      		clr r27
 8279 30f4 892F      		mov r24,r25
 8280 30f6 9927      		clr r25
 8281 30f8 858B      		std Z+21,r24
 8282               	.LM698:
 8283 30fa 0E94 0000 		call get_fattime
 8284               	.LVL750:
 8285               	.LM699:
 8286 30fe F801      		movw r30,r16
 8287 3100 668B      		std Z+22,r22
 8288               	.LVL751:
 8289 3102 272F      		mov r18,r23
 8290 3104 3327      		clr r19
 8291 3106 278B      		std Z+23,r18
 8292 3108 9C01      		movw r18,r24
 8293 310a 4427      		clr r20
 8294 310c 5527      		clr r21
 8295 310e 208F      		std Z+24,r18
 8296 3110 692F      		mov r22,r25
 8297 3112 7727      		clr r23
 8298 3114 8827      		clr r24
 8299 3116 9927      		clr r25
 8300               	.LVL752:
 8301 3118 618F      		std Z+25,r22
 8302               	.LM700:
 8303 311a 8C81      		ldd r24,Y+4
 8304 311c 8F7D      		andi r24,lo8(-33)
 8305 311e 8C83      		std Y+4,r24
 8306               	.LM701:
 8307 3120 E881      		ld r30,Y
 8308 3122 F981      		ldd r31,Y+1
 8309 3124 81E0      		ldi r24,lo8(1)
 8310 3126 8483      		std Z+4,r24
 8311               	.LM702:
 8312 3128 0990      		ld __tmp_reg__,Y+
 8313 312a D881      		ld r29,Y
 8314 312c C02D      		mov r28,__tmp_reg__
 8315               	.LVL753:
 8316               	.LBB161:
 8317               	.LM703:
 8318 312e CE01      		movw r24,r28
 8319 3130 40E0      		ldi r20,lo8(0)
 8320 3132 50E0      		ldi r21,hi8(0)
 8321 3134 60E0      		ldi r22,hlo8(0)
 8322 3136 70E0      		ldi r23,hhi8(0)
 8323 3138 0E94 0000 		call move_window
 8324 313c 982F      		mov r25,r24
 8325               	.LVL754:
 8326               	.LBB162:
 8327               	.LM704:
 8328 313e 8823      		tst r24
 8329 3140 01F0      		breq .+2
 8330 3142 00C0      		rjmp .L435
 8331               	.LVL755:
 8332               	.LM705:
 8333 3144 8881      		ld r24,Y
 8334               	.LVL756:
 8335 3146 8330      		cpi r24,lo8(3)
 8336 3148 01F0      		breq .L442
 8337               	.L436:
 8338               	.LBE162:
 8339               	.LM706:
 8340 314a 8981      		ldd r24,Y+1
 8341 314c 60E0      		ldi r22,lo8(0)
 8342 314e 40E0      		ldi r20,lo8(0)
 8343 3150 50E0      		ldi r21,hi8(0)
 8344 3152 0E94 0000 		call disk_ioctl
 8345               	.LVL757:
 8346 3156 8111      		cpse r24,__zero_reg__
 8347 3158 81E0      		ldi r24,lo8(1)
 8348               	.L438:
 8349 315a 982F      		mov r25,r24
 8350               	.LVL758:
 8351 315c 00C0      		rjmp .L435
 8352               	.L442:
 8353               	.LBB165:
 8354               	.LM707:
 8355 315e 8D81      		ldd r24,Y+5
 8356 3160 8823      		tst r24
 8357 3162 01F0      		breq .L436
 8358               	.LM708:
 8359 3164 1AA6      		std Y+42,__zero_reg__
 8360 3166 1BA6      		std Y+43,__zero_reg__
 8361 3168 1CA6      		std Y+44,__zero_reg__
 8362 316a 1DA6      		std Y+45,__zero_reg__
 8363               	.LBB163:
 8364               	.LBB164:
 8365               	.LM709:
 8366 316c BE01      		movw r22,r28
 8367               	.LVL759:
 8368 316e 625D      		subi r22,lo8(-(46))
 8369 3170 7F4F      		sbci r23,hi8(-(46))
 8370 3172 FB01      		movw r30,r22
 8371 3174 8FEF      		ldi r24,lo8(511)
 8372 3176 91E0      		ldi r25,hi8(511)
 8373               	.LVL760:
 8374               	.L437:
 8375               	.LM710:
 8376 3178 1192      		st Z+,__zero_reg__
 8377               	.LM711:
 8378 317a 0197      		sbiw r24,1
 8379 317c 2FEF      		ldi r18,hi8(-1)
 8380 317e 8F3F      		cpi r24,lo8(-1)
 8381 3180 9207      		cpc r25,r18
 8382 3182 01F4      		brne .L437
 8383               	.LBE164:
 8384               	.LBE163:
 8385               	.LM712:
 8386 3184 C45D      		subi r28,lo8(-(556))
 8387 3186 DD4F      		sbci r29,hi8(-(556))
 8388 3188 85E5      		ldi r24,lo8(85)
 8389               	.LVL761:
 8390 318a 8993      		st Y+,r24
 8391 318c 8AEA      		ldi r24,lo8(-86)
 8392 318e 8883      		st Y,r24
 8393 3190 CD52      		subi r28,lo8(-(-557))
 8394 3192 D240      		sbci r29,hi8(-(-557))
 8395               	.LM713:
 8396 3194 82E5      		ldi r24,lo8(82)
 8397 3196 8EA7      		std Y+46,r24
 8398 3198 8FA7      		std Y+47,r24
 8399 319a 21E6      		ldi r18,lo8(97)
 8400 319c 28AB      		std Y+48,r18
 8401 319e 91E4      		ldi r25,lo8(65)
 8402               	.LVL762:
 8403 31a0 99AB      		std Y+49,r25
 8404               	.LM714:
 8405 31a2 CE5E      		subi r28,lo8(-(530))
 8406 31a4 DD4F      		sbci r29,hi8(-(530))
 8407 31a6 82E7      		ldi r24,lo8(114)
 8408 31a8 8993      		st Y+,r24
 8409 31aa 8993      		st Y+,r24
 8410 31ac 9993      		st Y+,r25
 8411 31ae 2883      		st Y,r18
 8412 31b0 C551      		subi r28,lo8(-(-533))
 8413 31b2 D240      		sbci r29,hi8(-(-533))
 8414               	.LM715:
 8415 31b4 8E85      		ldd r24,Y+14
 8416 31b6 CA5E      		subi r28,lo8(-(534))
 8417 31b8 DD4F      		sbci r29,hi8(-(534))
 8418 31ba 8883      		st Y,r24
 8419 31bc C651      		subi r28,lo8(-(-534))
 8420 31be D240      		sbci r29,hi8(-(-534))
 8421 31c0 8F85      		ldd r24,Y+15
 8422 31c2 C95E      		subi r28,lo8(-(535))
 8423 31c4 DD4F      		sbci r29,hi8(-(535))
 8424 31c6 8883      		st Y,r24
 8425 31c8 C751      		subi r28,lo8(-(-535))
 8426 31ca D240      		sbci r29,hi8(-(-535))
 8427 31cc 8E85      		ldd r24,Y+14
 8428 31ce 9F85      		ldd r25,Y+15
 8429 31d0 A889      		ldd r26,Y+16
 8430 31d2 B989      		ldd r27,Y+17
 8431 31d4 9D01      		movw r18,r26
 8432 31d6 4427      		clr r20
 8433 31d8 5527      		clr r21
 8434 31da C85E      		subi r28,lo8(-(536))
 8435 31dc DD4F      		sbci r29,hi8(-(536))
 8436 31de 2883      		st Y,r18
 8437 31e0 2196      		adiw r28,1
 8438 31e2 8B2F      		mov r24,r27
 8439 31e4 9927      		clr r25
 8440 31e6 AA27      		clr r26
 8441 31e8 BB27      		clr r27
 8442               	.LVL763:
 8443 31ea 8883      		st Y,r24
 8444 31ec C951      		subi r28,lo8(-(-537))
 8445 31ee D240      		sbci r29,hi8(-(-537))
 8446               	.LM716:
 8447 31f0 8A85      		ldd r24,Y+10
 8448 31f2 C65E      		subi r28,lo8(-(538))
 8449 31f4 DD4F      		sbci r29,hi8(-(538))
 8450 31f6 8883      		st Y,r24
 8451 31f8 CA51      		subi r28,lo8(-(-538))
 8452 31fa D240      		sbci r29,hi8(-(-538))
 8453 31fc 8B85      		ldd r24,Y+11
 8454 31fe C55E      		subi r28,lo8(-(539))
 8455 3200 DD4F      		sbci r29,hi8(-(539))
 8456 3202 8883      		st Y,r24
 8457 3204 CB51      		subi r28,lo8(-(-539))
 8458 3206 D240      		sbci r29,hi8(-(-539))
 8459 3208 8A85      		ldd r24,Y+10
 8460 320a 9B85      		ldd r25,Y+11
 8461 320c AC85      		ldd r26,Y+12
 8462 320e BD85      		ldd r27,Y+13
 8463 3210 9D01      		movw r18,r26
 8464 3212 4427      		clr r20
 8465 3214 5527      		clr r21
 8466 3216 C45E      		subi r28,lo8(-(540))
 8467 3218 DD4F      		sbci r29,hi8(-(540))
 8468 321a 2883      		st Y,r18
 8469 321c 2196      		adiw r28,1
 8470 321e 8B2F      		mov r24,r27
 8471 3220 9927      		clr r25
 8472 3222 AA27      		clr r26
 8473 3224 BB27      		clr r27
 8474 3226 8883      		st Y,r24
 8475 3228 CD51      		subi r28,lo8(-(-541))
 8476 322a D240      		sbci r29,hi8(-(-541))
 8477               	.LM717:
 8478 322c 2A89      		ldd r18,Y+18
 8479 322e 3B89      		ldd r19,Y+19
 8480 3230 4C89      		ldd r20,Y+20
 8481 3232 5D89      		ldd r21,Y+21
 8482 3234 8981      		ldd r24,Y+1
 8483 3236 01E0      		ldi r16,lo8(1)
 8484 3238 0E94 0000 		call disk_write
 8485               	.LVL764:
 8486               	.LM718:
 8487 323c 1D82      		std Y+5,__zero_reg__
 8488 323e 00C0      		rjmp .L436
 8489               	.LBE165:
 8490               	.LBE161:
 8491               	.LFE28:
 8493               	.global	f_close
 8495               	f_close:
 8496               	.LFB29:
 8497               	.LM719:
 8498               	.LVL765:
 8499 3240 CF93      		push r28
 8500 3242 DF93      		push r29
 8501               	/* prologue: function */
 8502               	/* frame size = 0 */
 8503 3244 EC01      		movw r28,r24
 8504               	.LM720:
 8505 3246 0E94 0000 		call f_sync
 8506               	.LVL766:
 8507               	.LM721:
 8508 324a 8823      		tst r24
 8509               	.LVL767:
 8510 324c 01F4      		brne .L444
 8511 324e 1982      		std Y+1,__zero_reg__
 8512 3250 1882      		st Y,__zero_reg__
 8513               	.L444:
 8514               	.LVL768:
 8515               	/* epilogue start */
 8516               	.LM722:
 8517 3252 DF91      		pop r29
 8518 3254 CF91      		pop r28
 8519               	.LVL769:
 8520 3256 0895      		ret
 8521               	.LFE29:
 8523               		.lcomm FatFs,2
 8524               		.lcomm Fsid,2
 8709               	.Letext0:
DEFINED SYMBOLS
                            *ABS*:00000000 ff.c
C:\DOCUME~1\ADMINI~1\LOCALS~1\Temp/cc8vKApJ.s:2      *ABS*:0000003f __SREG__
C:\DOCUME~1\ADMINI~1\LOCALS~1\Temp/cc8vKApJ.s:3      *ABS*:0000003e __SP_H__
C:\DOCUME~1\ADMINI~1\LOCALS~1\Temp/cc8vKApJ.s:4      *ABS*:0000003d __SP_L__
C:\DOCUME~1\ADMINI~1\LOCALS~1\Temp/cc8vKApJ.s:5      *ABS*:00000034 __CCP__
C:\DOCUME~1\ADMINI~1\LOCALS~1\Temp/cc8vKApJ.s:6      *ABS*:00000000 __tmp_reg__
C:\DOCUME~1\ADMINI~1\LOCALS~1\Temp/cc8vKApJ.s:7      *ABS*:00000001 __zero_reg__
C:\DOCUME~1\ADMINI~1\LOCALS~1\Temp/cc8vKApJ.s:18     .text:00000000 clust2sect
C:\DOCUME~1\ADMINI~1\LOCALS~1\Temp/cc8vKApJ.s:101    .text:0000007a f_mount
                             .bss:00000000 FatFs
C:\DOCUME~1\ADMINI~1\LOCALS~1\Temp/cc8vKApJ.s:144    .text:000000a4 validate
C:\DOCUME~1\ADMINI~1\LOCALS~1\Temp/cc8vKApJ.s:184    .text:000000d0 move_window
C:\DOCUME~1\ADMINI~1\LOCALS~1\Temp/cc8vKApJ.s:354    .text:000001c8 put_fat
C:\DOCUME~1\ADMINI~1\LOCALS~1\Temp/cc8vKApJ.s:717    .text:000003f4 get_fat
C:\DOCUME~1\ADMINI~1\LOCALS~1\Temp/cc8vKApJ.s:1047   .text:0000061a dir_sdi
C:\DOCUME~1\ADMINI~1\LOCALS~1\Temp/cc8vKApJ.s:1385   .text:00000822 create_chain
C:\DOCUME~1\ADMINI~1\LOCALS~1\Temp/cc8vKApJ.s:1711   .text:000009f4 f_lseek
C:\DOCUME~1\ADMINI~1\LOCALS~1\Temp/cc8vKApJ.s:2411   .text:00000e64 f_forward
C:\DOCUME~1\ADMINI~1\LOCALS~1\Temp/cc8vKApJ.s:2840   .text:000010e8 dir_next
C:\DOCUME~1\ADMINI~1\LOCALS~1\Temp/cc8vKApJ.s:3367   .text:00001404 f_readdir
C:\DOCUME~1\ADMINI~1\LOCALS~1\Temp/cc8vKApJ.s:3780   .text:00001626 follow_path
C:\DOCUME~1\ADMINI~1\LOCALS~1\Temp/cc8vKApJ.s:4378   .text:00001928 f_write
C:\DOCUME~1\ADMINI~1\LOCALS~1\Temp/cc8vKApJ.s:5198   .text:00001df6 check_fs
C:\DOCUME~1\ADMINI~1\LOCALS~1\Temp/cc8vKApJ.s:5369   .text:00001f10 f_read
C:\DOCUME~1\ADMINI~1\LOCALS~1\Temp/cc8vKApJ.s:5962   .text:0000227c chk_mounted
C:\DOCUME~1\ADMINI~1\LOCALS~1\Temp/cc8vKApJ.s:8523   .bss:00000002 Fsid
C:\DOCUME~1\ADMINI~1\LOCALS~1\Temp/cc8vKApJ.s:7228   .text:00002afe f_opendir
C:\DOCUME~1\ADMINI~1\LOCALS~1\Temp/cc8vKApJ.s:7371   .text:00002bd2 f_open
C:\DOCUME~1\ADMINI~1\LOCALS~1\Temp/cc8vKApJ.s:8169   .text:00003054 f_sync
C:\DOCUME~1\ADMINI~1\LOCALS~1\Temp/cc8vKApJ.s:8495   .text:00003240 f_close

UNDEFINED SYMBOLS
__mulsi3
disk_status
disk_write
disk_read
__udivmodsi4
disk_initialize
get_fattime
disk_ioctl
__do_copy_data
__do_clear_bss
