   1               		.file	"main.c"
   2               	__SREG__ = 0x3f
   3               	__SP_H__ = 0x3e
   4               	__SP_L__ = 0x3d
   5               	__CCP__  = 0x34
   6               	__tmp_reg__ = 0
   7               	__zero_reg__ = 1
  15               	.Ltext0:
  17               	fillSize:
  18               	.LFB57:
  19               	.LM1:
  20               	.LVL0:
  21               	/* prologue: function */
  22               	/* frame size = 0 */
  23 0000 DC01      		movw r26,r24
  24               	.LM2:
  25 0002 8617      		cp r24,r22
  26 0004 9707      		cpc r25,r23
  27 0006 00F4      		brsh .L2
  28 0008 8C91      		ld r24,X
  29               	.LVL1:
  30 000a 8535      		cpi r24,lo8(85)
  31 000c 01F4      		brne .L2
  32 000e FD01      		movw r30,r26
  33               	.LVL2:
  34 0010 00C0      		rjmp .L5
  35               	.L3:
  36 0012 8081      		ld r24,Z
  37 0014 8535      		cpi r24,lo8(85)
  38 0016 01F4      		brne .L8
  39               	.L5:
  40 0018 3196      		adiw r30,1
  41 001a E617      		cp r30,r22
  42 001c F707      		cpc r31,r23
  43 001e 00F0      		brlo .L3
  44               	.L8:
  45 0020 9F01      		movw r18,r30
  46 0022 2A1B      		sub r18,r26
  47 0024 3B0B      		sbc r19,r27
  48               	.LVL3:
  49               	.L4:
  50               	.LM3:
  51 0026 C901      		movw r24,r18
  52               	/* epilogue start */
  53 0028 0895      		ret
  54               	.LVL4:
  55               	.L2:
  56               	.LM4:
  57 002a 20E0      		ldi r18,lo8(0)
  58 002c 30E0      		ldi r19,hi8(0)
  59 002e 00C0      		rjmp .L4
  60               	.LFE57:
  62               	.global	get_fattime
  64               	get_fattime:
  65               	.LFB60:
  66               	.LM5:
  67               	/* prologue: function */
  68               	/* frame size = 0 */
  69               	.LM6:
  70 0030 60E0      		ldi r22,lo8(0)
  71 0032 70E0      		ldi r23,hi8(0)
  72 0034 80E0      		ldi r24,hlo8(0)
  73 0036 90E0      		ldi r25,hhi8(0)
  74               	/* epilogue start */
  75 0038 0895      		ret
  76               	.LFE60:
  78               	.global	parse_time
  80               	parse_time:
  81               	.LFB69:
  82               	.LM7:
  83               	.LVL5:
  84 003a 6F92      		push r6
  85 003c 7F92      		push r7
  86 003e 8F92      		push r8
  87 0040 9F92      		push r9
  88 0042 AF92      		push r10
  89 0044 BF92      		push r11
  90 0046 CF92      		push r12
  91 0048 DF92      		push r13
  92 004a EF92      		push r14
  93 004c FF92      		push r15
  94 004e 0F93      		push r16
  95               	.LVL6:
  96 0050 1F93      		push r17
  97               	/* prologue: function */
  98               	/* frame size = 0 */
  99 0052 6B01      		movw r12,r22
 100 0054 7C01      		movw r14,r24
 101 0056 5A01      		movw r10,r20
 102 0058 4901      		movw r8,r18
 103 005a 3801      		movw r6,r16
 104               	.LVL7:
 105               	.LM8:
 106 005c 20E0      		ldi r18,lo8(0x42700000)
 107 005e 30E0      		ldi r19,hi8(0x42700000)
 108 0060 40E7      		ldi r20,hlo8(0x42700000)
 109 0062 52E4      		ldi r21,hhi8(0x42700000)
 110               	.LVL8:
 111 0064 0E94 0000 		call __divsf3
 112               	.LVL9:
 113 0068 0E94 0000 		call __fixunssfsi
 114 006c F501      		movw r30,r10
 115 006e 6083      		st Z,r22
 116               	.LM9:
 117 0070 70E0      		ldi r23,lo8(0)
 118 0072 8827      		clr r24
 119 0074 77FD      		sbrc r23,7
 120 0076 8095      		com r24
 121 0078 982F      		mov r25,r24
 122 007a 0E94 0000 		call __floatsisf
 123 007e 20E0      		ldi r18,lo8(0xc2700000)
 124 0080 30E0      		ldi r19,hi8(0xc2700000)
 125 0082 40E7      		ldi r20,hlo8(0xc2700000)
 126 0084 52EC      		ldi r21,hhi8(0xc2700000)
 127 0086 0E94 0000 		call __mulsf3
 128 008a A701      		movw r20,r14
 129 008c 9601      		movw r18,r12
 130 008e 0E94 0000 		call __addsf3
 131 0092 5B01      		movw r10,r22
 132 0094 6C01      		movw r12,r24
 133               	.LVL10:
 134               	.LM10:
 135 0096 0E94 0000 		call __fixunssfsi
 136 009a E62E      		mov r14,r22
 137 009c F401      		movw r30,r8
 138 009e 6083      		st Z,r22
 139               	.LM11:
 140 00a0 C601      		movw r24,r12
 141 00a2 B501      		movw r22,r10
 142 00a4 20E0      		ldi r18,lo8(0x42700000)
 143 00a6 30E0      		ldi r19,hi8(0x42700000)
 144 00a8 40E7      		ldi r20,hlo8(0x42700000)
 145 00aa 52E4      		ldi r21,hhi8(0x42700000)
 146 00ac 0E94 0000 		call __mulsf3
 147 00b0 5B01      		movw r10,r22
 148 00b2 6C01      		movw r12,r24
 149 00b4 FF24      		clr r15
 150 00b6 00E0      		ldi r16,lo8(0)
 151 00b8 10E0      		ldi r17,hi8(0)
 152               	.LVL11:
 153 00ba C801      		movw r24,r16
 154 00bc B701      		movw r22,r14
 155 00be 0E94 0000 		call __floatunsisf
 156 00c2 20E0      		ldi r18,lo8(0xc2700000)
 157 00c4 30E0      		ldi r19,hi8(0xc2700000)
 158 00c6 40E7      		ldi r20,hlo8(0xc2700000)
 159 00c8 52EC      		ldi r21,hhi8(0xc2700000)
 160 00ca 0E94 0000 		call __mulsf3
 161 00ce 9B01      		movw r18,r22
 162 00d0 AC01      		movw r20,r24
 163 00d2 C601      		movw r24,r12
 164 00d4 B501      		movw r22,r10
 165 00d6 0E94 0000 		call __addsf3
 166 00da 0E94 0000 		call __fixunssfsi
 167 00de F301      		movw r30,r6
 168 00e0 6083      		st Z,r22
 169               	/* epilogue start */
 170               	.LM12:
 171 00e2 1F91      		pop r17
 172 00e4 0F91      		pop r16
 173 00e6 FF90      		pop r15
 174 00e8 EF90      		pop r14
 175 00ea DF90      		pop r13
 176 00ec CF90      		pop r12
 177               	.LVL12:
 178 00ee BF90      		pop r11
 179 00f0 AF90      		pop r10
 180 00f2 9F90      		pop r9
 181 00f4 8F90      		pop r8
 182               	.LVL13:
 183 00f6 7F90      		pop r7
 184 00f8 6F90      		pop r6
 185               	.LVL14:
 186 00fa 0895      		ret
 187               	.LFE69:
 190               	fill8:
 191               	.LFB72:
 192               	.LM13:
 193               	.LVL15:
 194               	/* prologue: function */
 195               	/* frame size = 0 */
 196 00fc FC01      		movw r30,r24
 197               	.LM14:
 198 00fe 8617      		cp r24,r22
 199 0100 9707      		cpc r25,r23
 200 0102 00F4      		brsh .L17
 201 0104 85E5      		ldi r24,lo8(85)
 202               	.LVL16:
 203               	.L18:
 204 0106 8193      		st Z+,r24
 205 0108 E617      		cp r30,r22
 206 010a F707      		cpc r31,r23
 207 010c 00F0      		brlo .L18
 208               	.LVL17:
 209               	.L17:
 210 010e 0895      		ret
 211               	.LFE72:
 213               	.global	nilSemGetCounter
 215               	nilSemGetCounter:
 216               	.LFB73:
 217               	.LM15:
 218               	.LVL18:
 219               	/* prologue: function */
 220               	/* frame size = 0 */
 221 0110 FC01      		movw r30,r24
 222               	.LBB145:
 223               	.LBB146:
 224               	.LM16:
 225               	/* #APP */
 226               	 ;  319 ".//os/nil/ports/AVR/nilcore.h" 1
 227 0112 F894      		cli
 228               	 ;  0 "" 2
 229               	/* #NOAPP */
 230               	.LBE146:
 231               	.LBE145:
 232               	.LM17:
 233 0114 8081      		ld r24,Z
 234               	.LVL19:
 235               	.LBB147:
 236               	.LBB148:
 237               	.LM18:
 238               	/* #APP */
 239               	 ;  327 ".//os/nil/ports/AVR/nilcore.h" 1
 240 0116 7894      		sei
 241               	 ;  0 "" 2
 242               	.LVL20:
 243               	/* epilogue start */
 244               	/* #NOAPP */
 245               	.LBE148:
 246               	.LBE147:
 247               	.LM19:
 248 0118 0895      		ret
 249               	.LFE73:
 251               	.global	nilUnusedStack
 253               	nilUnusedStack:
 254               	.LFB74:
 255               	.LM20:
 256               	.LVL21:
 257               	/* prologue: function */
 258               	/* frame size = 0 */
 259               	.LM21:
 260 011a 9AE0      		ldi r25,lo8(10)
 261 011c 899F      		mul r24,r25
 262 011e F001      		movw r30,r0
 263 0120 1124      		clr r1
 264               	.LVL22:
 265 0122 E050      		subi r30,lo8(-(nil_thd_configs))
 266 0124 F040      		sbci r31,hi8(-(nil_thd_configs))
 267               	.LM22:
 268 0126 6281      		ldd r22,Z+2
 269 0128 7381      		ldd r23,Z+3
 270 012a 8081      		ld r24,Z
 271 012c 9181      		ldd r25,Z+1
 272               	.LVL23:
 273 012e 0E94 0000 		call fillSize
 274               	.LVL24:
 275               	/* epilogue start */
 276               	.LM23:
 277 0132 0895      		ret
 278               	.LFE74:
 280               	.global	nilUnusedHeapIdle
 282               	nilUnusedHeapIdle:
 283               	.LFB75:
 284               	.LM24:
 285               	/* prologue: function */
 286               	/* frame size = 0 */
 287               	.LBB149:
 288               	.LBB150:
 289               	.LM25:
 290 0134 8091 0000 		lds r24,__brkval
 291 0138 9091 0000 		lds r25,(__brkval)+1
 292 013c 0097      		sbiw r24,0
 293 013e 01F0      		breq .L27
 294               	.LBE150:
 295               	.LBE149:
 296               	.LM26:
 297 0140 6FEF      		ldi r22,lo8(16639)
 298 0142 70E4      		ldi r23,hi8(16639)
 299 0144 0E94 0000 		call fillSize
 300               	/* epilogue start */
 301               	.LM27:
 302 0148 0895      		ret
 303               	.L27:
 304               	.LBB152:
 305               	.LBB151:
 306               	.LM28:
 307 014a 8091 0000 		lds r24,__malloc_heap_start
 308 014e 9091 0000 		lds r25,(__malloc_heap_start)+1
 309               	.LBE151:
 310               	.LBE152:
 311               	.LM29:
 312 0152 6FEF      		ldi r22,lo8(16639)
 313 0154 70E4      		ldi r23,hi8(16639)
 314 0156 0E94 0000 		call fillSize
 315               	.LM30:
 316 015a 0895      		ret
 317               	.LFE75:
 319               	.global	nilThdDelay
 321               	nilThdDelay:
 322               	.LFB77:
 323               	.LM31:
 324               	.LVL25:
 325               	/* prologue: function */
 326               	/* frame size = 0 */
 327               	.LM32:
 328 015c 6115      		cp r22,__zero_reg__
 329 015e 7105      		cpc r23,__zero_reg__
 330 0160 8105      		cpc r24,__zero_reg__
 331 0162 9105      		cpc r25,__zero_reg__
 332 0164 01F4      		brne .L32
 333 0166 0895      		ret
 334               	.L32:
 335 0168 00C0      		rjmp .L32
 336               	.LFE77:
 338               	.global	nilThdDelayUntil
 340               	nilThdDelayUntil:
 341               	.LFB78:
 342               	.LM33:
 343               	.LVL26:
 344               	/* prologue: function */
 345               	/* frame size = 0 */
 346               	.LBB153:
 347               	.LBB154:
 348               	.LM34:
 349 016a 2091 0000 		lds r18,nil+4
 350 016e 3091 0000 		lds r19,(nil+4)+1
 351 0172 4091 0000 		lds r20,(nil+4)+2
 352 0176 5091 0000 		lds r21,(nil+4)+3
 353 017a 2617      		cp r18,r22
 354 017c 3707      		cpc r19,r23
 355 017e 4807      		cpc r20,r24
 356 0180 5907      		cpc r21,r25
 357 0182 01F4      		brne .L37
 358 0184 0895      		ret
 359               	.L37:
 360 0186 00C0      		rjmp .L37
 361               	.LBE154:
 362               	.LBE153:
 363               	.LFE78:
 365               	.global	main
 367               	main:
 368               	.LFB96:
 369               	.LM35:
 370 0188 DF93      		push r29
 371 018a CF93      		push r28
 372 018c 00D0      		rcall .
 373 018e CDB7      		in r28,__SP_L__
 374 0190 DEB7      		in r29,__SP_H__
 375               	/* prologue: function */
 376               	/* frame size = 2 */
 377               	.LM36:
 378 0192 81E0      		ldi r24,lo8(1)
 379 0194 8093 0000 		sts lcdUSE,r24
 380               	.LM37:
 381 0198 8093 0000 		sts sdUSE,r24
 382               	.LM38:
 383 019c 8093 0000 		sts spiUSE,r24
 384               	.LM39:
 385 01a0 8093 0000 		sts i2cUSE,r24
 386               	.LM40:
 387 01a4 8093 0000 		sts usartUSE,r24
 388               	.LM41:
 389 01a8 8093 0000 		sts ButtonPressed,r24
 390               	.LM42:
 391 01ac 8093 0000 		sts testTHREAD,r24
 392               	.LBB155:
 393               	.LBB156:
 394               	.LM43:
 395 01b0 80E0      		ldi r24,lo8(nil_thd_configs)
 396 01b2 90E0      		ldi r25,hi8(nil_thd_configs)
 397 01b4 9A83      		std Y+2,r25
 398 01b6 8983      		std Y+1,r24
 399               	.LVL27:
 400               	.LM44:
 401 01b8 6091 0000 		lds r22,nil_thd_configs+2
 402 01bc 7091 0000 		lds r23,(nil_thd_configs+2)+1
 403 01c0 6115      		cp r22,__zero_reg__
 404 01c2 7105      		cpc r23,__zero_reg__
 405 01c4 01F0      		breq .L39
 406 01c6 FC01      		movw r30,r24
 407               	.L40:
 408               	.LM45:
 409 01c8 8081      		ld r24,Z
 410 01ca 9181      		ldd r25,Z+1
 411 01cc 0E94 0000 		call fill8
 412               	.LM46:
 413 01d0 E981      		ldd r30,Y+1
 414 01d2 FA81      		ldd r31,Y+2
 415 01d4 3A96      		adiw r30,10
 416 01d6 FA83      		std Y+2,r31
 417 01d8 E983      		std Y+1,r30
 418               	.LVL28:
 419               	.LM47:
 420 01da 6281      		ldd r22,Z+2
 421 01dc 7381      		ldd r23,Z+3
 422 01de 6115      		cp r22,__zero_reg__
 423 01e0 7105      		cpc r23,__zero_reg__
 424 01e2 01F4      		brne .L40
 425               	.L39:
 426               	.LBB157:
 427               	.LBB158:
 428               	.LM48:
 429 01e4 8091 0000 		lds r24,__brkval
 430 01e8 9091 0000 		lds r25,(__brkval)+1
 431 01ec 0097      		sbiw r24,0
 432 01ee 01F0      		breq .L45
 433               	.L41:
 434               	.LBE158:
 435               	.LBE157:
 436               	.LM49:
 437 01f0 BE01      		movw r22,r28
 438 01f2 6F50      		subi r22,lo8(-(-15))
 439 01f4 7040      		sbci r23,hi8(-(-15))
 440 01f6 0E94 0000 		call fill8
 441               	.LBE156:
 442               	.LBE155:
 443               	.LM50:
 444 01fa 0E94 0000 		call halInit
 445               	.LM51:
 446 01fe 0E94 0000 		call chSysInit
 447               	.L42:
 448 0202 00C0      		rjmp .L42
 449               	.L45:
 450               	.LBB162:
 451               	.LBB161:
 452               	.LBB160:
 453               	.LBB159:
 454               	.LM52:
 455 0204 8091 0000 		lds r24,__malloc_heap_start
 456 0208 9091 0000 		lds r25,(__malloc_heap_start)+1
 457 020c 00C0      		rjmp .L41
 458               	.LBE159:
 459               	.LBE160:
 460               	.LBE161:
 461               	.LBE162:
 462               	.LFE96:
 464               	.global	Thread8
 466               	Thread8:
 467               	.LFB89:
 468               	.LM53:
 469               	/* prologue: function */
 470               	/* frame size = 0 */
 471               	.LM54:
 472 020e 8091 0000 		lds r24,nil
 473 0212 9091 0000 		lds r25,(nil)+1
 474 0216 9093 0000 		sts (tp+14)+1,r25
 475 021a 8093 0000 		sts tp+14,r24
 476 021e 00E0      		ldi r16,lo8(usart_out)
 477 0220 10E0      		ldi r17,hi8(usart_out)
 478 0222 50E0      		ldi r21,lo8(__c.4019)
 479 0224 252E      		mov r2,r21
 480 0226 50E0      		ldi r21,hi8(__c.4019)
 481 0228 352E      		mov r3,r21
 482 022a 40E0      		ldi r20,lo8(__c.4021)
 483 022c A42E      		mov r10,r20
 484 022e 40E0      		ldi r20,hi8(__c.4021)
 485 0230 B42E      		mov r11,r20
 486 0232 30E0      		ldi r19,lo8(__c.4026)
 487 0234 632E      		mov r6,r19
 488 0236 30E0      		ldi r19,hi8(__c.4026)
 489 0238 732E      		mov r7,r19
 490 023a 20E0      		ldi r18,lo8(__c.4028)
 491 023c C22E      		mov r12,r18
 492 023e 20E0      		ldi r18,hi8(__c.4028)
 493 0240 D22E      		mov r13,r18
 494 0242 90E0      		ldi r25,lo8(__c.4033)
 495 0244 492E      		mov r4,r25
 496 0246 90E0      		ldi r25,hi8(__c.4033)
 497 0248 592E      		mov r5,r25
 498 024a 80E0      		ldi r24,lo8(__c.4035)
 499 024c E82E      		mov r14,r24
 500 024e 80E0      		ldi r24,hi8(__c.4035)
 501 0250 F82E      		mov r15,r24
 502               	.LM55:
 503 0252 C801      		movw r24,r16
 504 0254 902E      		mov r9,r16
 505 0256 892E      		mov r8,r25
 506               	.L50:
 507               	.LM56:
 508 0258 81E0      		ldi r24,lo8(1)
 509 025a 40E0      		ldi r20,lo8(0)
 510 025c 50E0      		ldi r21,hi8(0)
 511 025e 60E0      		ldi r22,hlo8(0)
 512 0260 70E0      		ldi r23,hhi8(0)
 513 0262 0E94 0000 		call chEvtWaitAnyTimeout
 514               	.LM57:
 515 0266 80E0      		ldi r24,lo8(usartUSE)
 516 0268 90E0      		ldi r25,hi8(usartUSE)
 517 026a 40E0      		ldi r20,lo8(0)
 518 026c 50E0      		ldi r21,hi8(0)
 519 026e 60E0      		ldi r22,hlo8(0)
 520 0270 70E0      		ldi r23,hhi8(0)
 521 0272 0E94 0000 		call chSemWaitTimeout
 522               	.LM58:
 523 0276 00D0      		rcall .
 524 0278 00D0      		rcall .
 525 027a ADB7      		in r26,__SP_L__
 526 027c BEB7      		in r27,__SP_H__
 527 027e 1296      		adiw r26,1+1
 528 0280 1C93      		st X,r17
 529 0282 0E93      		st -X,r16
 530 0284 1197      		sbiw r26,1
 531 0286 1496      		adiw r26,3+1
 532 0288 3C92      		st X,r3
 533 028a 2E92      		st -X,r2
 534 028c 1397      		sbiw r26,3
 535 028e 0E94 0000 		call fprintf_P
 536               	.LM59:
 537 0292 0F90      		pop __tmp_reg__
 538 0294 0F90      		pop __tmp_reg__
 539 0296 0F90      		pop __tmp_reg__
 540 0298 0F90      		pop __tmp_reg__
 541 029a 80E0      		ldi r24,lo8(usartUSE)
 542 029c 90E0      		ldi r25,hi8(usartUSE)
 543 029e 0E94 0000 		call chSemSignal
 544 02a2 C0E0      		ldi r28,lo8(0)
 545 02a4 D0E0      		ldi r29,hi8(0)
 546               	.L47:
 547               	.LM60:
 548 02a6 80E0      		ldi r24,lo8(usartUSE)
 549 02a8 90E0      		ldi r25,hi8(usartUSE)
 550 02aa 40E0      		ldi r20,lo8(0)
 551 02ac 50E0      		ldi r21,hi8(0)
 552 02ae 60E0      		ldi r22,hlo8(0)
 553 02b0 70E0      		ldi r23,hhi8(0)
 554 02b2 0E94 0000 		call chSemWaitTimeout
 555               	.LM61:
 556 02b6 00D0      		rcall .
 557 02b8 00D0      		rcall .
 558 02ba 00D0      		rcall .
 559 02bc EDB7      		in r30,__SP_L__
 560 02be FEB7      		in r31,__SP_H__
 561 02c0 3196      		adiw r30,1
 562 02c2 ADB7      		in r26,__SP_L__
 563 02c4 BEB7      		in r27,__SP_H__
 564 02c6 1296      		adiw r26,1+1
 565 02c8 1C93      		st X,r17
 566 02ca 0E93      		st -X,r16
 567 02cc 1197      		sbiw r26,1
 568 02ce B382      		std Z+3,r11
 569 02d0 A282      		std Z+2,r10
 570 02d2 D583      		std Z+5,r29
 571 02d4 C483      		std Z+4,r28
 572 02d6 0E94 0000 		call fprintf_P
 573               	.LM62:
 574 02da EDB7      		in r30,__SP_L__
 575 02dc FEB7      		in r31,__SP_H__
 576 02de 3696      		adiw r30,6
 577 02e0 0FB6      		in __tmp_reg__,__SREG__
 578 02e2 F894      		cli
 579 02e4 FEBF      		out __SP_H__,r31
 580 02e6 0FBE      		out __SREG__,__tmp_reg__
 581 02e8 EDBF      		out __SP_L__,r30
 582 02ea 80E0      		ldi r24,lo8(usartUSE)
 583 02ec 90E0      		ldi r25,hi8(usartUSE)
 584 02ee 0E94 0000 		call chSemSignal
 585 02f2 2196      		adiw r28,1
 586               	.LM63:
 587 02f4 C031      		cpi r28,16
 588 02f6 D105      		cpc r29,__zero_reg__
 589 02f8 01F4      		brne .L47
 590               	.LM64:
 591 02fa 80E0      		ldi r24,lo8(usartUSE)
 592 02fc 90E0      		ldi r25,hi8(usartUSE)
 593 02fe 40E0      		ldi r20,lo8(0)
 594 0300 50E0      		ldi r21,hi8(0)
 595 0302 60E0      		ldi r22,hlo8(0)
 596 0304 70E0      		ldi r23,hhi8(0)
 597 0306 0E94 0000 		call chSemWaitTimeout
 598               	.LM65:
 599 030a 00D0      		rcall .
 600 030c 00D0      		rcall .
 601 030e ADB7      		in r26,__SP_L__
 602 0310 BEB7      		in r27,__SP_H__
 603 0312 1196      		adiw r26,1
 604 0314 9C92      		st X,r9
 605 0316 1197      		sbiw r26,1
 606 0318 1296      		adiw r26,2
 607 031a 8C92      		st X,r8
 608 031c 1297      		sbiw r26,2
 609 031e 1496      		adiw r26,3+1
 610 0320 7C92      		st X,r7
 611 0322 6E92      		st -X,r6
 612 0324 1397      		sbiw r26,3
 613 0326 0E94 0000 		call fprintf_P
 614               	.LM66:
 615 032a 0F90      		pop __tmp_reg__
 616 032c 0F90      		pop __tmp_reg__
 617 032e 0F90      		pop __tmp_reg__
 618 0330 0F90      		pop __tmp_reg__
 619 0332 80E0      		ldi r24,lo8(usartUSE)
 620 0334 90E0      		ldi r25,hi8(usartUSE)
 621 0336 0E94 0000 		call chSemSignal
 622 033a C0E0      		ldi r28,lo8(0)
 623 033c D0E0      		ldi r29,hi8(0)
 624               	.L48:
 625               	.LM67:
 626 033e 80E0      		ldi r24,lo8(usartUSE)
 627 0340 90E0      		ldi r25,hi8(usartUSE)
 628 0342 40E0      		ldi r20,lo8(0)
 629 0344 50E0      		ldi r21,hi8(0)
 630 0346 60E0      		ldi r22,hlo8(0)
 631 0348 70E0      		ldi r23,hhi8(0)
 632 034a 0E94 0000 		call chSemWaitTimeout
 633               	.LM68:
 634 034e 00D0      		rcall .
 635 0350 00D0      		rcall .
 636 0352 00D0      		rcall .
 637 0354 EDB7      		in r30,__SP_L__
 638 0356 FEB7      		in r31,__SP_H__
 639 0358 3196      		adiw r30,1
 640 035a ADB7      		in r26,__SP_L__
 641 035c BEB7      		in r27,__SP_H__
 642 035e 1296      		adiw r26,1+1
 643 0360 1C93      		st X,r17
 644 0362 0E93      		st -X,r16
 645 0364 1197      		sbiw r26,1
 646 0366 D382      		std Z+3,r13
 647 0368 C282      		std Z+2,r12
 648 036a D583      		std Z+5,r29
 649 036c C483      		std Z+4,r28
 650 036e 0E94 0000 		call fprintf_P
 651               	.LM69:
 652 0372 EDB7      		in r30,__SP_L__
 653 0374 FEB7      		in r31,__SP_H__
 654 0376 3696      		adiw r30,6
 655 0378 0FB6      		in __tmp_reg__,__SREG__
 656 037a F894      		cli
 657 037c FEBF      		out __SP_H__,r31
 658 037e 0FBE      		out __SREG__,__tmp_reg__
 659 0380 EDBF      		out __SP_L__,r30
 660 0382 80E0      		ldi r24,lo8(usartUSE)
 661 0384 90E0      		ldi r25,hi8(usartUSE)
 662 0386 0E94 0000 		call chSemSignal
 663 038a 2196      		adiw r28,1
 664               	.LM70:
 665 038c C031      		cpi r28,16
 666 038e D105      		cpc r29,__zero_reg__
 667 0390 01F4      		brne .L48
 668               	.LM71:
 669 0392 80E0      		ldi r24,lo8(usartUSE)
 670 0394 90E0      		ldi r25,hi8(usartUSE)
 671 0396 40E0      		ldi r20,lo8(0)
 672 0398 50E0      		ldi r21,hi8(0)
 673 039a 60E0      		ldi r22,hlo8(0)
 674 039c 70E0      		ldi r23,hhi8(0)
 675 039e 0E94 0000 		call chSemWaitTimeout
 676               	.LM72:
 677 03a2 00D0      		rcall .
 678 03a4 00D0      		rcall .
 679 03a6 ADB7      		in r26,__SP_L__
 680 03a8 BEB7      		in r27,__SP_H__
 681 03aa 1196      		adiw r26,1
 682 03ac 9C92      		st X,r9
 683 03ae 1197      		sbiw r26,1
 684 03b0 1296      		adiw r26,2
 685 03b2 8C92      		st X,r8
 686 03b4 1297      		sbiw r26,2
 687 03b6 1496      		adiw r26,3+1
 688 03b8 5C92      		st X,r5
 689 03ba 4E92      		st -X,r4
 690 03bc 1397      		sbiw r26,3
 691 03be 0E94 0000 		call fprintf_P
 692               	.LM73:
 693 03c2 0F90      		pop __tmp_reg__
 694 03c4 0F90      		pop __tmp_reg__
 695 03c6 0F90      		pop __tmp_reg__
 696 03c8 0F90      		pop __tmp_reg__
 697 03ca 80E0      		ldi r24,lo8(usartUSE)
 698 03cc 90E0      		ldi r25,hi8(usartUSE)
 699 03ce 0E94 0000 		call chSemSignal
 700 03d2 C0E0      		ldi r28,lo8(tp)
 701 03d4 D0E0      		ldi r29,hi8(tp)
 702               	.L49:
 703               	.LM74:
 704 03d6 80E0      		ldi r24,lo8(usartUSE)
 705 03d8 90E0      		ldi r25,hi8(usartUSE)
 706 03da 40E0      		ldi r20,lo8(0)
 707 03dc 50E0      		ldi r21,hi8(0)
 708 03de 60E0      		ldi r22,hlo8(0)
 709 03e0 70E0      		ldi r23,hhi8(0)
 710 03e2 0E94 0000 		call chSemWaitTimeout
 711               	.LM75:
 712 03e6 00D0      		rcall .
 713 03e8 00D0      		rcall .
 714 03ea 00D0      		rcall .
 715 03ec EDB7      		in r30,__SP_L__
 716 03ee FEB7      		in r31,__SP_H__
 717 03f0 3196      		adiw r30,1
 718 03f2 ADB7      		in r26,__SP_L__
 719 03f4 BEB7      		in r27,__SP_H__
 720 03f6 1296      		adiw r26,1+1
 721 03f8 1C93      		st X,r17
 722 03fa 0E93      		st -X,r16
 723 03fc 1197      		sbiw r26,1
 724 03fe F382      		std Z+3,r15
 725 0400 E282      		std Z+2,r14
 726 0402 A991      		ld r26,Y+
 727 0404 B991      		ld r27,Y+
 728 0406 1296      		adiw r26,2
 729 0408 8C91      		ld r24,X
 730 040a 8483      		std Z+4,r24
 731 040c 1582      		std Z+5,__zero_reg__
 732 040e 0E94 0000 		call fprintf_P
 733               	.LM76:
 734 0412 EDB7      		in r30,__SP_L__
 735 0414 FEB7      		in r31,__SP_H__
 736 0416 3696      		adiw r30,6
 737 0418 0FB6      		in __tmp_reg__,__SREG__
 738 041a F894      		cli
 739 041c FEBF      		out __SP_H__,r31
 740 041e 0FBE      		out __SREG__,__tmp_reg__
 741 0420 EDBF      		out __SP_L__,r30
 742 0422 80E0      		ldi r24,lo8(usartUSE)
 743 0424 90E0      		ldi r25,hi8(usartUSE)
 744 0426 0E94 0000 		call chSemSignal
 745               	.LM77:
 746 042a F0E0      		ldi r31,hi8(tp+32)
 747 042c C030      		cpi r28,lo8(tp+32)
 748 042e DF07      		cpc r29,r31
 749 0430 01F4      		brne .L49
 750               	.LM78:
 751 0432 80E0      		ldi r24,lo8(usartUSE)
 752 0434 90E0      		ldi r25,hi8(usartUSE)
 753 0436 40E0      		ldi r20,lo8(0)
 754 0438 50E0      		ldi r21,hi8(0)
 755 043a 60E0      		ldi r22,hlo8(0)
 756 043c 70E0      		ldi r23,hhi8(0)
 757 043e 0E94 0000 		call chSemWaitTimeout
 758               	.LM79:
 759 0442 00D0      		rcall .
 760 0444 00D0      		rcall .
 761 0446 ADB7      		in r26,__SP_L__
 762 0448 BEB7      		in r27,__SP_H__
 763 044a 1196      		adiw r26,1
 764 044c 9C92      		st X,r9
 765 044e 1197      		sbiw r26,1
 766 0450 1296      		adiw r26,2
 767 0452 8C92      		st X,r8
 768 0454 1297      		sbiw r26,2
 769 0456 E0E0      		ldi r30,lo8(__c.4040)
 770 0458 F0E0      		ldi r31,hi8(__c.4040)
 771 045a 1496      		adiw r26,3+1
 772 045c FC93      		st X,r31
 773 045e EE93      		st -X,r30
 774 0460 1397      		sbiw r26,3
 775 0462 0E94 0000 		call fprintf_P
 776               	.LM80:
 777 0466 0F90      		pop __tmp_reg__
 778 0468 0F90      		pop __tmp_reg__
 779 046a 0F90      		pop __tmp_reg__
 780 046c 0F90      		pop __tmp_reg__
 781 046e 80E0      		ldi r24,lo8(usartUSE)
 782 0470 90E0      		ldi r25,hi8(usartUSE)
 783 0472 0E94 0000 		call chSemSignal
 784 0476 00C0      		rjmp .L50
 785               	.LFE89:
 787               	.global	showMenu
 789               	showMenu:
 790               	.LFB80:
 791               	.LM81:
 792 0478 CF92      		push r12
 793 047a DF92      		push r13
 794 047c EF92      		push r14
 795 047e FF92      		push r15
 796 0480 0F93      		push r16
 797 0482 1F93      		push r17
 798 0484 CF93      		push r28
 799 0486 DF93      		push r29
 800               	/* prologue: function */
 801               	/* frame size = 0 */
 802               	.LM82:
 803 0488 8091 0000 		lds r24,switchtype
 804 048c 8130      		cpi r24,lo8(1)
 805 048e 01F0      		breq .L56
 806               	.LM83:
 807 0490 80E0      		ldi r24,lo8(spiUSE)
 808 0492 90E0      		ldi r25,hi8(spiUSE)
 809 0494 40E0      		ldi r20,lo8(0)
 810 0496 50E0      		ldi r21,hi8(0)
 811 0498 60E0      		ldi r22,hlo8(0)
 812 049a 70E0      		ldi r23,hhi8(0)
 813 049c 0E94 0000 		call chSemWaitTimeout
 814               	.LM84:
 815 04a0 80E0      		ldi r24,lo8(0)
 816 04a2 60E0      		ldi r22,lo8(0)
 817 04a4 40EA      		ldi r20,lo8(-96)
 818 04a6 20E8      		ldi r18,lo8(-128)
 819 04a8 00E0      		ldi r16,lo8(0)
 820 04aa 10E0      		ldi r17,hi8(0)
 821 04ac 0E94 0000 		call st7735_fill_rect
 822               	.LM85:
 823 04b0 80E0      		ldi r24,lo8(spiUSE)
 824 04b2 90E0      		ldi r25,hi8(spiUSE)
 825 04b4 0E94 0000 		call chSemSignal
 826               	.L56:
 827               	.LM86:
 828 04b8 80E0      		ldi r24,lo8(spiUSE)
 829 04ba 90E0      		ldi r25,hi8(spiUSE)
 830 04bc 40E0      		ldi r20,lo8(0)
 831 04be 50E0      		ldi r21,hi8(0)
 832 04c0 60E0      		ldi r22,hlo8(0)
 833 04c2 70E0      		ldi r23,hhi8(0)
 834 04c4 0E94 0000 		call chSemWaitTimeout
 835               	.LM87:
 836 04c8 85E0      		ldi r24,lo8(5)
 837 04ca 90E0      		ldi r25,hi8(5)
 838 04cc 6AE0      		ldi r22,lo8(10)
 839 04ce 70E0      		ldi r23,hi8(10)
 840 04d0 0E94 0000 		call st7735_setCursor
 841               	.LM88:
 842 04d4 00D0      		rcall .
 843 04d6 00D0      		rcall .
 844 04d8 00D0      		rcall .
 845 04da EDB7      		in r30,__SP_L__
 846 04dc FEB7      		in r31,__SP_H__
 847 04de 3196      		adiw r30,1
 848 04e0 C0E0      		ldi r28,lo8(st7735_out)
 849 04e2 D0E0      		ldi r29,hi8(st7735_out)
 850 04e4 ADB7      		in r26,__SP_L__
 851 04e6 BEB7      		in r27,__SP_H__
 852 04e8 1296      		adiw r26,1+1
 853 04ea DC93      		st X,r29
 854 04ec CE93      		st -X,r28
 855 04ee 1197      		sbiw r26,1
 856 04f0 80E0      		ldi r24,lo8(__c.3680)
 857 04f2 90E0      		ldi r25,hi8(__c.3680)
 858 04f4 9383      		std Z+3,r25
 859 04f6 8283      		std Z+2,r24
 860 04f8 8091 0000 		lds r24,curMenu
 861 04fc 9091 0000 		lds r25,curMenu+1
 862 0500 880F      		lsl r24
 863 0502 991F      		rol r25
 864 0504 880F      		lsl r24
 865 0506 991F      		rol r25
 866 0508 9C01      		movw r18,r24
 867 050a 220F      		lsl r18
 868 050c 331F      		rol r19
 869 050e 220F      		lsl r18
 870 0510 331F      		rol r19
 871 0512 820F      		add r24,r18
 872 0514 931F      		adc r25,r19
 873 0516 8050      		subi r24,lo8(-(menutitle))
 874 0518 9040      		sbci r25,hi8(-(menutitle))
 875 051a 9583      		std Z+5,r25
 876 051c 8483      		std Z+4,r24
 877 051e 0E94 0000 		call fprintf_P
 878               	.LM89:
 879 0522 4DB7      		in r20,__SP_L__
 880 0524 5EB7      		in r21,__SP_H__
 881 0526 4A5F      		subi r20,lo8(-(6))
 882 0528 5F4F      		sbci r21,hi8(-(6))
 883 052a 0FB6      		in __tmp_reg__,__SREG__
 884 052c F894      		cli
 885 052e 5EBF      		out __SP_H__,r21
 886 0530 0FBE      		out __SREG__,__tmp_reg__
 887 0532 4DBF      		out __SP_L__,r20
 888 0534 80E0      		ldi r24,lo8(spiUSE)
 889 0536 90E0      		ldi r25,hi8(spiUSE)
 890 0538 0E94 0000 		call chSemSignal
 891               	.LM90:
 892 053c 8091 0000 		lds r24,menuprintloop
 893 0540 9091 0000 		lds r25,(menuprintloop)+1
 894 0544 0797      		sbiw r24,7
 895 0546 04F0      		brlt .+2
 896 0548 00C0      		rjmp .L57
 897 054a 2091 0000 		lds r18,curMenu
 898 054e 3091 0000 		lds r19,(curMenu)+1
 899 0552 E091 0000 		lds r30,menuCount
 900 0556 F091 0000 		lds r31,menuCount+1
 901 055a EE0F      		lsl r30
 902 055c FF1F      		rol r31
 903 055e EE0F      		lsl r30
 904 0560 FF1F      		rol r31
 905 0562 CF01      		movw r24,r30
 906 0564 880F      		lsl r24
 907 0566 991F      		rol r25
 908 0568 880F      		lsl r24
 909 056a 991F      		rol r25
 910 056c E80F      		add r30,r24
 911 056e F91F      		adc r31,r25
 912 0570 8CE8      		ldi r24,lo8(140)
 913 0572 90E0      		ldi r25,hi8(140)
 914 0574 DC01      		movw r26,r24
 915 0576 2A9F      		mul r18,r26
 916 0578 C001      		movw r24,r0
 917 057a 2B9F      		mul r18,r27
 918 057c 900D      		add r25,r0
 919 057e 3A9F      		mul r19,r26
 920 0580 900D      		add r25,r0
 921 0582 1124      		clr r1
 922 0584 E80F      		add r30,r24
 923 0586 F91F      		adc r31,r25
 924 0588 E050      		subi r30,lo8(-(menuitem))
 925 058a F040      		sbci r31,hi8(-(menuitem))
 926 058c 8081      		ld r24,Z
 927 058e 8823      		tst r24
 928 0590 01F4      		brne .+2
 929 0592 00C0      		rjmp .L57
 930               	.LM91:
 931 0594 A0E0      		ldi r26,lo8(__c.3682)
 932 0596 CA2E      		mov r12,r26
 933 0598 A0E0      		ldi r26,hi8(__c.3682)
 934 059a DA2E      		mov r13,r26
 935 059c 0CE8      		ldi r16,lo8(140)
 936 059e 10E0      		ldi r17,hi8(140)
 937               	.LM92:
 938 05a0 F0E0      		ldi r31,lo8(__c.3684)
 939 05a2 EF2E      		mov r14,r31
 940 05a4 F0E0      		ldi r31,hi8(__c.3684)
 941 05a6 FF2E      		mov r15,r31
 942 05a8 00C0      		rjmp .L63
 943               	.L58:
 944               	.LM93:
 945 05aa 80E0      		ldi r24,lo8(spiUSE)
 946 05ac 90E0      		ldi r25,hi8(spiUSE)
 947 05ae 40E0      		ldi r20,lo8(0)
 948 05b0 50E0      		ldi r21,hi8(0)
 949 05b2 60E0      		ldi r22,hlo8(0)
 950 05b4 70E0      		ldi r23,hhi8(0)
 951 05b6 0E94 0000 		call chSemWaitTimeout
 952               	.LM94:
 953 05ba 00D0      		rcall .
 954 05bc 00D0      		rcall .
 955 05be 00D0      		rcall .
 956 05c0 EDB7      		in r30,__SP_L__
 957 05c2 FEB7      		in r31,__SP_H__
 958 05c4 3196      		adiw r30,1
 959 05c6 ADB7      		in r26,__SP_L__
 960 05c8 BEB7      		in r27,__SP_H__
 961 05ca 1296      		adiw r26,1+1
 962 05cc DC93      		st X,r29
 963 05ce CE93      		st -X,r28
 964 05d0 1197      		sbiw r26,1
 965 05d2 F382      		std Z+3,r15
 966 05d4 E282      		std Z+2,r14
 967               	.L65:
 968 05d6 8091 0000 		lds r24,menuCount
 969 05da 9091 0000 		lds r25,menuCount+1
 970 05de 880F      		lsl r24
 971 05e0 991F      		rol r25
 972 05e2 880F      		lsl r24
 973 05e4 991F      		rol r25
 974 05e6 9C01      		movw r18,r24
 975 05e8 220F      		lsl r18
 976 05ea 331F      		rol r19
 977 05ec 220F      		lsl r18
 978 05ee 331F      		rol r19
 979 05f0 820F      		add r24,r18
 980 05f2 931F      		adc r25,r19
 981 05f4 2091 0000 		lds r18,curMenu
 982 05f8 3091 0000 		lds r19,(curMenu)+1
 983 05fc A901      		movw r20,r18
 984 05fe 409F      		mul r20,r16
 985 0600 9001      		movw r18,r0
 986 0602 419F      		mul r20,r17
 987 0604 300D      		add r19,r0
 988 0606 509F      		mul r21,r16
 989 0608 300D      		add r19,r0
 990 060a 1124      		clr r1
 991 060c 820F      		add r24,r18
 992 060e 931F      		adc r25,r19
 993 0610 8050      		subi r24,lo8(-(menuitem))
 994 0612 9040      		sbci r25,hi8(-(menuitem))
 995 0614 9583      		std Z+5,r25
 996 0616 8483      		std Z+4,r24
 997 0618 0E94 0000 		call fprintf_P
 998               	.LM95:
 999 061c 8DB7      		in r24,__SP_L__
 1000 061e 9EB7      		in r25,__SP_H__
 1001 0620 0696      		adiw r24,6
 1002 0622 0FB6      		in __tmp_reg__,__SREG__
 1003 0624 F894      		cli
 1004 0626 9EBF      		out __SP_H__,r25
 1005 0628 0FBE      		out __SREG__,__tmp_reg__
 1006 062a 8DBF      		out __SP_L__,r24
 1007 062c 80E0      		ldi r24,lo8(spiUSE)
 1008 062e 90E0      		ldi r25,hi8(spiUSE)
 1009 0630 0E94 0000 		call chSemSignal
 1010               	.LM96:
 1011 0634 8091 0000 		lds r24,menuprintloop
 1012 0638 9091 0000 		lds r25,(menuprintloop)+1
 1013 063c 0196      		adiw r24,1
 1014 063e 9093 0000 		sts (menuprintloop)+1,r25
 1015 0642 8093 0000 		sts menuprintloop,r24
 1016               	.LM97:
 1017 0646 E091 0000 		lds r30,menuCount
 1018 064a F091 0000 		lds r31,(menuCount)+1
 1019 064e 3196      		adiw r30,1
 1020 0650 F093 0000 		sts (menuCount)+1,r31
 1021 0654 E093 0000 		sts menuCount,r30
 1022               	.LM98:
 1023 0658 0797      		sbiw r24,7
 1024 065a 04F0      		brlt .+2
 1025 065c 00C0      		rjmp .L57
 1026 065e 2091 0000 		lds r18,curMenu
 1027 0662 3091 0000 		lds r19,(curMenu)+1
 1028 0666 EE0F      		lsl r30
 1029 0668 FF1F      		rol r31
 1030 066a EE0F      		lsl r30
 1031 066c FF1F      		rol r31
 1032 066e CF01      		movw r24,r30
 1033 0670 880F      		lsl r24
 1034 0672 991F      		rol r25
 1035 0674 880F      		lsl r24
 1036 0676 991F      		rol r25
 1037 0678 E80F      		add r30,r24
 1038 067a F91F      		adc r31,r25
 1039 067c 209F      		mul r18,r16
 1040 067e C001      		movw r24,r0
 1041 0680 219F      		mul r18,r17
 1042 0682 900D      		add r25,r0
 1043 0684 309F      		mul r19,r16
 1044 0686 900D      		add r25,r0
 1045 0688 1124      		clr r1
 1046 068a E80F      		add r30,r24
 1047 068c F91F      		adc r31,r25
 1048 068e E050      		subi r30,lo8(-(menuitem))
 1049 0690 F040      		sbci r31,hi8(-(menuitem))
 1050 0692 8081      		ld r24,Z
 1051 0694 8823      		tst r24
 1052 0696 01F4      		brne .+2
 1053 0698 00C0      		rjmp .L57
 1054               	.L63:
 1055               	.LM99:
 1056 069a 80E0      		ldi r24,lo8(spiUSE)
 1057 069c 90E0      		ldi r25,hi8(spiUSE)
 1058 069e 40E0      		ldi r20,lo8(0)
 1059 06a0 50E0      		ldi r21,hi8(0)
 1060 06a2 60E0      		ldi r22,hlo8(0)
 1061 06a4 70E0      		ldi r23,hhi8(0)
 1062 06a6 0E94 0000 		call chSemWaitTimeout
 1063               	.LM100:
 1064 06aa 8091 0000 		lds r24,menuprintloop
 1065 06ae 9091 0000 		lds r25,menuprintloop+1
 1066 06b2 BC01      		movw r22,r24
 1067 06b4 660F      		lsl r22
 1068 06b6 771F      		rol r23
 1069 06b8 660F      		lsl r22
 1070 06ba 771F      		rol r23
 1071 06bc 660F      		lsl r22
 1072 06be 771F      		rol r23
 1073 06c0 880F      		lsl r24
 1074 06c2 991F      		rol r25
 1075 06c4 680F      		add r22,r24
 1076 06c6 791F      		adc r23,r25
 1077 06c8 6C5E      		subi r22,lo8(-(20))
 1078 06ca 7F4F      		sbci r23,hi8(-(20))
 1079 06cc 85E0      		ldi r24,lo8(5)
 1080 06ce 90E0      		ldi r25,hi8(5)
 1081 06d0 0E94 0000 		call st7735_setCursor
 1082               	.LM101:
 1083 06d4 80E0      		ldi r24,lo8(spiUSE)
 1084 06d6 90E0      		ldi r25,hi8(spiUSE)
 1085 06d8 0E94 0000 		call chSemSignal
 1086               	.LM102:
 1087 06dc 2091 0000 		lds r18,pageScroll
 1088 06e0 3091 0000 		lds r19,(pageScroll)+1
 1089 06e4 C901      		movw r24,r18
 1090 06e6 880F      		lsl r24
 1091 06e8 991F      		rol r25
 1092 06ea 880F      		lsl r24
 1093 06ec 991F      		rol r25
 1094 06ee 880F      		lsl r24
 1095 06f0 991F      		rol r25
 1096 06f2 821B      		sub r24,r18
 1097 06f4 930B      		sbc r25,r19
 1098 06f6 2091 0000 		lds r18,cursorCount
 1099 06fa 3091 0000 		lds r19,(cursorCount)+1
 1100 06fe 820F      		add r24,r18
 1101 0700 931F      		adc r25,r19
 1102 0702 2091 0000 		lds r18,menuCount
 1103 0706 3091 0000 		lds r19,(menuCount)+1
 1104 070a 8217      		cp r24,r18
 1105 070c 9307      		cpc r25,r19
 1106 070e 01F0      		breq .+2
 1107 0710 00C0      		rjmp .L58
 1108               	.LM103:
 1109 0712 80E0      		ldi r24,lo8(spiUSE)
 1110 0714 90E0      		ldi r25,hi8(spiUSE)
 1111 0716 40E0      		ldi r20,lo8(0)
 1112 0718 50E0      		ldi r21,hi8(0)
 1113 071a 60E0      		ldi r22,hlo8(0)
 1114 071c 70E0      		ldi r23,hhi8(0)
 1115 071e 0E94 0000 		call chSemWaitTimeout
 1116               	.LM104:
 1117 0722 00D0      		rcall .
 1118 0724 00D0      		rcall .
 1119 0726 00D0      		rcall .
 1120 0728 EDB7      		in r30,__SP_L__
 1121 072a FEB7      		in r31,__SP_H__
 1122 072c 3196      		adiw r30,1
 1123 072e ADB7      		in r26,__SP_L__
 1124 0730 BEB7      		in r27,__SP_H__
 1125 0732 1296      		adiw r26,1+1
 1126 0734 DC93      		st X,r29
 1127 0736 CE93      		st -X,r28
 1128 0738 1197      		sbiw r26,1
 1129 073a D382      		std Z+3,r13
 1130 073c C282      		std Z+2,r12
 1131 073e 00C0      		rjmp .L65
 1132               	.L57:
 1133               	.LM105:
 1134 0740 1092 0000 		sts (menuprintloop)+1,__zero_reg__
 1135 0744 1092 0000 		sts menuprintloop,__zero_reg__
 1136               	/* epilogue start */
 1137               	.LM106:
 1138 0748 DF91      		pop r29
 1139 074a CF91      		pop r28
 1140 074c 1F91      		pop r17
 1141 074e 0F91      		pop r16
 1142 0750 FF90      		pop r15
 1143 0752 EF90      		pop r14
 1144 0754 DF90      		pop r13
 1145 0756 CF90      		pop r12
 1146 0758 0895      		ret
 1147               	.LFE80:
 1149               	.global	chPrintUnusedStack
 1151               	chPrintUnusedStack:
 1152               	.LFB71:
 1153               	.LM107:
 1154 075a EF92      		push r14
 1155 075c FF92      		push r15
 1156 075e 0F93      		push r16
 1157 0760 1F93      		push r17
 1158 0762 CF93      		push r28
 1159 0764 DF93      		push r29
 1160               	/* prologue: function */
 1161               	/* frame size = 0 */
 1162               	.LM108:
 1163 0766 00D0      		rcall .
 1164 0768 00D0      		rcall .
 1165 076a 00E0      		ldi r16,lo8(usart_out)
 1166 076c 10E0      		ldi r17,hi8(usart_out)
 1167 076e ADB7      		in r26,__SP_L__
 1168 0770 BEB7      		in r27,__SP_H__
 1169 0772 1296      		adiw r26,1+1
 1170 0774 1C93      		st X,r17
 1171 0776 0E93      		st -X,r16
 1172 0778 1197      		sbiw r26,1
 1173 077a 80E0      		ldi r24,lo8(__c.3566)
 1174 077c 90E0      		ldi r25,hi8(__c.3566)
 1175 077e 1496      		adiw r26,3+1
 1176 0780 9C93      		st X,r25
 1177 0782 8E93      		st -X,r24
 1178 0784 1397      		sbiw r26,3
 1179 0786 0E94 0000 		call fprintf_P
 1180               	.LM109:
 1181 078a 6091 0000 		lds r22,nil_thd_configs+2
 1182 078e 7091 0000 		lds r23,(nil_thd_configs+2)+1
 1183 0792 0F90      		pop __tmp_reg__
 1184 0794 0F90      		pop __tmp_reg__
 1185 0796 0F90      		pop __tmp_reg__
 1186 0798 0F90      		pop __tmp_reg__
 1187 079a 6115      		cp r22,__zero_reg__
 1188 079c 7105      		cpc r23,__zero_reg__
 1189 079e 01F0      		breq .L67
 1190 07a0 C0E0      		ldi r28,lo8(nil_thd_configs)
 1191 07a2 D0E0      		ldi r29,hi8(nil_thd_configs)
 1192 07a4 30E0      		ldi r19,lo8(__c.3568)
 1193 07a6 E32E      		mov r14,r19
 1194 07a8 30E0      		ldi r19,hi8(__c.3568)
 1195 07aa F32E      		mov r15,r19
 1196               	.L68:
 1197               	.LM110:
 1198 07ac 8881      		ld r24,Y
 1199 07ae 9981      		ldd r25,Y+1
 1200 07b0 0E94 0000 		call fillSize
 1201 07b4 00D0      		rcall .
 1202 07b6 00D0      		rcall .
 1203 07b8 00D0      		rcall .
 1204 07ba EDB7      		in r30,__SP_L__
 1205 07bc FEB7      		in r31,__SP_H__
 1206 07be 3196      		adiw r30,1
 1207 07c0 ADB7      		in r26,__SP_L__
 1208 07c2 BEB7      		in r27,__SP_H__
 1209 07c4 1296      		adiw r26,1+1
 1210 07c6 1C93      		st X,r17
 1211 07c8 0E93      		st -X,r16
 1212 07ca 1197      		sbiw r26,1
 1213 07cc F382      		std Z+3,r15
 1214 07ce E282      		std Z+2,r14
 1215 07d0 9583      		std Z+5,r25
 1216 07d2 8483      		std Z+4,r24
 1217 07d4 0E94 0000 		call fprintf_P
 1218               	.LM111:
 1219 07d8 2A96      		adiw r28,10
 1220               	.LM112:
 1221 07da 6A81      		ldd r22,Y+2
 1222 07dc 7B81      		ldd r23,Y+3
 1223 07de EDB7      		in r30,__SP_L__
 1224 07e0 FEB7      		in r31,__SP_H__
 1225 07e2 3696      		adiw r30,6
 1226 07e4 0FB6      		in __tmp_reg__,__SREG__
 1227 07e6 F894      		cli
 1228 07e8 FEBF      		out __SP_H__,r31
 1229 07ea 0FBE      		out __SREG__,__tmp_reg__
 1230 07ec EDBF      		out __SP_L__,r30
 1231 07ee 6115      		cp r22,__zero_reg__
 1232 07f0 7105      		cpc r23,__zero_reg__
 1233 07f2 01F4      		brne .L68
 1234               	.L67:
 1235               	.LBB163:
 1236               	.LBB164:
 1237               	.LM113:
 1238 07f4 8091 0000 		lds r24,__brkval
 1239 07f8 9091 0000 		lds r25,(__brkval)+1
 1240 07fc 0097      		sbiw r24,0
 1241 07fe 01F0      		breq .L72
 1242               	.L69:
 1243               	.LBE164:
 1244               	.LBE163:
 1245               	.LM114:
 1246 0800 6FEF      		ldi r22,lo8(16639)
 1247 0802 70E4      		ldi r23,hi8(16639)
 1248 0804 0E94 0000 		call fillSize
 1249 0808 00D0      		rcall .
 1250 080a 00D0      		rcall .
 1251 080c 00D0      		rcall .
 1252 080e EDB7      		in r30,__SP_L__
 1253 0810 FEB7      		in r31,__SP_H__
 1254 0812 3196      		adiw r30,1
 1255 0814 ADB7      		in r26,__SP_L__
 1256 0816 BEB7      		in r27,__SP_H__
 1257 0818 1296      		adiw r26,1+1
 1258 081a 1C93      		st X,r17
 1259 081c 0E93      		st -X,r16
 1260 081e 1197      		sbiw r26,1
 1261 0820 20E0      		ldi r18,lo8(__c.3573)
 1262 0822 30E0      		ldi r19,hi8(__c.3573)
 1263 0824 3383      		std Z+3,r19
 1264 0826 2283      		std Z+2,r18
 1265 0828 9583      		std Z+5,r25
 1266 082a 8483      		std Z+4,r24
 1267 082c 0E94 0000 		call fprintf_P
 1268 0830 EDB7      		in r30,__SP_L__
 1269 0832 FEB7      		in r31,__SP_H__
 1270 0834 3696      		adiw r30,6
 1271 0836 0FB6      		in __tmp_reg__,__SREG__
 1272 0838 F894      		cli
 1273 083a FEBF      		out __SP_H__,r31
 1274 083c 0FBE      		out __SREG__,__tmp_reg__
 1275 083e EDBF      		out __SP_L__,r30
 1276               	/* epilogue start */
 1277               	.LM115:
 1278 0840 DF91      		pop r29
 1279 0842 CF91      		pop r28
 1280 0844 1F91      		pop r17
 1281 0846 0F91      		pop r16
 1282 0848 FF90      		pop r15
 1283 084a EF90      		pop r14
 1284 084c 0895      		ret
 1285               	.L72:
 1286               	.LBB166:
 1287               	.LBB165:
 1288               	.LM116:
 1289 084e 8091 0000 		lds r24,__malloc_heap_start
 1290 0852 9091 0000 		lds r25,(__malloc_heap_start)+1
 1291 0856 00C0      		rjmp .L69
 1292               	.LBE165:
 1293               	.LBE166:
 1294               	.LFE71:
 1296               	.global	chPrintStackSizes
 1298               	chPrintStackSizes:
 1299               	.LFB70:
 1300               	.LM117:
 1301 0858 EF92      		push r14
 1302 085a FF92      		push r15
 1303 085c 0F93      		push r16
 1304 085e 1F93      		push r17
 1305 0860 CF93      		push r28
 1306 0862 DF93      		push r29
 1307               	/* prologue: function */
 1308               	/* frame size = 0 */
 1309               	.LM118:
 1310 0864 00D0      		rcall .
 1311 0866 00D0      		rcall .
 1312 0868 00E0      		ldi r16,lo8(usart_out)
 1313 086a 10E0      		ldi r17,hi8(usart_out)
 1314 086c ADB7      		in r26,__SP_L__
 1315 086e BEB7      		in r27,__SP_H__
 1316 0870 1296      		adiw r26,1+1
 1317 0872 1C93      		st X,r17
 1318 0874 0E93      		st -X,r16
 1319 0876 1197      		sbiw r26,1
 1320 0878 80E0      		ldi r24,lo8(__c.3547)
 1321 087a 90E0      		ldi r25,hi8(__c.3547)
 1322 087c 1496      		adiw r26,3+1
 1323 087e 9C93      		st X,r25
 1324 0880 8E93      		st -X,r24
 1325 0882 1397      		sbiw r26,3
 1326 0884 0E94 0000 		call fprintf_P
 1327               	.LM119:
 1328 0888 2091 0000 		lds r18,nil_thd_configs+2
 1329 088c 3091 0000 		lds r19,(nil_thd_configs+2)+1
 1330 0890 0F90      		pop __tmp_reg__
 1331 0892 0F90      		pop __tmp_reg__
 1332 0894 0F90      		pop __tmp_reg__
 1333 0896 0F90      		pop __tmp_reg__
 1334 0898 2115      		cp r18,__zero_reg__
 1335 089a 3105      		cpc r19,__zero_reg__
 1336 089c 01F0      		breq .L74
 1337 089e C0E0      		ldi r28,lo8(nil_thd_configs)
 1338 08a0 D0E0      		ldi r29,hi8(nil_thd_configs)
 1339 08a2 40E0      		ldi r20,lo8(__c.3549)
 1340 08a4 E42E      		mov r14,r20
 1341 08a6 40E0      		ldi r20,hi8(__c.3549)
 1342 08a8 F42E      		mov r15,r20
 1343               	.L75:
 1344               	.LM120:
 1345 08aa 00D0      		rcall .
 1346 08ac 00D0      		rcall .
 1347 08ae 00D0      		rcall .
 1348 08b0 EDB7      		in r30,__SP_L__
 1349 08b2 FEB7      		in r31,__SP_H__
 1350 08b4 3196      		adiw r30,1
 1351 08b6 ADB7      		in r26,__SP_L__
 1352 08b8 BEB7      		in r27,__SP_H__
 1353 08ba 1296      		adiw r26,1+1
 1354 08bc 1C93      		st X,r17
 1355 08be 0E93      		st -X,r16
 1356 08c0 1197      		sbiw r26,1
 1357 08c2 F382      		std Z+3,r15
 1358 08c4 E282      		std Z+2,r14
 1359 08c6 8881      		ld r24,Y
 1360 08c8 9981      		ldd r25,Y+1
 1361 08ca 281B      		sub r18,r24
 1362 08cc 390B      		sbc r19,r25
 1363 08ce 3583      		std Z+5,r19
 1364 08d0 2483      		std Z+4,r18
 1365 08d2 0E94 0000 		call fprintf_P
 1366               	.LM121:
 1367 08d6 2A96      		adiw r28,10
 1368               	.LM122:
 1369 08d8 2A81      		ldd r18,Y+2
 1370 08da 3B81      		ldd r19,Y+3
 1371 08dc EDB7      		in r30,__SP_L__
 1372 08de FEB7      		in r31,__SP_H__
 1373 08e0 3696      		adiw r30,6
 1374 08e2 0FB6      		in __tmp_reg__,__SREG__
 1375 08e4 F894      		cli
 1376 08e6 FEBF      		out __SP_H__,r31
 1377 08e8 0FBE      		out __SREG__,__tmp_reg__
 1378 08ea EDBF      		out __SP_L__,r30
 1379 08ec 2115      		cp r18,__zero_reg__
 1380 08ee 3105      		cpc r19,__zero_reg__
 1381 08f0 01F4      		brne .L75
 1382               	.L74:
 1383               	.LM123:
 1384 08f2 00D0      		rcall .
 1385 08f4 00D0      		rcall .
 1386 08f6 00D0      		rcall .
 1387 08f8 EDB7      		in r30,__SP_L__
 1388 08fa FEB7      		in r31,__SP_H__
 1389 08fc 3196      		adiw r30,1
 1390 08fe ADB7      		in r26,__SP_L__
 1391 0900 BEB7      		in r27,__SP_H__
 1392 0902 1296      		adiw r26,1+1
 1393 0904 1C93      		st X,r17
 1394 0906 0E93      		st -X,r16
 1395 0908 1197      		sbiw r26,1
 1396 090a 80E0      		ldi r24,lo8(__c.3554)
 1397 090c 90E0      		ldi r25,hi8(__c.3554)
 1398 090e 9383      		std Z+3,r25
 1399 0910 8283      		std Z+2,r24
 1400 0912 80E0      		ldi r24,lo8(16640)
 1401 0914 91E4      		ldi r25,hi8(16640)
 1402 0916 2091 0000 		lds r18,__malloc_heap_start
 1403 091a 3091 0000 		lds r19,(__malloc_heap_start)+1
 1404 091e 821B      		sub r24,r18
 1405 0920 930B      		sbc r25,r19
 1406 0922 9583      		std Z+5,r25
 1407 0924 8483      		std Z+4,r24
 1408 0926 0E94 0000 		call fprintf_P
 1409 092a EDB7      		in r30,__SP_L__
 1410 092c FEB7      		in r31,__SP_H__
 1411 092e 3696      		adiw r30,6
 1412 0930 0FB6      		in __tmp_reg__,__SREG__
 1413 0932 F894      		cli
 1414 0934 FEBF      		out __SP_H__,r31
 1415 0936 0FBE      		out __SREG__,__tmp_reg__
 1416 0938 EDBF      		out __SP_L__,r30
 1417               	/* epilogue start */
 1418               	.LM124:
 1419 093a DF91      		pop r29
 1420 093c CF91      		pop r28
 1421 093e 1F91      		pop r17
 1422 0940 0F91      		pop r16
 1423 0942 FF90      		pop r15
 1424 0944 EF90      		pop r14
 1425 0946 0895      		ret
 1426               	.LFE70:
 1428               	.global	Thread14
 1430               	Thread14:
 1431               	.LFB95:
 1432               	.LM125:
 1433               	.LVL29:
 1434               	/* prologue: function */
 1435               	/* frame size = 0 */
 1436               	.LM126:
 1437 0948 8091 0000 		lds r24,nil
 1438 094c 9091 0000 		lds r25,(nil)+1
 1439               	.LVL30:
 1440 0950 9093 0000 		sts (tp+26)+1,r25
 1441 0954 8093 0000 		sts tp+26,r24
 1442 0958 C0E0      		ldi r28,lo8(st7735_out)
 1443 095a D0E0      		ldi r29,hi8(st7735_out)
 1444 095c F0E0      		ldi r31,lo8(__c.4359)
 1445 095e 6F2E      		mov r6,r31
 1446 0960 F0E0      		ldi r31,hi8(__c.4359)
 1447 0962 7F2E      		mov r7,r31
 1448 0964 E0E0      		ldi r30,lo8(__c.4361)
 1449 0966 AE2E      		mov r10,r30
 1450 0968 E0E0      		ldi r30,hi8(__c.4361)
 1451 096a BE2E      		mov r11,r30
 1452 096c 70E0      		ldi r23,lo8(__c.4364)
 1453 096e C72E      		mov r12,r23
 1454 0970 70E0      		ldi r23,hi8(__c.4364)
 1455 0972 D72E      		mov r13,r23
 1456 0974 60E0      		ldi r22,lo8(__c.4366)
 1457 0976 E62E      		mov r14,r22
 1458 0978 60E0      		ldi r22,hi8(__c.4366)
 1459 097a F62E      		mov r15,r22
 1460               	.LM127:
 1461 097c 5EE0      		ldi r21,lo8(14)
 1462 097e 952E      		mov r9,r21
 1463               	.LVL31:
 1464               	.L82:
 1465               	.LM128:
 1466 0980 81E0      		ldi r24,lo8(1)
 1467 0982 40E0      		ldi r20,lo8(0)
 1468 0984 50E0      		ldi r21,hi8(0)
 1469 0986 60E0      		ldi r22,hlo8(0)
 1470 0988 70E0      		ldi r23,hhi8(0)
 1471 098a 0E94 0000 		call chEvtWaitAnyTimeout
 1472               	.LM129:
 1473 098e 80E0      		ldi r24,lo8(lcdUSE)
 1474 0990 90E0      		ldi r25,hi8(lcdUSE)
 1475 0992 40E0      		ldi r20,lo8(0)
 1476 0994 50E0      		ldi r21,hi8(0)
 1477 0996 60E0      		ldi r22,hlo8(0)
 1478 0998 70E0      		ldi r23,hhi8(0)
 1479 099a 0E94 0000 		call chSemWaitTimeout
 1480               	.LM130:
 1481 099e 9092 0000 		sts lcd_context,r9
 1482               	.LM131:
 1483 09a2 80E0      		ldi r24,lo8(i2cUSE)
 1484 09a4 90E0      		ldi r25,hi8(i2cUSE)
 1485 09a6 40E0      		ldi r20,lo8(0)
 1486 09a8 50E0      		ldi r21,hi8(0)
 1487 09aa 60E0      		ldi r22,hlo8(0)
 1488 09ac 70E0      		ldi r23,hhi8(0)
 1489 09ae 0E94 0000 		call chSemWaitTimeout
 1490               	.LM132:
 1491 09b2 0091 0000 		lds r16,hr_format
 1492 09b6 1091 0000 		lds r17,(hr_format)+1
 1493 09ba 80E0      		ldi r24,lo8(hr)
 1494 09bc 90E0      		ldi r25,hi8(hr)
 1495 09be 60E0      		ldi r22,lo8(min)
 1496 09c0 70E0      		ldi r23,hi8(min)
 1497 09c2 40E0      		ldi r20,lo8(s)
 1498 09c4 50E0      		ldi r21,hi8(s)
 1499 09c6 20E0      		ldi r18,lo8(am_pm)
 1500 09c8 30E0      		ldi r19,hi8(am_pm)
 1501 09ca 0E94 0000 		call DS3231_getTime
 1502               	.LM133:
 1503 09ce 80E0      		ldi r24,lo8(i2cUSE)
 1504 09d0 90E0      		ldi r25,hi8(i2cUSE)
 1505 09d2 0E94 0000 		call chSemSignal
 1506               	.LM134:
 1507 09d6 80E0      		ldi r24,lo8(spiUSE)
 1508 09d8 90E0      		ldi r25,hi8(spiUSE)
 1509 09da 40E0      		ldi r20,lo8(0)
 1510 09dc 50E0      		ldi r21,hi8(0)
 1511 09de 60E0      		ldi r22,hlo8(0)
 1512 09e0 70E0      		ldi r23,hhi8(0)
 1513 09e2 0E94 0000 		call chSemWaitTimeout
 1514               	.LM135:
 1515 09e6 80E0      		ldi r24,lo8(0)
 1516 09e8 60E0      		ldi r22,lo8(0)
 1517 09ea 40EA      		ldi r20,lo8(-96)
 1518 09ec 20E8      		ldi r18,lo8(-128)
 1519 09ee 00E0      		ldi r16,lo8(0)
 1520 09f0 10E0      		ldi r17,hi8(0)
 1521 09f2 0E94 0000 		call st7735_fill_rect
 1522               	.LM136:
 1523 09f6 80E0      		ldi r24,lo8(spiUSE)
 1524 09f8 90E0      		ldi r25,hi8(spiUSE)
 1525 09fa 0E94 0000 		call chSemSignal
 1526               	.LM137:
 1527 09fe 80E0      		ldi r24,lo8(spiUSE)
 1528 0a00 90E0      		ldi r25,hi8(spiUSE)
 1529 0a02 40E0      		ldi r20,lo8(0)
 1530 0a04 50E0      		ldi r21,hi8(0)
 1531 0a06 60E0      		ldi r22,hlo8(0)
 1532 0a08 70E0      		ldi r23,hhi8(0)
 1533 0a0a 0E94 0000 		call chSemWaitTimeout
 1534               	.LM138:
 1535 0a0e 80E0      		ldi r24,lo8(0)
 1536 0a10 90E0      		ldi r25,hi8(0)
 1537 0a12 62E3      		ldi r22,lo8(50)
 1538 0a14 70E0      		ldi r23,hi8(50)
 1539 0a16 0E94 0000 		call st7735_setCursor
 1540               	.LM139:
 1541 0a1a 8091 0000 		lds r24,am_pm
 1542 0a1e 9091 0000 		lds r25,(am_pm)+1
 1543 0a22 0197      		sbiw r24,1
 1544 0a24 01F4      		brne .+2
 1545 0a26 00C0      		rjmp .L94
 1546               	.LM140:
 1547 0a28 ADB7      		in r26,__SP_L__
 1548 0a2a BEB7      		in r27,__SP_H__
 1549 0a2c 1A97      		sbiw r26,10
 1550 0a2e 0FB6      		in __tmp_reg__,__SREG__
 1551 0a30 F894      		cli
 1552 0a32 BEBF      		out __SP_H__,r27
 1553 0a34 0FBE      		out __SREG__,__tmp_reg__
 1554 0a36 ADBF      		out __SP_L__,r26
 1555 0a38 EDB7      		in r30,__SP_L__
 1556 0a3a FEB7      		in r31,__SP_H__
 1557 0a3c 3196      		adiw r30,1
 1558 0a3e 1296      		adiw r26,1+1
 1559 0a40 DC93      		st X,r29
 1560 0a42 CE93      		st -X,r28
 1561 0a44 1197      		sbiw r26,1
 1562 0a46 B382      		std Z+3,r11
 1563 0a48 A282      		std Z+2,r10
 1564               	.L92:
 1565 0a4a 8091 0000 		lds r24,hr
 1566 0a4e 8483      		std Z+4,r24
 1567 0a50 1582      		std Z+5,__zero_reg__
 1568 0a52 8091 0000 		lds r24,min
 1569 0a56 8683      		std Z+6,r24
 1570 0a58 1782      		std Z+7,__zero_reg__
 1571 0a5a 8091 0000 		lds r24,s
 1572 0a5e 8087      		std Z+8,r24
 1573 0a60 1186      		std Z+9,__zero_reg__
 1574 0a62 0E94 0000 		call fprintf_P
 1575 0a66 8DB7      		in r24,__SP_L__
 1576 0a68 9EB7      		in r25,__SP_H__
 1577 0a6a 0A96      		adiw r24,10
 1578 0a6c 0FB6      		in __tmp_reg__,__SREG__
 1579 0a6e F894      		cli
 1580 0a70 9EBF      		out __SP_H__,r25
 1581 0a72 0FBE      		out __SREG__,__tmp_reg__
 1582 0a74 8DBF      		out __SP_L__,r24
 1583               	.LM141:
 1584 0a76 80E0      		ldi r24,lo8(spiUSE)
 1585 0a78 90E0      		ldi r25,hi8(spiUSE)
 1586 0a7a 0E94 0000 		call chSemSignal
 1587 0a7e 11E0      		ldi r17,lo8(1)
 1588 0a80 00C0      		rjmp .L90
 1589               	.L83:
 1590               	.LM142:
 1591 0a82 84E0      		ldi r24,lo8(4)
 1592 0a84 4FEF      		ldi r20,lo8(-1)
 1593 0a86 5FEF      		ldi r21,hi8(-1)
 1594 0a88 6FEF      		ldi r22,hlo8(-1)
 1595 0a8a 7FEF      		ldi r23,hhi8(-1)
 1596 0a8c 0E94 0000 		call chEvtWaitAnyTimeout
 1597 0a90 8430      		cpi r24,lo8(4)
 1598 0a92 01F4      		brne .+2
 1599 0a94 00C0      		rjmp .L95
 1600               	.L84:
 1601               	.LM143:
 1602 0a96 80E0      		ldi r24,lo8(spiUSE)
 1603 0a98 90E0      		ldi r25,hi8(spiUSE)
 1604 0a9a 40E0      		ldi r20,lo8(0)
 1605 0a9c 50E0      		ldi r21,hi8(0)
 1606 0a9e 60E0      		ldi r22,hlo8(0)
 1607 0aa0 70E0      		ldi r23,hhi8(0)
 1608 0aa2 0E94 0000 		call chSemWaitTimeout
 1609               	.LM144:
 1610 0aa6 80E0      		ldi r24,lo8(0)
 1611 0aa8 90E0      		ldi r25,hi8(0)
 1612 0aaa 62E3      		ldi r22,lo8(50)
 1613 0aac 70E0      		ldi r23,hi8(50)
 1614 0aae 0E94 0000 		call st7735_setCursor
 1615               	.LM145:
 1616 0ab2 8091 0000 		lds r24,am_pm
 1617 0ab6 9091 0000 		lds r25,(am_pm)+1
 1618 0aba 0197      		sbiw r24,1
 1619 0abc 01F4      		brne .+2
 1620 0abe 00C0      		rjmp .L96
 1621               	.LM146:
 1622 0ac0 ADB7      		in r26,__SP_L__
 1623 0ac2 BEB7      		in r27,__SP_H__
 1624 0ac4 1A97      		sbiw r26,10
 1625 0ac6 0FB6      		in __tmp_reg__,__SREG__
 1626 0ac8 F894      		cli
 1627 0aca BEBF      		out __SP_H__,r27
 1628 0acc 0FBE      		out __SREG__,__tmp_reg__
 1629 0ace ADBF      		out __SP_L__,r26
 1630 0ad0 EDB7      		in r30,__SP_L__
 1631 0ad2 FEB7      		in r31,__SP_H__
 1632 0ad4 3196      		adiw r30,1
 1633 0ad6 1296      		adiw r26,1+1
 1634 0ad8 DC93      		st X,r29
 1635 0ada CE93      		st -X,r28
 1636 0adc 1197      		sbiw r26,1
 1637 0ade F382      		std Z+3,r15
 1638 0ae0 E282      		std Z+2,r14
 1639               	.L93:
 1640 0ae2 8091 0000 		lds r24,hr
 1641 0ae6 8483      		std Z+4,r24
 1642 0ae8 1582      		std Z+5,__zero_reg__
 1643 0aea 8091 0000 		lds r24,min
 1644 0aee 8683      		std Z+6,r24
 1645 0af0 1782      		std Z+7,__zero_reg__
 1646 0af2 8091 0000 		lds r24,s
 1647 0af6 8087      		std Z+8,r24
 1648 0af8 1186      		std Z+9,__zero_reg__
 1649 0afa 0E94 0000 		call fprintf_P
 1650 0afe 8DB7      		in r24,__SP_L__
 1651 0b00 9EB7      		in r25,__SP_H__
 1652 0b02 0A96      		adiw r24,10
 1653 0b04 0FB6      		in __tmp_reg__,__SREG__
 1654 0b06 F894      		cli
 1655 0b08 9EBF      		out __SP_H__,r25
 1656 0b0a 0FBE      		out __SREG__,__tmp_reg__
 1657 0b0c 8DBF      		out __SP_L__,r24
 1658               	.LM147:
 1659 0b0e 80E0      		ldi r24,lo8(spiUSE)
 1660 0b10 90E0      		ldi r25,hi8(spiUSE)
 1661 0b12 0E94 0000 		call chSemSignal
 1662               	.LM148:
 1663 0b16 60ED      		ldi r22,lo8(2000)
 1664 0b18 77E0      		ldi r23,hi8(2000)
 1665 0b1a 80E0      		ldi r24,hlo8(2000)
 1666 0b1c 90E0      		ldi r25,hhi8(2000)
 1667 0b1e 0E94 0000 		call chThdSleep
 1668               	.L90:
 1669               	.LM149:
 1670 0b22 88E0      		ldi r24,lo8(8)
 1671 0b24 4FEF      		ldi r20,lo8(-1)
 1672 0b26 5FEF      		ldi r21,hi8(-1)
 1673 0b28 6FEF      		ldi r22,hlo8(-1)
 1674 0b2a 7FEF      		ldi r23,hhi8(-1)
 1675 0b2c 0E94 0000 		call chEvtWaitAnyTimeout
 1676 0b30 8830      		cpi r24,lo8(8)
 1677 0b32 01F4      		brne .+2
 1678 0b34 00C0      		rjmp .L97
 1679               	.LM150:
 1680 0b36 82E0      		ldi r24,lo8(2)
 1681 0b38 4FEF      		ldi r20,lo8(-1)
 1682 0b3a 5FEF      		ldi r21,hi8(-1)
 1683 0b3c 6FEF      		ldi r22,hlo8(-1)
 1684 0b3e 7FEF      		ldi r23,hhi8(-1)
 1685 0b40 0E94 0000 		call chEvtWaitAnyTimeout
 1686 0b44 8230      		cpi r24,lo8(2)
 1687 0b46 01F0      		breq .+2
 1688 0b48 00C0      		rjmp .L83
 1689               	.LM151:
 1690 0b4a 1091 0000 		lds r17,lcd_context_count+13
 1691 0b4e 00C0      		rjmp .L83
 1692               	.L96:
 1693               	.LM152:
 1694 0b50 ADB7      		in r26,__SP_L__
 1695 0b52 BEB7      		in r27,__SP_H__
 1696 0b54 1A97      		sbiw r26,10
 1697 0b56 0FB6      		in __tmp_reg__,__SREG__
 1698 0b58 F894      		cli
 1699 0b5a BEBF      		out __SP_H__,r27
 1700 0b5c 0FBE      		out __SREG__,__tmp_reg__
 1701 0b5e ADBF      		out __SP_L__,r26
 1702 0b60 EDB7      		in r30,__SP_L__
 1703 0b62 FEB7      		in r31,__SP_H__
 1704 0b64 3196      		adiw r30,1
 1705 0b66 1296      		adiw r26,1+1
 1706 0b68 DC93      		st X,r29
 1707 0b6a CE93      		st -X,r28
 1708 0b6c 1197      		sbiw r26,1
 1709 0b6e D382      		std Z+3,r13
 1710 0b70 C282      		std Z+2,r12
 1711 0b72 00C0      		rjmp .L93
 1712               	.L95:
 1713               	.LM153:
 1714 0b74 1130      		cpi r17,lo8(1)
 1715 0b76 01F0      		breq .L98
 1716               	.LM154:
 1717 0b78 1230      		cpi r17,lo8(2)
 1718 0b7a 01F0      		breq .L99
 1719               	.LM155:
 1720 0b7c 1330      		cpi r17,lo8(3)
 1721 0b7e 01F0      		breq .+2
 1722 0b80 00C0      		rjmp .L87
 1723               	.LM156:
 1724 0b82 8091 0000 		lds r24,s
 1725 0b86 8F5F      		subi r24,lo8(-(1))
 1726 0b88 8093 0000 		sts s,r24
 1727               	.LM157:
 1728 0b8c 8C33      		cpi r24,lo8(60)
 1729 0b8e 00F4      		brsh .+2
 1730 0b90 00C0      		rjmp .L84
 1731               	.LM158:
 1732 0b92 1092 0000 		sts s,__zero_reg__
 1733 0b96 00C0      		rjmp .L84
 1734               	.L98:
 1735               	.LM159:
 1736 0b98 8091 0000 		lds r24,hr
 1737 0b9c 8F5F      		subi r24,lo8(-(1))
 1738 0b9e 8093 0000 		sts hr,r24
 1739               	.LM160:
 1740 0ba2 8D30      		cpi r24,lo8(13)
 1741 0ba4 00F4      		brsh .+2
 1742 0ba6 00C0      		rjmp .L84
 1743               	.LM161:
 1744 0ba8 1093 0000 		sts hr,r17
 1745 0bac 00C0      		rjmp .L84
 1746               	.L99:
 1747               	.LM162:
 1748 0bae 8091 0000 		lds r24,min
 1749 0bb2 8F5F      		subi r24,lo8(-(1))
 1750 0bb4 8093 0000 		sts min,r24
 1751               	.LM163:
 1752 0bb8 8C33      		cpi r24,lo8(60)
 1753 0bba 00F4      		brsh .+2
 1754 0bbc 00C0      		rjmp .L84
 1755               	.LM164:
 1756 0bbe 1092 0000 		sts min,__zero_reg__
 1757 0bc2 00C0      		rjmp .L84
 1758               	.L97:
 1759               	.LM165:
 1760 0bc4 80E0      		ldi r24,lo8(i2cUSE)
 1761 0bc6 90E0      		ldi r25,hi8(i2cUSE)
 1762 0bc8 40E0      		ldi r20,lo8(0)
 1763 0bca 50E0      		ldi r21,hi8(0)
 1764 0bcc 60E0      		ldi r22,hlo8(0)
 1765 0bce 70E0      		ldi r23,hhi8(0)
 1766 0bd0 0E94 0000 		call chSemWaitTimeout
 1767               	.LM166:
 1768 0bd4 2091 0000 		lds r18,am_pm
 1769 0bd8 3091 0000 		lds r19,(am_pm)+1
 1770 0bdc 0091 0000 		lds r16,hr_format
 1771 0be0 1091 0000 		lds r17,(hr_format)+1
 1772 0be4 8091 0000 		lds r24,hr
 1773 0be8 6091 0000 		lds r22,min
 1774 0bec 4091 0000 		lds r20,s
 1775 0bf0 0E94 0000 		call DS3231_setTime
 1776               	.LM167:
 1777 0bf4 80E0      		ldi r24,lo8(i2cUSE)
 1778 0bf6 90E0      		ldi r25,hi8(i2cUSE)
 1779 0bf8 0E94 0000 		call chSemSignal
 1780               	.LM168:
 1781 0bfc 80E0      		ldi r24,lo8(lcdUSE)
 1782 0bfe 90E0      		ldi r25,hi8(lcdUSE)
 1783 0c00 0E94 0000 		call chSemSignal
 1784 0c04 00C0      		rjmp .L82
 1785               	.L87:
 1786               	.LM169:
 1787 0c06 1430      		cpi r17,lo8(4)
 1788 0c08 01F0      		breq .+2
 1789 0c0a 00C0      		rjmp .L84
 1790               	.LM170:
 1791 0c0c 8091 0000 		lds r24,am_pm
 1792 0c10 9091 0000 		lds r25,(am_pm)+1
 1793 0c14 0196      		adiw r24,1
 1794 0c16 9093 0000 		sts (am_pm)+1,r25
 1795 0c1a 8093 0000 		sts am_pm,r24
 1796               	.LM171:
 1797 0c1e 0297      		sbiw r24,2
 1798 0c20 04F4      		brge .+2
 1799 0c22 00C0      		rjmp .L84
 1800               	.LM172:
 1801 0c24 1092 0000 		sts (am_pm)+1,__zero_reg__
 1802 0c28 1092 0000 		sts am_pm,__zero_reg__
 1803 0c2c 00C0      		rjmp .L84
 1804               	.L94:
 1805               	.LM173:
 1806 0c2e 8DB7      		in r24,__SP_L__
 1807 0c30 9EB7      		in r25,__SP_H__
 1808 0c32 0A97      		sbiw r24,10
 1809 0c34 0FB6      		in __tmp_reg__,__SREG__
 1810 0c36 F894      		cli
 1811 0c38 9EBF      		out __SP_H__,r25
 1812 0c3a 0FBE      		out __SREG__,__tmp_reg__
 1813 0c3c 8DBF      		out __SP_L__,r24
 1814 0c3e EDB7      		in r30,__SP_L__
 1815 0c40 FEB7      		in r31,__SP_H__
 1816 0c42 3196      		adiw r30,1
 1817 0c44 ADB7      		in r26,__SP_L__
 1818 0c46 BEB7      		in r27,__SP_H__
 1819 0c48 1296      		adiw r26,1+1
 1820 0c4a DC93      		st X,r29
 1821 0c4c CE93      		st -X,r28
 1822 0c4e 1197      		sbiw r26,1
 1823 0c50 7382      		std Z+3,r7
 1824 0c52 6282      		std Z+2,r6
 1825 0c54 00C0      		rjmp .L92
 1826               	.LFE95:
 1828               	.global	Thread13
 1830               	Thread13:
 1831               	.LFB94:
 1832               	.LM174:
 1833               	.LVL32:
 1834               	/* prologue: function */
 1835               	/* frame size = 0 */
 1836               	.LM175:
 1837 0c56 80E4      		ldi r24,lo8(64)
 1838               	.LVL33:
 1839 0c58 8093 7C00 		sts 124,r24
 1840               	.LM176:
 1841 0c5c 87E8      		ldi r24,lo8(-121)
 1842 0c5e 8093 7A00 		sts 122,r24
 1843               	.LM177:
 1844 0c62 60EA      		ldi r22,lo8(4000)
 1845 0c64 7FE0      		ldi r23,hi8(4000)
 1846 0c66 80E0      		ldi r24,hlo8(4000)
 1847 0c68 90E0      		ldi r25,hhi8(4000)
 1848 0c6a 0E94 0000 		call chThdSleep
 1849               	.LM178:
 1850 0c6e 8091 7C00 		lds r24,124
 1851 0c72 887F      		andi r24,lo8(-8)
 1852 0c74 8560      		ori r24,lo8(5)
 1853 0c76 8093 7C00 		sts 124,r24
 1854 0c7a 10E0      		ldi r17,lo8(0)
 1855               	.LVL34:
 1856 0c7c C0E0      		ldi r28,lo8(0)
 1857 0c7e D0E0      		ldi r29,hi8(0)
 1858               	.LVL35:
 1859               	.L104:
 1860               	.LM179:
 1861 0c80 1F5F      		subi r17,lo8(-(1))
 1862               	.LM180:
 1863 0c82 8091 7A00 		lds r24,122
 1864 0c86 8064      		ori r24,lo8(64)
 1865 0c88 8093 7A00 		sts 122,r24
 1866               	.LM181:
 1867 0c8c 8091 7A00 		lds r24,122
 1868 0c90 86FF      		sbrs r24,6
 1869 0c92 00C0      		rjmp .L101
 1870               	.L106:
 1871 0c94 68E2      		ldi r22,lo8(40)
 1872 0c96 70E0      		ldi r23,hi8(40)
 1873 0c98 80E0      		ldi r24,hlo8(40)
 1874 0c9a 90E0      		ldi r25,hhi8(40)
 1875 0c9c 0E94 0000 		call chThdSleep
 1876 0ca0 8091 7A00 		lds r24,122
 1877 0ca4 86FD      		sbrc r24,6
 1878 0ca6 00C0      		rjmp .L106
 1879               	.L101:
 1880               	.LM182:
 1881 0ca8 8091 7800 		lds r24,120
 1882 0cac 9091 7900 		lds r25,(120)+1
 1883 0cb0 C80F      		add r28,r24
 1884 0cb2 D91F      		adc r29,r25
 1885               	.LM183:
 1886 0cb4 1F31      		cpi r17,lo8(31)
 1887 0cb6 00F0      		brlo .L103
 1888               	.LM184:
 1889 0cb8 CE01      		movw r24,r28
 1890 0cba 612F      		mov r22,r17
 1891 0cbc 70E0      		ldi r23,lo8(0)
 1892 0cbe 0E94 0000 		call __udivmodhi4
 1893 0cc2 80E0      		ldi r24,lo8(0)
 1894 0cc4 90E0      		ldi r25,hi8(0)
 1895 0cc6 24E9      		ldi r18,lo8(660)
 1896 0cc8 32E0      		ldi r19,hi8(660)
 1897 0cca 40E0      		ldi r20,hlo8(660)
 1898 0ccc 50E0      		ldi r21,hhi8(660)
 1899 0cce 0E94 0000 		call __mulsi3
 1900 0cd2 AAE0      		ldi r26,10
 1901 0cd4 9695      	1:	lsr r25
 1902 0cd6 8795      		ror r24
 1903 0cd8 7795      		ror r23
 1904 0cda 6795      		ror r22
 1905 0cdc AA95      		dec r26
 1906 0cde 01F4      		brne 1b
 1907 0ce0 6093 0000 		sts battery_average,r22
 1908 0ce4 7093 0000 		sts (battery_average)+1,r23
 1909 0ce8 8093 0000 		sts (battery_average)+2,r24
 1910 0cec 9093 0000 		sts (battery_average)+3,r25
 1911 0cf0 10E0      		ldi r17,lo8(0)
 1912 0cf2 C0E0      		ldi r28,lo8(0)
 1913 0cf4 D0E0      		ldi r29,hi8(0)
 1914               	.L103:
 1915               	.LM185:
 1916 0cf6 60EA      		ldi r22,lo8(4000)
 1917 0cf8 7FE0      		ldi r23,hi8(4000)
 1918 0cfa 80E0      		ldi r24,hlo8(4000)
 1919 0cfc 90E0      		ldi r25,hhi8(4000)
 1920 0cfe 0E94 0000 		call chThdSleep
 1921 0d02 00C0      		rjmp .L104
 1922               	.LFE94:
 1924               	.global	Thread9
 1926               	Thread9:
 1927               	.LFB90:
 1928               	.LM186:
 1929               	.LVL36:
 1930 0d04 DF93      		push r29
 1931 0d06 CF93      		push r28
 1932 0d08 0F92      		push __tmp_reg__
 1933 0d0a CDB7      		in r28,__SP_L__
 1934 0d0c DEB7      		in r29,__SP_H__
 1935               	/* prologue: function */
 1936               	/* frame size = 1 */
 1937               	.LM187:
 1938 0d0e 8091 0000 		lds r24,nil
 1939 0d12 9091 0000 		lds r25,(nil)+1
 1940               	.LVL37:
 1941 0d16 9093 0000 		sts (tp+16)+1,r25
 1942 0d1a 8093 0000 		sts tp+16,r24
 1943               	.LM188:
 1944 0d1e 3A9A      		sbi 39-32,2
 1945               	.LM189:
 1946 0d20 3B9A      		sbi 39-32,3
 1947               	.LM190:
 1948 0d22 429A      		sbi 40-32,2
 1949               	.LM191:
 1950 0d24 439A      		sbi 40-32,3
 1951 0d26 CC24      		clr r12
 1952 0d28 DD24      		clr r13
 1953 0d2a 7601      		movw r14,r12
 1954               	.LVL38:
 1955 0d2c 1982      		std Y+1,__zero_reg__
 1956               	.LVL39:
 1957 0d2e 80E0      		ldi r24,lo8(st7735_out)
 1958 0d30 482E      		mov r4,r24
 1959 0d32 80E0      		ldi r24,hi8(st7735_out)
 1960 0d34 582E      		mov r5,r24
 1961 0d36 00E0      		ldi r16,lo8(__c.4054)
 1962 0d38 A02E      		mov r10,r16
 1963 0d3a 00E0      		ldi r16,hi8(__c.4054)
 1964 0d3c B02E      		mov r11,r16
 1965 0d3e 10E0      		ldi r17,lo8(__c.4056)
 1966 0d40 812E      		mov r8,r17
 1967 0d42 10E0      		ldi r17,hi8(__c.4056)
 1968 0d44 912E      		mov r9,r17
 1969               	.LM192:
 1970 0d46 B9E0      		ldi r27,lo8(9)
 1971 0d48 7B2E      		mov r7,r27
 1972               	.L110:
 1973               	.LM193:
 1974 0d4a 81E0      		ldi r24,lo8(1)
 1975 0d4c 40E0      		ldi r20,lo8(0)
 1976 0d4e 50E0      		ldi r21,hi8(0)
 1977 0d50 60E0      		ldi r22,hlo8(0)
 1978 0d52 70E0      		ldi r23,hhi8(0)
 1979 0d54 0E94 0000 		call chEvtWaitAnyTimeout
 1980               	.LM194:
 1981 0d58 80E0      		ldi r24,lo8(lcdUSE)
 1982 0d5a 90E0      		ldi r25,hi8(lcdUSE)
 1983 0d5c 40E0      		ldi r20,lo8(0)
 1984 0d5e 50E0      		ldi r21,hi8(0)
 1985 0d60 60E0      		ldi r22,hlo8(0)
 1986 0d62 70E0      		ldi r23,hhi8(0)
 1987 0d64 0E94 0000 		call chSemWaitTimeout
 1988               	.LM195:
 1989 0d68 81E0      		ldi r24,lo8(1)
 1990 0d6a 8093 0000 		sts thread_internal_started+8,r24
 1991               	.LM196:
 1992 0d6e 7092 0000 		sts lcd_context,r7
 1993               	.LM197:
 1994 0d72 80E0      		ldi r24,lo8(spiUSE)
 1995 0d74 90E0      		ldi r25,hi8(spiUSE)
 1996 0d76 40E0      		ldi r20,lo8(0)
 1997 0d78 50E0      		ldi r21,hi8(0)
 1998 0d7a 60E0      		ldi r22,hlo8(0)
 1999 0d7c 70E0      		ldi r23,hhi8(0)
 2000 0d7e 0E94 0000 		call chSemWaitTimeout
 2001               	.LM198:
 2002 0d82 80E0      		ldi r24,lo8(0)
 2003 0d84 60E0      		ldi r22,lo8(0)
 2004 0d86 40EA      		ldi r20,lo8(-96)
 2005 0d88 20E8      		ldi r18,lo8(-128)
 2006 0d8a 00E0      		ldi r16,lo8(0)
 2007 0d8c 10E0      		ldi r17,hi8(0)
 2008 0d8e 0E94 0000 		call st7735_fill_rect
 2009               	.LM199:
 2010 0d92 80E0      		ldi r24,lo8(spiUSE)
 2011 0d94 90E0      		ldi r25,hi8(spiUSE)
 2012 0d96 0E94 0000 		call chSemSignal
 2013 0d9a 00C0      		rjmp .L114
 2014               	.L112:
 2015               	.LM200:
 2016 0d9c 4398      		cbi 40-32,3
 2017               	.LM201:
 2018 0d9e 0894      		sec
 2019 0da0 C11C      		adc r12,__zero_reg__
 2020 0da2 D11C      		adc r13,__zero_reg__
 2021 0da4 E11C      		adc r14,__zero_reg__
 2022 0da6 F11C      		adc r15,__zero_reg__
 2023 0da8 81E0      		ldi r24,lo8(1)
 2024 0daa 8983      		std Y+1,r24
 2025               	.LVL40:
 2026               	.L113:
 2027               	.LM202:
 2028 0dac 60E1      		ldi r22,lo8(10000)
 2029 0dae 77E2      		ldi r23,hi8(10000)
 2030 0db0 80E0      		ldi r24,hlo8(10000)
 2031 0db2 90E0      		ldi r25,hhi8(10000)
 2032 0db4 0E94 0000 		call chThdSleep
 2033               	.L114:
 2034               	.LM203:
 2035 0db8 82E0      		ldi r24,lo8(2)
 2036 0dba 4FEF      		ldi r20,lo8(-1)
 2037 0dbc 5FEF      		ldi r21,hi8(-1)
 2038 0dbe 6FEF      		ldi r22,hlo8(-1)
 2039 0dc0 7FEF      		ldi r23,hhi8(-1)
 2040 0dc2 0E94 0000 		call chEvtWaitAnyTimeout
 2041 0dc6 8230      		cpi r24,lo8(2)
 2042 0dc8 01F4      		brne .+2
 2043 0dca 00C0      		rjmp .L116
 2044               	.LM204:
 2045 0dcc 8091 0000 		lds r24,lcd_context
 2046 0dd0 8930      		cpi r24,lo8(9)
 2047 0dd2 01F0      		breq .L117
 2048               	.L111:
 2049               	.LM205:
 2050 0dd4 F981      		ldd r31,Y+1
 2051 0dd6 F130      		cpi r31,lo8(1)
 2052 0dd8 01F4      		brne .L112
 2053               	.LM206:
 2054 0dda 439A      		sbi 40-32,3
 2055 0ddc 1982      		std Y+1,__zero_reg__
 2056               	.LVL41:
 2057 0dde 00C0      		rjmp .L113
 2058               	.L117:
 2059               	.LM207:
 2060 0de0 80E0      		ldi r24,lo8(spiUSE)
 2061 0de2 90E0      		ldi r25,hi8(spiUSE)
 2062 0de4 40E0      		ldi r20,lo8(0)
 2063 0de6 50E0      		ldi r21,hi8(0)
 2064 0de8 60E0      		ldi r22,hlo8(0)
 2065 0dea 70E0      		ldi r23,hhi8(0)
 2066 0dec 0E94 0000 		call chSemWaitTimeout
 2067               	.LM208:
 2068 0df0 85E0      		ldi r24,lo8(5)
 2069 0df2 90E0      		ldi r25,hi8(5)
 2070 0df4 6AE0      		ldi r22,lo8(10)
 2071 0df6 70E0      		ldi r23,hi8(10)
 2072 0df8 0E94 0000 		call st7735_setCursor
 2073               	.LM209:
 2074 0dfc 8DB7      		in r24,__SP_L__
 2075 0dfe 9EB7      		in r25,__SP_H__
 2076 0e00 0897      		sbiw r24,8
 2077 0e02 0FB6      		in __tmp_reg__,__SREG__
 2078 0e04 F894      		cli
 2079 0e06 9EBF      		out __SP_H__,r25
 2080 0e08 0FBE      		out __SREG__,__tmp_reg__
 2081 0e0a 8DBF      		out __SP_L__,r24
 2082 0e0c EDB7      		in r30,__SP_L__
 2083 0e0e FEB7      		in r31,__SP_H__
 2084 0e10 3196      		adiw r30,1
 2085 0e12 ADB7      		in r26,__SP_L__
 2086 0e14 BEB7      		in r27,__SP_H__
 2087 0e16 1296      		adiw r26,1+1
 2088 0e18 5C92      		st X,r5
 2089 0e1a 4E92      		st -X,r4
 2090 0e1c 1197      		sbiw r26,1
 2091 0e1e B382      		std Z+3,r11
 2092 0e20 A282      		std Z+2,r10
 2093 0e22 C482      		std Z+4,r12
 2094 0e24 D582      		std Z+5,r13
 2095 0e26 E682      		std Z+6,r14
 2096 0e28 F782      		std Z+7,r15
 2097 0e2a 0E94 0000 		call fprintf_P
 2098               	.LM210:
 2099 0e2e EDB7      		in r30,__SP_L__
 2100 0e30 FEB7      		in r31,__SP_H__
 2101 0e32 3896      		adiw r30,8
 2102 0e34 0FB6      		in __tmp_reg__,__SREG__
 2103 0e36 F894      		cli
 2104 0e38 FEBF      		out __SP_H__,r31
 2105 0e3a 0FBE      		out __SREG__,__tmp_reg__
 2106 0e3c EDBF      		out __SP_L__,r30
 2107 0e3e 85E0      		ldi r24,lo8(5)
 2108 0e40 90E0      		ldi r25,hi8(5)
 2109 0e42 64E1      		ldi r22,lo8(20)
 2110 0e44 70E0      		ldi r23,hi8(20)
 2111 0e46 0E94 0000 		call st7735_setCursor
 2112               	.LM211:
 2113 0e4a 8091 0000 		lds r24,lcdUSE
 2114 0e4e 00D0      		rcall .
 2115 0e50 00D0      		rcall .
 2116 0e52 00D0      		rcall .
 2117 0e54 EDB7      		in r30,__SP_L__
 2118 0e56 FEB7      		in r31,__SP_H__
 2119 0e58 3196      		adiw r30,1
 2120 0e5a ADB7      		in r26,__SP_L__
 2121 0e5c BEB7      		in r27,__SP_H__
 2122 0e5e 1296      		adiw r26,1+1
 2123 0e60 5C92      		st X,r5
 2124 0e62 4E92      		st -X,r4
 2125 0e64 1197      		sbiw r26,1
 2126 0e66 9382      		std Z+3,r9
 2127 0e68 8282      		std Z+2,r8
 2128 0e6a 9927      		clr r25
 2129 0e6c 87FD      		sbrc r24,7
 2130 0e6e 9095      		com r25
 2131 0e70 9583      		std Z+5,r25
 2132 0e72 8483      		std Z+4,r24
 2133 0e74 0E94 0000 		call fprintf_P
 2134               	.LM212:
 2135 0e78 EDB7      		in r30,__SP_L__
 2136 0e7a FEB7      		in r31,__SP_H__
 2137 0e7c 3696      		adiw r30,6
 2138 0e7e 0FB6      		in __tmp_reg__,__SREG__
 2139 0e80 F894      		cli
 2140 0e82 FEBF      		out __SP_H__,r31
 2141 0e84 0FBE      		out __SREG__,__tmp_reg__
 2142 0e86 EDBF      		out __SP_L__,r30
 2143 0e88 80E0      		ldi r24,lo8(spiUSE)
 2144 0e8a 90E0      		ldi r25,hi8(spiUSE)
 2145 0e8c 0E94 0000 		call chSemSignal
 2146 0e90 00C0      		rjmp .L111
 2147               	.L116:
 2148               	.LM213:
 2149 0e92 439A      		sbi 40-32,3
 2150               	.LM214:
 2151 0e94 80E0      		ldi r24,lo8(lcdUSE)
 2152 0e96 90E0      		ldi r25,hi8(lcdUSE)
 2153 0e98 0E94 0000 		call chSemSignal
 2154 0e9c 00C0      		rjmp .L110
 2155               	.LFE90:
 2157               	.global	Thread4
 2159               	Thread4:
 2160               	.LFB85:
 2161               	.LM215:
 2162               	.LVL42:
 2163               	/* prologue: function */
 2164               	/* frame size = 0 */
 2165               	.LM216:
 2166 0e9e 8091 0000 		lds r24,nil
 2167 0ea2 9091 0000 		lds r25,(nil)+1
 2168               	.LVL43:
 2169 0ea6 9093 0000 		sts (tp+6)+1,r25
 2170 0eaa 8093 0000 		sts tp+6,r24
 2171 0eae C0E0      		ldi r28,lo8(st7735_out)
 2172 0eb0 D0E0      		ldi r29,hi8(st7735_out)
 2173 0eb2 30E0      		ldi r19,lo8(__c.3866)
 2174 0eb4 C32E      		mov r12,r19
 2175 0eb6 30E0      		ldi r19,hi8(__c.3866)
 2176 0eb8 D32E      		mov r13,r19
 2177 0eba 20E0      		ldi r18,lo8(__c.3869)
 2178 0ebc E22E      		mov r14,r18
 2179 0ebe 20E0      		ldi r18,hi8(__c.3869)
 2180 0ec0 F22E      		mov r15,r18
 2181               	.LM217:
 2182 0ec2 94E0      		ldi r25,lo8(4)
 2183 0ec4 B92E      		mov r11,r25
 2184               	.L120:
 2185               	.LM218:
 2186 0ec6 81E0      		ldi r24,lo8(1)
 2187 0ec8 40E0      		ldi r20,lo8(0)
 2188 0eca 50E0      		ldi r21,hi8(0)
 2189 0ecc 60E0      		ldi r22,hlo8(0)
 2190 0ece 70E0      		ldi r23,hhi8(0)
 2191 0ed0 0E94 0000 		call chEvtWaitAnyTimeout
 2192               	.LM219:
 2193 0ed4 80E0      		ldi r24,lo8(lcdUSE)
 2194 0ed6 90E0      		ldi r25,hi8(lcdUSE)
 2195 0ed8 40E0      		ldi r20,lo8(0)
 2196 0eda 50E0      		ldi r21,hi8(0)
 2197 0edc 60E0      		ldi r22,hlo8(0)
 2198 0ede 70E0      		ldi r23,hhi8(0)
 2199 0ee0 0E94 0000 		call chSemWaitTimeout
 2200               	.LM220:
 2201 0ee4 B092 0000 		sts lcd_context,r11
 2202               	.LM221:
 2203 0ee8 80E0      		ldi r24,lo8(spiUSE)
 2204 0eea 90E0      		ldi r25,hi8(spiUSE)
 2205 0eec 40E0      		ldi r20,lo8(0)
 2206 0eee 50E0      		ldi r21,hi8(0)
 2207 0ef0 60E0      		ldi r22,hlo8(0)
 2208 0ef2 70E0      		ldi r23,hhi8(0)
 2209 0ef4 0E94 0000 		call chSemWaitTimeout
 2210               	.LM222:
 2211 0ef8 80E0      		ldi r24,lo8(0)
 2212 0efa 60E0      		ldi r22,lo8(0)
 2213 0efc 40EA      		ldi r20,lo8(-96)
 2214 0efe 20E8      		ldi r18,lo8(-128)
 2215 0f00 00E0      		ldi r16,lo8(0)
 2216 0f02 10E0      		ldi r17,hi8(0)
 2217 0f04 0E94 0000 		call st7735_fill_rect
 2218               	.LM223:
 2219 0f08 85E0      		ldi r24,lo8(5)
 2220 0f0a 90E0      		ldi r25,hi8(5)
 2221 0f0c 6AE0      		ldi r22,lo8(10)
 2222 0f0e 70E0      		ldi r23,hi8(10)
 2223 0f10 0E94 0000 		call st7735_setCursor
 2224               	.LM224:
 2225 0f14 00D0      		rcall .
 2226 0f16 00D0      		rcall .
 2227 0f18 ADB7      		in r26,__SP_L__
 2228 0f1a BEB7      		in r27,__SP_H__
 2229 0f1c 1296      		adiw r26,1+1
 2230 0f1e DC93      		st X,r29
 2231 0f20 CE93      		st -X,r28
 2232 0f22 1197      		sbiw r26,1
 2233 0f24 1496      		adiw r26,3+1
 2234 0f26 DC92      		st X,r13
 2235 0f28 CE92      		st -X,r12
 2236 0f2a 1397      		sbiw r26,3
 2237 0f2c 0E94 0000 		call fprintf_P
 2238               	.LM225:
 2239 0f30 0F90      		pop __tmp_reg__
 2240 0f32 0F90      		pop __tmp_reg__
 2241 0f34 0F90      		pop __tmp_reg__
 2242 0f36 0F90      		pop __tmp_reg__
 2243 0f38 80E0      		ldi r24,lo8(spiUSE)
 2244 0f3a 90E0      		ldi r25,hi8(spiUSE)
 2245 0f3c 0E94 0000 		call chSemSignal
 2246 0f40 00C0      		rjmp .L121
 2247               	.L119:
 2248               	.LM226:
 2249 0f42 6091 0000 		lds r22,minute_counter
 2250 0f46 7091 0000 		lds r23,(minute_counter)+1
 2251 0f4a 8091 0000 		lds r24,(minute_counter)+2
 2252 0f4e 9091 0000 		lds r25,(minute_counter)+3
 2253 0f52 40E0      		ldi r20,lo8(elapsed_hours)
 2254 0f54 50E0      		ldi r21,hi8(elapsed_hours)
 2255 0f56 20E0      		ldi r18,lo8(elapsed_mins)
 2256 0f58 30E0      		ldi r19,hi8(elapsed_mins)
 2257 0f5a 00E0      		ldi r16,lo8(elapsed_secs)
 2258 0f5c 10E0      		ldi r17,hi8(elapsed_secs)
 2259 0f5e 0E94 0000 		call parse_time
 2260               	.LM227:
 2261 0f62 80E0      		ldi r24,lo8(spiUSE)
 2262 0f64 90E0      		ldi r25,hi8(spiUSE)
 2263 0f66 40E0      		ldi r20,lo8(0)
 2264 0f68 50E0      		ldi r21,hi8(0)
 2265 0f6a 60E0      		ldi r22,hlo8(0)
 2266 0f6c 70E0      		ldi r23,hhi8(0)
 2267 0f6e 0E94 0000 		call chSemWaitTimeout
 2268               	.LM228:
 2269 0f72 85E0      		ldi r24,lo8(5)
 2270 0f74 90E0      		ldi r25,hi8(5)
 2271 0f76 64E1      		ldi r22,lo8(20)
 2272 0f78 70E0      		ldi r23,hi8(20)
 2273 0f7a 0E94 0000 		call st7735_setCursor
 2274               	.LM229:
 2275 0f7e EDB7      		in r30,__SP_L__
 2276 0f80 FEB7      		in r31,__SP_H__
 2277 0f82 3897      		sbiw r30,8
 2278 0f84 0FB6      		in __tmp_reg__,__SREG__
 2279 0f86 F894      		cli
 2280 0f88 FEBF      		out __SP_H__,r31
 2281 0f8a 0FBE      		out __SREG__,__tmp_reg__
 2282 0f8c EDBF      		out __SP_L__,r30
 2283 0f8e 3196      		adiw r30,1
 2284 0f90 ADB7      		in r26,__SP_L__
 2285 0f92 BEB7      		in r27,__SP_H__
 2286 0f94 1296      		adiw r26,1+1
 2287 0f96 DC93      		st X,r29
 2288 0f98 CE93      		st -X,r28
 2289 0f9a 1197      		sbiw r26,1
 2290 0f9c F382      		std Z+3,r15
 2291 0f9e E282      		std Z+2,r14
 2292 0fa0 8091 0000 		lds r24,elapsed_mins
 2293 0fa4 8483      		std Z+4,r24
 2294 0fa6 1582      		std Z+5,__zero_reg__
 2295 0fa8 8091 0000 		lds r24,elapsed_secs
 2296 0fac 8683      		std Z+6,r24
 2297 0fae 1782      		std Z+7,__zero_reg__
 2298 0fb0 0E94 0000 		call fprintf_P
 2299               	.LM230:
 2300 0fb4 EDB7      		in r30,__SP_L__
 2301 0fb6 FEB7      		in r31,__SP_H__
 2302 0fb8 3896      		adiw r30,8
 2303 0fba 0FB6      		in __tmp_reg__,__SREG__
 2304 0fbc F894      		cli
 2305 0fbe FEBF      		out __SP_H__,r31
 2306 0fc0 0FBE      		out __SREG__,__tmp_reg__
 2307 0fc2 EDBF      		out __SP_L__,r30
 2308 0fc4 80E0      		ldi r24,lo8(spiUSE)
 2309 0fc6 90E0      		ldi r25,hi8(spiUSE)
 2310 0fc8 0E94 0000 		call chSemSignal
 2311               	.LM231:
 2312 0fcc 64EF      		ldi r22,lo8(500)
 2313 0fce 71E0      		ldi r23,hi8(500)
 2314 0fd0 80E0      		ldi r24,hlo8(500)
 2315 0fd2 90E0      		ldi r25,hhi8(500)
 2316 0fd4 0E94 0000 		call chThdSleep
 2317               	.L121:
 2318               	.LM232:
 2319 0fd8 82E0      		ldi r24,lo8(2)
 2320 0fda 4FEF      		ldi r20,lo8(-1)
 2321 0fdc 5FEF      		ldi r21,hi8(-1)
 2322 0fde 6FEF      		ldi r22,hlo8(-1)
 2323 0fe0 7FEF      		ldi r23,hhi8(-1)
 2324 0fe2 0E94 0000 		call chEvtWaitAnyTimeout
 2325 0fe6 8230      		cpi r24,lo8(2)
 2326 0fe8 01F0      		breq .+2
 2327 0fea 00C0      		rjmp .L119
 2328               	.LM233:
 2329 0fec 80E0      		ldi r24,lo8(lcdUSE)
 2330 0fee 90E0      		ldi r25,hi8(lcdUSE)
 2331 0ff0 0E94 0000 		call chSemSignal
 2332 0ff4 00C0      		rjmp .L120
 2333               	.LFE85:
 2335               	.global	Thread11
 2337               	Thread11:
 2338               	.LFB92:
 2339               	.LM234:
 2340               	.LVL44:
 2341 0ff6 DF93      		push r29
 2342 0ff8 CF93      		push r28
 2343 0ffa CDB7      		in r28,__SP_L__
 2344 0ffc DEB7      		in r29,__SP_H__
 2345 0ffe 6497      		sbiw r28,20
 2346 1000 0FB6      		in __tmp_reg__,__SREG__
 2347 1002 F894      		cli
 2348 1004 DEBF      		out __SP_H__,r29
 2349 1006 0FBE      		out __SREG__,__tmp_reg__
 2350 1008 CDBF      		out __SP_L__,r28
 2351               	/* prologue: function */
 2352               	/* frame size = 20 */
 2353               	.LM235:
 2354 100a 8091 0000 		lds r24,nil
 2355 100e 9091 0000 		lds r25,(nil)+1
 2356               	.LVL45:
 2357 1012 9093 0000 		sts (tp+20)+1,r25
 2358 1016 8093 0000 		sts tp+20,r24
 2359               	.LM236:
 2360 101a 80E0      		ldi r24,lo8(i2cUSE)
 2361 101c 90E0      		ldi r25,hi8(i2cUSE)
 2362 101e 40E0      		ldi r20,lo8(0)
 2363 1020 50E0      		ldi r21,hi8(0)
 2364 1022 60E0      		ldi r22,hlo8(0)
 2365 1024 70E0      		ldi r23,hhi8(0)
 2366 1026 0E94 0000 		call chSemWaitTimeout
 2367               	.LM237:
 2368 102a 0E94 0000 		call i2c_init
 2369               	.LM238:
 2370 102e 0E94 0000 		call MPL3115A2_init
 2371               	.LM239:
 2372 1032 0E94 0000 		call L3GD20_enableDefault
 2373               	.LM240:
 2374 1036 0E94 0000 		call LSM303_enableDefault
 2375               	.LM241:
 2376 103a 80E0      		ldi r24,lo8(i2cUSE)
 2377 103c 90E0      		ldi r25,hi8(i2cUSE)
 2378 103e 0E94 0000 		call chSemSignal
 2379               	.LBB167:
 2380               	.LBB168:
 2381               	.LM242:
 2382               	/* #APP */
 2383               	 ;  319 ".//os/nil/ports/AVR/nilcore.h" 1
 2384 1042 F894      		cli
 2385               	 ;  0 "" 2
 2386               	/* #NOAPP */
 2387               	.LBE168:
 2388               	.LBE167:
 2389               	.LM243:
 2390 1044 80E0      		ldi r24,lo8(trp+20)
 2391 1046 90E0      		ldi r25,hi8(trp+20)
 2392 1048 40E0      		ldi r20,lo8(0)
 2393 104a 50E0      		ldi r21,hi8(0)
 2394 104c 60E0      		ldi r22,hlo8(0)
 2395 104e 70E0      		ldi r23,hhi8(0)
 2396 1050 0E94 0000 		call chThdSuspendTimeoutS
 2397               	.LBB169:
 2398               	.LBB170:
 2399               	.LM244:
 2400               	/* #APP */
 2401               	 ;  327 ".//os/nil/ports/AVR/nilcore.h" 1
 2402 1054 7894      		sei
 2403               	 ;  0 "" 2
 2404               	/* #NOAPP */
 2405 1056 80E0      		ldi r24,lo8(0x0)
 2406 1058 90E0      		ldi r25,hi8(0x0)
 2407 105a A0E0      		ldi r26,hlo8(0x0)
 2408 105c B0E0      		ldi r27,hhi8(0x0)
 2409 105e 898B      		std Y+17,r24
 2410 1060 9A8B      		std Y+18,r25
 2411 1062 AB8B      		std Y+19,r26
 2412 1064 BC8B      		std Y+20,r27
 2413 1066 8D87      		std Y+13,r24
 2414 1068 9E87      		std Y+14,r25
 2415 106a AF87      		std Y+15,r26
 2416 106c B88B      		std Y+16,r27
 2417 106e 8987      		std Y+9,r24
 2418 1070 9A87      		std Y+10,r25
 2419 1072 AB87      		std Y+11,r26
 2420 1074 BC87      		std Y+12,r27
 2421 1076 8D83      		std Y+5,r24
 2422 1078 9E83      		std Y+6,r25
 2423 107a AF83      		std Y+7,r26
 2424 107c B887      		std Y+8,r27
 2425 107e 8983      		std Y+1,r24
 2426 1080 9A83      		std Y+2,r25
 2427 1082 AB83      		std Y+3,r26
 2428 1084 BC83      		std Y+4,r27
 2429 1086 1C01      		movw r2,r24
 2430 1088 2D01      		movw r4,r26
 2431               	.L124:
 2432               	.LBE170:
 2433               	.LBE169:
 2434               	.LM245:
 2435 108a 80E0      		ldi r24,lo8(usartUSE)
 2436 108c 90E0      		ldi r25,hi8(usartUSE)
 2437 108e 40E0      		ldi r20,lo8(0)
 2438 1090 50E0      		ldi r21,hi8(0)
 2439 1092 60E0      		ldi r22,hlo8(0)
 2440 1094 70E0      		ldi r23,hhi8(0)
 2441 1096 0E94 0000 		call chSemWaitTimeout
 2442               	.LM246:
 2443 109a 00D0      		rcall .
 2444 109c 00D0      		rcall .
 2445 109e E0E0      		ldi r30,lo8(usart_out)
 2446 10a0 F0E0      		ldi r31,hi8(usart_out)
 2447 10a2 ADB7      		in r26,__SP_L__
 2448 10a4 BEB7      		in r27,__SP_H__
 2449 10a6 1296      		adiw r26,1+1
 2450 10a8 FC93      		st X,r31
 2451 10aa EE93      		st -X,r30
 2452 10ac 1197      		sbiw r26,1
 2453 10ae 20E0      		ldi r18,lo8(__c.4101)
 2454 10b0 30E0      		ldi r19,hi8(__c.4101)
 2455 10b2 1496      		adiw r26,3+1
 2456 10b4 3C93      		st X,r19
 2457 10b6 2E93      		st -X,r18
 2458 10b8 1397      		sbiw r26,3
 2459 10ba 0E94 0000 		call fprintf_P
 2460               	.LM247:
 2461 10be 0F90      		pop __tmp_reg__
 2462 10c0 0F90      		pop __tmp_reg__
 2463 10c2 0F90      		pop __tmp_reg__
 2464 10c4 0F90      		pop __tmp_reg__
 2465 10c6 80E0      		ldi r24,lo8(i2cUSE)
 2466 10c8 90E0      		ldi r25,hi8(i2cUSE)
 2467 10ca 40E0      		ldi r20,lo8(0)
 2468 10cc 50E0      		ldi r21,hi8(0)
 2469 10ce 60E0      		ldi r22,hlo8(0)
 2470 10d0 70E0      		ldi r23,hhi8(0)
 2471 10d2 0E94 0000 		call chSemWaitTimeout
 2472               	.LM248:
 2473 10d6 0E94 0000 		call MPL3115A2_getAltitude
 2474 10da 5B01      		movw r10,r22
 2475 10dc 6C01      		movw r12,r24
 2476 10de 0E94 0000 		call MPL3115A2_getPressure
 2477 10e2 7B01      		movw r14,r22
 2478 10e4 8C01      		movw r16,r24
 2479 10e6 0E94 0000 		call MPL3115A2_getTemperature
 2480 10ea ADB7      		in r26,__SP_L__
 2481 10ec BEB7      		in r27,__SP_H__
 2482 10ee 5097      		sbiw r26,16
 2483 10f0 0FB6      		in __tmp_reg__,__SREG__
 2484 10f2 F894      		cli
 2485 10f4 BEBF      		out __SP_H__,r27
 2486 10f6 0FBE      		out __SREG__,__tmp_reg__
 2487 10f8 ADBF      		out __SP_L__,r26
 2488 10fa EDB7      		in r30,__SP_L__
 2489 10fc FEB7      		in r31,__SP_H__
 2490 10fe 3196      		adiw r30,1
 2491 1100 20E0      		ldi r18,lo8(usart_out)
 2492 1102 30E0      		ldi r19,hi8(usart_out)
 2493 1104 1296      		adiw r26,1+1
 2494 1106 3C93      		st X,r19
 2495 1108 2E93      		st -X,r18
 2496 110a 1197      		sbiw r26,1
 2497 110c A0E0      		ldi r26,lo8(__c.4103)
 2498 110e B0E0      		ldi r27,hi8(__c.4103)
 2499 1110 B383      		std Z+3,r27
 2500 1112 A283      		std Z+2,r26
 2501 1114 A482      		std Z+4,r10
 2502 1116 B582      		std Z+5,r11
 2503 1118 C682      		std Z+6,r12
 2504 111a D782      		std Z+7,r13
 2505 111c E086      		std Z+8,r14
 2506 111e F186      		std Z+9,r15
 2507 1120 0287      		std Z+10,r16
 2508 1122 1387      		std Z+11,r17
 2509 1124 6487      		std Z+12,r22
 2510 1126 7587      		std Z+13,r23
 2511 1128 8687      		std Z+14,r24
 2512 112a 9787      		std Z+15,r25
 2513 112c 0E94 0000 		call fprintf_P
 2514               	.LM249:
 2515 1130 EDB7      		in r30,__SP_L__
 2516 1132 FEB7      		in r31,__SP_H__
 2517 1134 7096      		adiw r30,16
 2518 1136 0FB6      		in __tmp_reg__,__SREG__
 2519 1138 F894      		cli
 2520 113a FEBF      		out __SP_H__,r31
 2521 113c 0FBE      		out __SREG__,__tmp_reg__
 2522 113e EDBF      		out __SP_L__,r30
 2523 1140 80E0      		ldi r24,lo8(i2cUSE)
 2524 1142 90E0      		ldi r25,hi8(i2cUSE)
 2525 1144 0E94 0000 		call chSemSignal
 2526               	.LM250:
 2527 1148 80E0      		ldi r24,lo8(usartUSE)
 2528 114a 90E0      		ldi r25,hi8(usartUSE)
 2529 114c 0E94 0000 		call chSemSignal
 2530               	.LM251:
 2531 1150 80E0      		ldi r24,lo8(i2cUSE)
 2532 1152 90E0      		ldi r25,hi8(i2cUSE)
 2533 1154 40E0      		ldi r20,lo8(0)
 2534 1156 50E0      		ldi r21,hi8(0)
 2535 1158 60E0      		ldi r22,hlo8(0)
 2536 115a 70E0      		ldi r23,hhi8(0)
 2537 115c 0E94 0000 		call chSemWaitTimeout
 2538               	.LM252:
 2539 1160 0E94 0000 		call L3GD20_read
 2540               	.LM253:
 2541 1164 80E0      		ldi r24,lo8(i2cUSE)
 2542 1166 90E0      		ldi r25,hi8(i2cUSE)
 2543 1168 0E94 0000 		call chSemSignal
 2544               	.LM254:
 2545 116c 80E0      		ldi r24,lo8(usartUSE)
 2546 116e 90E0      		ldi r25,hi8(usartUSE)
 2547 1170 40E0      		ldi r20,lo8(0)
 2548 1172 50E0      		ldi r21,hi8(0)
 2549 1174 60E0      		ldi r22,hlo8(0)
 2550 1176 70E0      		ldi r23,hhi8(0)
 2551 1178 0E94 0000 		call chSemWaitTimeout
 2552               	.LM255:
 2553 117c 2DB7      		in r18,__SP_L__
 2554 117e 3EB7      		in r19,__SP_H__
 2555 1180 2051      		subi r18,lo8(-(-16))
 2556 1182 3040      		sbci r19,hi8(-(-16))
 2557 1184 0FB6      		in __tmp_reg__,__SREG__
 2558 1186 F894      		cli
 2559 1188 3EBF      		out __SP_H__,r19
 2560 118a 0FBE      		out __SREG__,__tmp_reg__
 2561 118c 2DBF      		out __SP_L__,r18
 2562 118e EDB7      		in r30,__SP_L__
 2563 1190 FEB7      		in r31,__SP_H__
 2564 1192 3196      		adiw r30,1
 2565 1194 20E0      		ldi r18,lo8(usart_out)
 2566 1196 30E0      		ldi r19,hi8(usart_out)
 2567 1198 ADB7      		in r26,__SP_L__
 2568 119a BEB7      		in r27,__SP_H__
 2569 119c 1296      		adiw r26,1+1
 2570 119e 3C93      		st X,r19
 2571 11a0 2E93      		st -X,r18
 2572 11a2 1197      		sbiw r26,1
 2573 11a4 80E0      		ldi r24,lo8(__c.4105)
 2574 11a6 90E0      		ldi r25,hi8(__c.4105)
 2575 11a8 9383      		std Z+3,r25
 2576 11aa 8283      		std Z+2,r24
 2577 11ac 8091 0000 		lds r24,g
 2578 11b0 9091 0000 		lds r25,(g)+1
 2579 11b4 A091 0000 		lds r26,(g)+2
 2580 11b8 B091 0000 		lds r27,(g)+3
 2581 11bc 8483      		std Z+4,r24
 2582 11be 9583      		std Z+5,r25
 2583 11c0 A683      		std Z+6,r26
 2584 11c2 B783      		std Z+7,r27
 2585 11c4 8091 0000 		lds r24,g+4
 2586 11c8 9091 0000 		lds r25,(g+4)+1
 2587 11cc A091 0000 		lds r26,(g+4)+2
 2588 11d0 B091 0000 		lds r27,(g+4)+3
 2589 11d4 8087      		std Z+8,r24
 2590 11d6 9187      		std Z+9,r25
 2591 11d8 A287      		std Z+10,r26
 2592 11da B387      		std Z+11,r27
 2593 11dc 8091 0000 		lds r24,g+8
 2594 11e0 9091 0000 		lds r25,(g+8)+1
 2595 11e4 A091 0000 		lds r26,(g+8)+2
 2596 11e8 B091 0000 		lds r27,(g+8)+3
 2597 11ec 8487      		std Z+12,r24
 2598 11ee 9587      		std Z+13,r25
 2599 11f0 A687      		std Z+14,r26
 2600 11f2 B787      		std Z+15,r27
 2601 11f4 0E94 0000 		call fprintf_P
 2602               	.LM256:
 2603 11f8 ADB7      		in r26,__SP_L__
 2604 11fa BEB7      		in r27,__SP_H__
 2605 11fc 5096      		adiw r26,16
 2606 11fe 0FB6      		in __tmp_reg__,__SREG__
 2607 1200 F894      		cli
 2608 1202 BEBF      		out __SP_H__,r27
 2609 1204 0FBE      		out __SREG__,__tmp_reg__
 2610 1206 ADBF      		out __SP_L__,r26
 2611 1208 80E0      		ldi r24,lo8(usartUSE)
 2612 120a 90E0      		ldi r25,hi8(usartUSE)
 2613 120c 0E94 0000 		call chSemSignal
 2614               	.LM257:
 2615 1210 80E0      		ldi r24,lo8(i2cUSE)
 2616 1212 90E0      		ldi r25,hi8(i2cUSE)
 2617 1214 40E0      		ldi r20,lo8(0)
 2618 1216 50E0      		ldi r21,hi8(0)
 2619 1218 60E0      		ldi r22,hlo8(0)
 2620 121a 70E0      		ldi r23,hhi8(0)
 2621 121c 0E94 0000 		call chSemWaitTimeout
 2622               	.LM258:
 2623 1220 0E94 0000 		call LSM303_read
 2624               	.LM259:
 2625 1224 80E0      		ldi r24,lo8(i2cUSE)
 2626 1226 90E0      		ldi r25,hi8(i2cUSE)
 2627 1228 0E94 0000 		call chSemSignal
 2628               	.LM260:
 2629 122c 80E0      		ldi r24,lo8(usartUSE)
 2630 122e 90E0      		ldi r25,hi8(usartUSE)
 2631 1230 40E0      		ldi r20,lo8(0)
 2632 1232 50E0      		ldi r21,hi8(0)
 2633 1234 60E0      		ldi r22,hlo8(0)
 2634 1236 70E0      		ldi r23,hhi8(0)
 2635 1238 0E94 0000 		call chSemWaitTimeout
 2636               	.LM261:
 2637 123c EDB7      		in r30,__SP_L__
 2638 123e FEB7      		in r31,__SP_H__
 2639 1240 7097      		sbiw r30,16
 2640 1242 0FB6      		in __tmp_reg__,__SREG__
 2641 1244 F894      		cli
 2642 1246 FEBF      		out __SP_H__,r31
 2643 1248 0FBE      		out __SREG__,__tmp_reg__
 2644 124a EDBF      		out __SP_L__,r30
 2645 124c 3196      		adiw r30,1
 2646 124e 20E0      		ldi r18,lo8(usart_out)
 2647 1250 30E0      		ldi r19,hi8(usart_out)
 2648 1252 ADB7      		in r26,__SP_L__
 2649 1254 BEB7      		in r27,__SP_H__
 2650 1256 1296      		adiw r26,1+1
 2651 1258 3C93      		st X,r19
 2652 125a 2E93      		st -X,r18
 2653 125c 1197      		sbiw r26,1
 2654 125e 80E0      		ldi r24,lo8(__c.4107)
 2655 1260 90E0      		ldi r25,hi8(__c.4107)
 2656 1262 9383      		std Z+3,r25
 2657 1264 8283      		std Z+2,r24
 2658 1266 8091 0000 		lds r24,a
 2659 126a 9091 0000 		lds r25,(a)+1
 2660 126e A091 0000 		lds r26,(a)+2
 2661 1272 B091 0000 		lds r27,(a)+3
 2662 1276 8483      		std Z+4,r24
 2663 1278 9583      		std Z+5,r25
 2664 127a A683      		std Z+6,r26
 2665 127c B783      		std Z+7,r27
 2666 127e 8091 0000 		lds r24,a+4
 2667 1282 9091 0000 		lds r25,(a+4)+1
 2668 1286 A091 0000 		lds r26,(a+4)+2
 2669 128a B091 0000 		lds r27,(a+4)+3
 2670 128e 8087      		std Z+8,r24
 2671 1290 9187      		std Z+9,r25
 2672 1292 A287      		std Z+10,r26
 2673 1294 B387      		std Z+11,r27
 2674 1296 8091 0000 		lds r24,a+8
 2675 129a 9091 0000 		lds r25,(a+8)+1
 2676 129e A091 0000 		lds r26,(a+8)+2
 2677 12a2 B091 0000 		lds r27,(a+8)+3
 2678 12a6 8487      		std Z+12,r24
 2679 12a8 9587      		std Z+13,r25
 2680 12aa A687      		std Z+14,r26
 2681 12ac B787      		std Z+15,r27
 2682 12ae 0E94 0000 		call fprintf_P
 2683               	.LM262:
 2684 12b2 EDB7      		in r30,__SP_L__
 2685 12b4 FEB7      		in r31,__SP_H__
 2686 12b6 3196      		adiw r30,1
 2687 12b8 20E0      		ldi r18,lo8(usart_out)
 2688 12ba 30E0      		ldi r19,hi8(usart_out)
 2689 12bc ADB7      		in r26,__SP_L__
 2690 12be BEB7      		in r27,__SP_H__
 2691 12c0 1296      		adiw r26,1+1
 2692 12c2 3C93      		st X,r19
 2693 12c4 2E93      		st -X,r18
 2694 12c6 1197      		sbiw r26,1
 2695 12c8 80E0      		ldi r24,lo8(__c.4109)
 2696 12ca 90E0      		ldi r25,hi8(__c.4109)
 2697 12cc 9383      		std Z+3,r25
 2698 12ce 8283      		std Z+2,r24
 2699 12d0 8091 0000 		lds r24,m
 2700 12d4 9091 0000 		lds r25,(m)+1
 2701 12d8 A091 0000 		lds r26,(m)+2
 2702 12dc B091 0000 		lds r27,(m)+3
 2703 12e0 8483      		std Z+4,r24
 2704 12e2 9583      		std Z+5,r25
 2705 12e4 A683      		std Z+6,r26
 2706 12e6 B783      		std Z+7,r27
 2707 12e8 8091 0000 		lds r24,m+4
 2708 12ec 9091 0000 		lds r25,(m+4)+1
 2709 12f0 A091 0000 		lds r26,(m+4)+2
 2710 12f4 B091 0000 		lds r27,(m+4)+3
 2711 12f8 8087      		std Z+8,r24
 2712 12fa 9187      		std Z+9,r25
 2713 12fc A287      		std Z+10,r26
 2714 12fe B387      		std Z+11,r27
 2715 1300 8091 0000 		lds r24,m+8
 2716 1304 9091 0000 		lds r25,(m+8)+1
 2717 1308 A091 0000 		lds r26,(m+8)+2
 2718 130c B091 0000 		lds r27,(m+8)+3
 2719 1310 8487      		std Z+12,r24
 2720 1312 9587      		std Z+13,r25
 2721 1314 A687      		std Z+14,r26
 2722 1316 B787      		std Z+15,r27
 2723 1318 0E94 0000 		call fprintf_P
 2724               	.LM263:
 2725 131c ADB7      		in r26,__SP_L__
 2726 131e BEB7      		in r27,__SP_H__
 2727 1320 5096      		adiw r26,16
 2728 1322 0FB6      		in __tmp_reg__,__SREG__
 2729 1324 F894      		cli
 2730 1326 BEBF      		out __SP_H__,r27
 2731 1328 0FBE      		out __SREG__,__tmp_reg__
 2732 132a ADBF      		out __SP_L__,r26
 2733 132c 80E0      		ldi r24,lo8(usartUSE)
 2734 132e 90E0      		ldi r25,hi8(usartUSE)
 2735 1330 0E94 0000 		call chSemSignal
 2736               	.LM264:
 2737 1334 6090 0000 		lds r6,m
 2738 1338 7090 0000 		lds r7,(m)+1
 2739 133c 8090 0000 		lds r8,(m)+2
 2740 1340 9090 0000 		lds r9,(m)+3
 2741 1344 6985      		ldd r22,Y+9
 2742 1346 7A85      		ldd r23,Y+10
 2743 1348 8B85      		ldd r24,Y+11
 2744 134a 9C85      		ldd r25,Y+12
 2745 134c A401      		movw r20,r8
 2746 134e 9301      		movw r18,r6
 2747 1350 0E94 0000 		call fmin
 2748 1354 6987      		std Y+9,r22
 2749 1356 7A87      		std Y+10,r23
 2750 1358 8B87      		std Y+11,r24
 2751 135a 9C87      		std Y+12,r25
 2752               	.LM265:
 2753 135c A090 0000 		lds r10,m+4
 2754 1360 B090 0000 		lds r11,(m+4)+1
 2755 1364 C090 0000 		lds r12,(m+4)+2
 2756 1368 D090 0000 		lds r13,(m+4)+3
 2757 136c 6D85      		ldd r22,Y+13
 2758 136e 7E85      		ldd r23,Y+14
 2759 1370 8F85      		ldd r24,Y+15
 2760 1372 9889      		ldd r25,Y+16
 2761 1374 A601      		movw r20,r12
 2762 1376 9501      		movw r18,r10
 2763 1378 0E94 0000 		call fmin
 2764 137c 6D87      		std Y+13,r22
 2765 137e 7E87      		std Y+14,r23
 2766 1380 8F87      		std Y+15,r24
 2767 1382 988B      		std Y+16,r25
 2768               	.LM266:
 2769 1384 E090 0000 		lds r14,m+8
 2770 1388 F090 0000 		lds r15,(m+8)+1
 2771 138c 0091 0000 		lds r16,(m+8)+2
 2772 1390 1091 0000 		lds r17,(m+8)+3
 2773 1394 6989      		ldd r22,Y+17
 2774 1396 7A89      		ldd r23,Y+18
 2775 1398 8B89      		ldd r24,Y+19
 2776 139a 9C89      		ldd r25,Y+20
 2777 139c A801      		movw r20,r16
 2778 139e 9701      		movw r18,r14
 2779 13a0 0E94 0000 		call fmin
 2780 13a4 698B      		std Y+17,r22
 2781 13a6 7A8B      		std Y+18,r23
 2782 13a8 8B8B      		std Y+19,r24
 2783 13aa 9C8B      		std Y+20,r25
 2784               	.LM267:
 2785 13ac C201      		movw r24,r4
 2786 13ae B101      		movw r22,r2
 2787 13b0 A401      		movw r20,r8
 2788 13b2 9301      		movw r18,r6
 2789 13b4 0E94 0000 		call fmax
 2790 13b8 1B01      		movw r2,r22
 2791 13ba 2C01      		movw r4,r24
 2792               	.LM268:
 2793 13bc 6981      		ldd r22,Y+1
 2794 13be 7A81      		ldd r23,Y+2
 2795 13c0 8B81      		ldd r24,Y+3
 2796 13c2 9C81      		ldd r25,Y+4
 2797 13c4 A601      		movw r20,r12
 2798 13c6 9501      		movw r18,r10
 2799 13c8 0E94 0000 		call fmax
 2800 13cc 6983      		std Y+1,r22
 2801 13ce 7A83      		std Y+2,r23
 2802 13d0 8B83      		std Y+3,r24
 2803 13d2 9C83      		std Y+4,r25
 2804               	.LM269:
 2805 13d4 6D81      		ldd r22,Y+5
 2806 13d6 7E81      		ldd r23,Y+6
 2807 13d8 8F81      		ldd r24,Y+7
 2808 13da 9885      		ldd r25,Y+8
 2809 13dc A801      		movw r20,r16
 2810 13de 9701      		movw r18,r14
 2811 13e0 0E94 0000 		call fmax
 2812 13e4 6D83      		std Y+5,r22
 2813 13e6 7E83      		std Y+6,r23
 2814 13e8 8F83      		std Y+7,r24
 2815 13ea 9887      		std Y+8,r25
 2816               	.LM270:
 2817 13ec 80E0      		ldi r24,lo8(usartUSE)
 2818 13ee 90E0      		ldi r25,hi8(usartUSE)
 2819 13f0 40E0      		ldi r20,lo8(0)
 2820 13f2 50E0      		ldi r21,hi8(0)
 2821 13f4 60E0      		ldi r22,hlo8(0)
 2822 13f6 70E0      		ldi r23,hhi8(0)
 2823 13f8 0E94 0000 		call chSemWaitTimeout
 2824               	.LM271:
 2825 13fc EDB7      		in r30,__SP_L__
 2826 13fe FEB7      		in r31,__SP_H__
 2827 1400 7C97      		sbiw r30,28
 2828 1402 0FB6      		in __tmp_reg__,__SREG__
 2829 1404 F894      		cli
 2830 1406 FEBF      		out __SP_H__,r31
 2831 1408 0FBE      		out __SREG__,__tmp_reg__
 2832 140a EDBF      		out __SP_L__,r30
 2833 140c 3196      		adiw r30,1
 2834 140e 20E0      		ldi r18,lo8(usart_out)
 2835 1410 30E0      		ldi r19,hi8(usart_out)
 2836 1412 ADB7      		in r26,__SP_L__
 2837 1414 BEB7      		in r27,__SP_H__
 2838 1416 1296      		adiw r26,1+1
 2839 1418 3C93      		st X,r19
 2840 141a 2E93      		st -X,r18
 2841 141c 1197      		sbiw r26,1
 2842 141e 80E0      		ldi r24,lo8(__c.4111)
 2843 1420 90E0      		ldi r25,hi8(__c.4111)
 2844 1422 9383      		std Z+3,r25
 2845 1424 8283      		std Z+2,r24
 2846 1426 8985      		ldd r24,Y+9
 2847 1428 9A85      		ldd r25,Y+10
 2848 142a AB85      		ldd r26,Y+11
 2849 142c BC85      		ldd r27,Y+12
 2850 142e 8483      		std Z+4,r24
 2851 1430 9583      		std Z+5,r25
 2852 1432 A683      		std Z+6,r26
 2853 1434 B783      		std Z+7,r27
 2854 1436 8D85      		ldd r24,Y+13
 2855 1438 9E85      		ldd r25,Y+14
 2856 143a AF85      		ldd r26,Y+15
 2857 143c B889      		ldd r27,Y+16
 2858 143e 8087      		std Z+8,r24
 2859 1440 9187      		std Z+9,r25
 2860 1442 A287      		std Z+10,r26
 2861 1444 B387      		std Z+11,r27
 2862 1446 8989      		ldd r24,Y+17
 2863 1448 9A89      		ldd r25,Y+18
 2864 144a AB89      		ldd r26,Y+19
 2865 144c BC89      		ldd r27,Y+20
 2866 144e 8487      		std Z+12,r24
 2867 1450 9587      		std Z+13,r25
 2868 1452 A687      		std Z+14,r26
 2869 1454 B787      		std Z+15,r27
 2870 1456 208A      		std Z+16,r2
 2871 1458 318A      		std Z+17,r3
 2872 145a 428A      		std Z+18,r4
 2873 145c 538A      		std Z+19,r5
 2874 145e 8981      		ldd r24,Y+1
 2875 1460 9A81      		ldd r25,Y+2
 2876 1462 AB81      		ldd r26,Y+3
 2877 1464 BC81      		ldd r27,Y+4
 2878 1466 848B      		std Z+20,r24
 2879 1468 958B      		std Z+21,r25
 2880 146a A68B      		std Z+22,r26
 2881 146c B78B      		std Z+23,r27
 2882 146e 8D81      		ldd r24,Y+5
 2883 1470 9E81      		ldd r25,Y+6
 2884 1472 AF81      		ldd r26,Y+7
 2885 1474 B885      		ldd r27,Y+8
 2886 1476 808F      		std Z+24,r24
 2887 1478 918F      		std Z+25,r25
 2888 147a A28F      		std Z+26,r26
 2889 147c B38F      		std Z+27,r27
 2890 147e 0E94 0000 		call fprintf_P
 2891               	.LM272:
 2892 1482 ADB7      		in r26,__SP_L__
 2893 1484 BEB7      		in r27,__SP_H__
 2894 1486 5C96      		adiw r26,28
 2895 1488 0FB6      		in __tmp_reg__,__SREG__
 2896 148a F894      		cli
 2897 148c BEBF      		out __SP_H__,r27
 2898 148e 0FBE      		out __SREG__,__tmp_reg__
 2899 1490 ADBF      		out __SP_L__,r26
 2900 1492 80E0      		ldi r24,lo8(i2cUSE)
 2901 1494 90E0      		ldi r25,hi8(i2cUSE)
 2902 1496 40E0      		ldi r20,lo8(0)
 2903 1498 50E0      		ldi r21,hi8(0)
 2904 149a 60E0      		ldi r22,hlo8(0)
 2905 149c 70E0      		ldi r23,hhi8(0)
 2906 149e 0E94 0000 		call chSemWaitTimeout
 2907               	.LM273:
 2908 14a2 0E94 0000 		call LSM303_heading
 2909 14a6 EDB7      		in r30,__SP_L__
 2910 14a8 FEB7      		in r31,__SP_H__
 2911 14aa 3897      		sbiw r30,8
 2912 14ac 0FB6      		in __tmp_reg__,__SREG__
 2913 14ae F894      		cli
 2914 14b0 FEBF      		out __SP_H__,r31
 2915 14b2 0FBE      		out __SREG__,__tmp_reg__
 2916 14b4 EDBF      		out __SP_L__,r30
 2917 14b6 3196      		adiw r30,1
 2918 14b8 20E0      		ldi r18,lo8(usart_out)
 2919 14ba 30E0      		ldi r19,hi8(usart_out)
 2920 14bc ADB7      		in r26,__SP_L__
 2921 14be BEB7      		in r27,__SP_H__
 2922 14c0 1296      		adiw r26,1+1
 2923 14c2 3C93      		st X,r19
 2924 14c4 2E93      		st -X,r18
 2925 14c6 1197      		sbiw r26,1
 2926 14c8 A0E0      		ldi r26,lo8(__c.4113)
 2927 14ca B0E0      		ldi r27,hi8(__c.4113)
 2928 14cc B383      		std Z+3,r27
 2929 14ce A283      		std Z+2,r26
 2930 14d0 6483      		std Z+4,r22
 2931 14d2 7583      		std Z+5,r23
 2932 14d4 8683      		std Z+6,r24
 2933 14d6 9783      		std Z+7,r25
 2934 14d8 0E94 0000 		call fprintf_P
 2935               	.LM274:
 2936 14dc EDB7      		in r30,__SP_L__
 2937 14de FEB7      		in r31,__SP_H__
 2938 14e0 3896      		adiw r30,8
 2939 14e2 0FB6      		in __tmp_reg__,__SREG__
 2940 14e4 F894      		cli
 2941 14e6 FEBF      		out __SP_H__,r31
 2942 14e8 0FBE      		out __SREG__,__tmp_reg__
 2943 14ea EDBF      		out __SP_L__,r30
 2944 14ec 80E0      		ldi r24,lo8(i2cUSE)
 2945 14ee 90E0      		ldi r25,hi8(i2cUSE)
 2946 14f0 0E94 0000 		call chSemSignal
 2947               	.LM275:
 2948 14f4 80E0      		ldi r24,lo8(usartUSE)
 2949 14f6 90E0      		ldi r25,hi8(usartUSE)
 2950 14f8 0E94 0000 		call chSemSignal
 2951               	.LM276:
 2952 14fc 68EE      		ldi r22,lo8(1000)
 2953 14fe 73E0      		ldi r23,hi8(1000)
 2954 1500 80E0      		ldi r24,hlo8(1000)
 2955 1502 90E0      		ldi r25,hhi8(1000)
 2956 1504 0E94 0000 		call chThdSleep
 2957 1508 00C0      		rjmp .L124
 2958               	.LFE92:
 2960               	.global	Thread7
 2962               	Thread7:
 2963               	.LFB88:
 2964               	.LM277:
 2965               	.LVL46:
 2966               	/* prologue: function */
 2967               	/* frame size = 0 */
 2968               	.LM278:
 2969 150a 8091 0000 		lds r24,nil
 2970 150e 9091 0000 		lds r25,(nil)+1
 2971               	.LVL47:
 2972 1512 9093 0000 		sts (tp+12)+1,r25
 2973 1516 8093 0000 		sts tp+12,r24
 2974               	.L127:
 2975               	.LM279:
 2976 151a 81E0      		ldi r24,lo8(1)
 2977 151c 40E0      		ldi r20,lo8(0)
 2978 151e 50E0      		ldi r21,hi8(0)
 2979 1520 60E0      		ldi r22,hlo8(0)
 2980 1522 70E0      		ldi r23,hhi8(0)
 2981 1524 0E94 0000 		call chEvtWaitAnyTimeout
 2982               	.LM280:
 2983 1528 6091 0000 		lds r22,nil+4
 2984 152c 7091 0000 		lds r23,(nil+4)+1
 2985 1530 8091 0000 		lds r24,(nil+4)+2
 2986 1534 9091 0000 		lds r25,(nil+4)+3
 2987               	.LVL48:
 2988               	.LM281:
 2989 1538 605A      		subi r22,lo8(-(2400))
 2990 153a 764F      		sbci r23,hi8(-(2400))
 2991 153c 8F4F      		sbci r24,hlo8(-(2400))
 2992 153e 9F4F      		sbci r25,hhi8(-(2400))
 2993 1540 0E94 0000 		call chThdSleepUntil
 2994               	.LVL49:
 2995               	.LM282:
 2996 1544 80E0      		ldi r24,lo8(usartUSE)
 2997 1546 90E0      		ldi r25,hi8(usartUSE)
 2998 1548 40E0      		ldi r20,lo8(0)
 2999 154a 50E0      		ldi r21,hi8(0)
 3000 154c 60E0      		ldi r22,hlo8(0)
 3001 154e 70E0      		ldi r23,hhi8(0)
 3002 1550 0E94 0000 		call chSemWaitTimeout
 3003               	.LM283:
 3004 1554 0E94 0000 		call chPrintStackSizes
 3005               	.LM284:
 3006 1558 0E94 0000 		call chPrintUnusedStack
 3007               	.LM285:
 3008 155c 80E0      		ldi r24,lo8(usartUSE)
 3009 155e 90E0      		ldi r25,hi8(usartUSE)
 3010 1560 0E94 0000 		call chSemSignal
 3011 1564 00C0      		rjmp .L127
 3012               	.LFE88:
 3014               	.global	Thread6
 3016               	Thread6:
 3017               	.LFB87:
 3018               	.LM286:
 3019               	.LVL50:
 3020               	/* prologue: function */
 3021               	/* frame size = 0 */
 3022               	.LM287:
 3023 1566 8091 0000 		lds r24,nil
 3024 156a 9091 0000 		lds r25,(nil)+1
 3025               	.LVL51:
 3026 156e 9093 0000 		sts (tp+10)+1,r25
 3027 1572 8093 0000 		sts tp+10,r24
 3028               	.LM288:
 3029 1576 80E0      		ldi r24,lo8(SD1)
 3030 1578 90E0      		ldi r25,hi8(SD1)
 3031 157a 60E0      		ldi r22,lo8(0)
 3032 157c 70E0      		ldi r23,hi8(0)
 3033 157e 0E94 0000 		call sdStart
 3034               	.LM289:
 3035 1582 89E1      		ldi r24,lo8(25)
 3036 1584 90E0      		ldi r25,hi8(25)
 3037 1586 0E94 0000 		call usart_init
 3038               	.LM290:
 3039 158a 80E0      		ldi r24,lo8(usartUSE)
 3040 158c 90E0      		ldi r25,hi8(usartUSE)
 3041 158e 40E0      		ldi r20,lo8(0)
 3042 1590 50E0      		ldi r21,hi8(0)
 3043 1592 60E0      		ldi r22,hlo8(0)
 3044 1594 70E0      		ldi r23,hhi8(0)
 3045 1596 0E94 0000 		call chSemWaitTimeout
 3046               	.LM291:
 3047 159a 00D0      		rcall .
 3048 159c 00D0      		rcall .
 3049 159e 80E0      		ldi r24,lo8(usart_out)
 3050 15a0 90E0      		ldi r25,hi8(usart_out)
 3051 15a2 EDB7      		in r30,__SP_L__
 3052 15a4 FEB7      		in r31,__SP_H__
 3053 15a6 9283      		std Z+2,r25
 3054 15a8 8183      		std Z+1,r24
 3055 15aa 80E0      		ldi r24,lo8(__c.4003)
 3056 15ac 90E0      		ldi r25,hi8(__c.4003)
 3057 15ae 9483      		std Z+4,r25
 3058 15b0 8383      		std Z+3,r24
 3059 15b2 0E94 0000 		call fprintf_P
 3060               	.LM292:
 3061 15b6 0F90      		pop __tmp_reg__
 3062 15b8 0F90      		pop __tmp_reg__
 3063 15ba 0F90      		pop __tmp_reg__
 3064 15bc 0F90      		pop __tmp_reg__
 3065 15be 80E0      		ldi r24,lo8(usartUSE)
 3066 15c0 90E0      		ldi r25,hi8(usartUSE)
 3067 15c2 0E94 0000 		call chSemSignal
 3068               	.L130:
 3069               	.LBB171:
 3070               	.LBB172:
 3071               	.LM293:
 3072               	/* #APP */
 3073               	 ;  319 ".//os/nil/ports/AVR/nilcore.h" 1
 3074 15c6 F894      		cli
 3075               	 ;  0 "" 2
 3076               	/* #NOAPP */
 3077               	.LBE172:
 3078               	.LBE171:
 3079               	.LM294:
 3080 15c8 80E0      		ldi r24,lo8(trp+10)
 3081 15ca 90E0      		ldi r25,hi8(trp+10)
 3082 15cc 40E0      		ldi r20,lo8(0)
 3083 15ce 50E0      		ldi r21,hi8(0)
 3084 15d0 60E0      		ldi r22,hlo8(0)
 3085 15d2 70E0      		ldi r23,hhi8(0)
 3086 15d4 0E94 0000 		call chThdSuspendTimeoutS
 3087               	.LBB173:
 3088               	.LBB174:
 3089               	.LM295:
 3090               	/* #APP */
 3091               	 ;  327 ".//os/nil/ports/AVR/nilcore.h" 1
 3092 15d8 7894      		sei
 3093               	 ;  0 "" 2
 3094               	/* #NOAPP */
 3095               	.LBE174:
 3096               	.LBE173:
 3097               	.LM296:
 3098 15da 80E0      		ldi r24,lo8(usartUSE)
 3099 15dc 90E0      		ldi r25,hi8(usartUSE)
 3100 15de 40E0      		ldi r20,lo8(0)
 3101 15e0 50E0      		ldi r21,hi8(0)
 3102 15e2 60E0      		ldi r22,hlo8(0)
 3103 15e4 70E0      		ldi r23,hhi8(0)
 3104 15e6 0E94 0000 		call chSemWaitTimeout
 3105               	.LM297:
 3106 15ea 80E0      		ldi r24,lo8(SD1)
 3107 15ec 90E0      		ldi r25,hi8(SD1)
 3108 15ee 0E94 0000 		call test_execute
 3109               	.LM298:
 3110 15f2 80E0      		ldi r24,lo8(usartUSE)
 3111 15f4 90E0      		ldi r25,hi8(usartUSE)
 3112 15f6 0E94 0000 		call chSemSignal
 3113 15fa 00C0      		rjmp .L130
 3114               	.LFE87:
 3116               	.global	Thread5
 3118               	Thread5:
 3119               	.LFB86:
 3120               	.LM299:
 3121               	/* prologue: function */
 3122               	/* frame size = 0 */
 3123               	.LM300:
 3124 15fc 8091 0000 		lds r24,nil
 3125 1600 9091 0000 		lds r25,(nil)+1
 3126 1604 9093 0000 		sts (tp+8)+1,r25
 3127 1608 8093 0000 		sts tp+8,r24
 3128 160c C0E0      		ldi r28,lo8(st7735_out)
 3129 160e D0E0      		ldi r29,hi8(st7735_out)
 3130 1610 B0E0      		ldi r27,lo8(__c.3921)
 3131 1612 6B2E      		mov r6,r27
 3132 1614 B0E0      		ldi r27,hi8(__c.3921)
 3133 1616 7B2E      		mov r7,r27
 3134 1618 A0E0      		ldi r26,lo8(__c.3923)
 3135 161a 4A2E      		mov r4,r26
 3136 161c A0E0      		ldi r26,hi8(__c.3923)
 3137 161e 5A2E      		mov r5,r26
 3138 1620 F0E0      		ldi r31,lo8(__c.3925)
 3139 1622 2F2E      		mov r2,r31
 3140 1624 F0E0      		ldi r31,hi8(__c.3925)
 3141 1626 3F2E      		mov r3,r31
 3142 1628 E0E0      		ldi r30,lo8(__c.3930)
 3143 162a 8E2E      		mov r8,r30
 3144 162c E0E0      		ldi r30,hi8(__c.3930)
 3145 162e 9E2E      		mov r9,r30
 3146 1630 70E0      		ldi r23,lo8(__c.3942)
 3147 1632 A72E      		mov r10,r23
 3148 1634 70E0      		ldi r23,hi8(__c.3942)
 3149 1636 B72E      		mov r11,r23
 3150               	.LM301:
 3151 1638 CE01      		movw r24,r28
 3152 163a DC2E      		mov r13,r28
 3153 163c C92E      		mov r12,r25
 3154               	.L134:
 3155               	.LM302:
 3156 163e 81E0      		ldi r24,lo8(1)
 3157 1640 40E0      		ldi r20,lo8(0)
 3158 1642 50E0      		ldi r21,hi8(0)
 3159 1644 60E0      		ldi r22,hlo8(0)
 3160 1646 70E0      		ldi r23,hhi8(0)
 3161 1648 0E94 0000 		call chEvtWaitAnyTimeout
 3162               	.LM303:
 3163 164c 80E0      		ldi r24,lo8(lcdUSE)
 3164 164e 90E0      		ldi r25,hi8(lcdUSE)
 3165 1650 40E0      		ldi r20,lo8(0)
 3166 1652 50E0      		ldi r21,hi8(0)
 3167 1654 60E0      		ldi r22,hlo8(0)
 3168 1656 70E0      		ldi r23,hhi8(0)
 3169 1658 0E94 0000 		call chSemWaitTimeout
 3170               	.LM304:
 3171 165c 25E0      		ldi r18,lo8(5)
 3172 165e 2093 0000 		sts lcd_context,r18
 3173 1662 11E0      		ldi r17,lo8(1)
 3174 1664 00C0      		rjmp .L147
 3175               	.L153:
 3176               	.LM305:
 3177 1666 1130      		cpi r17,lo8(1)
 3178 1668 01F4      		brne .+2
 3179 166a 00C0      		rjmp .L135
 3180               	.LM306:
 3181 166c 8091 0000 		lds r24,lcd_context_count+4
 3182 1670 8230      		cpi r24,lo8(2)
 3183 1672 01F4      		brne .+2
 3184 1674 00C0      		rjmp .L139
 3185               	.L154:
 3186 1676 8330      		cpi r24,lo8(3)
 3187 1678 01F4      		brne .+2
 3188 167a 00C0      		rjmp .L140
 3189 167c 8130      		cpi r24,lo8(1)
 3190 167e 01F0      		breq .+2
 3191 1680 00C0      		rjmp .L137
 3192               	.LM307:
 3193 1682 80E0      		ldi r24,lo8(i2cUSE)
 3194 1684 90E0      		ldi r25,hi8(i2cUSE)
 3195 1686 40E0      		ldi r20,lo8(0)
 3196 1688 50E0      		ldi r21,hi8(0)
 3197 168a 60E0      		ldi r22,hlo8(0)
 3198 168c 70E0      		ldi r23,hhi8(0)
 3199 168e 0E94 0000 		call chSemWaitTimeout
 3200               	.LM308:
 3201 1692 80E0      		ldi r24,lo8(spiUSE)
 3202 1694 90E0      		ldi r25,hi8(spiUSE)
 3203 1696 40E0      		ldi r20,lo8(0)
 3204 1698 50E0      		ldi r21,hi8(0)
 3205 169a 60E0      		ldi r22,hlo8(0)
 3206 169c 70E0      		ldi r23,hhi8(0)
 3207 169e 0E94 0000 		call chSemWaitTimeout
 3208               	.LM309:
 3209 16a2 0E94 0000 		call MPL3115A2_getAltitude
 3210 16a6 4DB7      		in r20,__SP_L__
 3211 16a8 5EB7      		in r21,__SP_H__
 3212 16aa 4850      		subi r20,lo8(-(-8))
 3213 16ac 5040      		sbci r21,hi8(-(-8))
 3214 16ae 0FB6      		in __tmp_reg__,__SREG__
 3215 16b0 F894      		cli
 3216 16b2 5EBF      		out __SP_H__,r21
 3217 16b4 0FBE      		out __SREG__,__tmp_reg__
 3218 16b6 4DBF      		out __SP_L__,r20
 3219 16b8 EDB7      		in r30,__SP_L__
 3220 16ba FEB7      		in r31,__SP_H__
 3221 16bc 3196      		adiw r30,1
 3222 16be ADB7      		in r26,__SP_L__
 3223 16c0 BEB7      		in r27,__SP_H__
 3224 16c2 1296      		adiw r26,1+1
 3225 16c4 DC93      		st X,r29
 3226 16c6 CE93      		st -X,r28
 3227 16c8 1197      		sbiw r26,1
 3228 16ca 20E0      		ldi r18,lo8(__c.3887)
 3229 16cc 30E0      		ldi r19,hi8(__c.3887)
 3230 16ce 3383      		std Z+3,r19
 3231 16d0 2283      		std Z+2,r18
 3232 16d2 6483      		std Z+4,r22
 3233 16d4 7583      		std Z+5,r23
 3234 16d6 8683      		std Z+6,r24
 3235 16d8 9783      		std Z+7,r25
 3236 16da 0E94 0000 		call fprintf_P
 3237               	.LM310:
 3238 16de 4DB7      		in r20,__SP_L__
 3239 16e0 5EB7      		in r21,__SP_H__
 3240 16e2 485F      		subi r20,lo8(-(8))
 3241 16e4 5F4F      		sbci r21,hi8(-(8))
 3242 16e6 0FB6      		in __tmp_reg__,__SREG__
 3243 16e8 F894      		cli
 3244 16ea 5EBF      		out __SP_H__,r21
 3245 16ec 0FBE      		out __SREG__,__tmp_reg__
 3246 16ee 4DBF      		out __SP_L__,r20
 3247 16f0 80E0      		ldi r24,lo8(spiUSE)
 3248 16f2 90E0      		ldi r25,hi8(spiUSE)
 3249 16f4 0E94 0000 		call chSemSignal
 3250               	.LM311:
 3251 16f8 80E0      		ldi r24,lo8(i2cUSE)
 3252 16fa 90E0      		ldi r25,hi8(i2cUSE)
 3253 16fc 0E94 0000 		call chSemSignal
 3254               	.LM312:
 3255 1700 80E0      		ldi r24,lo8(i2cUSE)
 3256 1702 90E0      		ldi r25,hi8(i2cUSE)
 3257 1704 40E0      		ldi r20,lo8(0)
 3258 1706 50E0      		ldi r21,hi8(0)
 3259 1708 60E0      		ldi r22,hlo8(0)
 3260 170a 70E0      		ldi r23,hhi8(0)
 3261 170c 0E94 0000 		call chSemWaitTimeout
 3262               	.LM313:
 3263 1710 80E0      		ldi r24,lo8(spiUSE)
 3264 1712 90E0      		ldi r25,hi8(spiUSE)
 3265 1714 40E0      		ldi r20,lo8(0)
 3266 1716 50E0      		ldi r21,hi8(0)
 3267 1718 60E0      		ldi r22,hlo8(0)
 3268 171a 70E0      		ldi r23,hhi8(0)
 3269 171c 0E94 0000 		call chSemWaitTimeout
 3270               	.LM314:
 3271 1720 0E94 0000 		call MPL3115A2_getPressure
 3272 1724 ADB7      		in r26,__SP_L__
 3273 1726 BEB7      		in r27,__SP_H__
 3274 1728 1897      		sbiw r26,8
 3275 172a 0FB6      		in __tmp_reg__,__SREG__
 3276 172c F894      		cli
 3277 172e BEBF      		out __SP_H__,r27
 3278 1730 0FBE      		out __SREG__,__tmp_reg__
 3279 1732 ADBF      		out __SP_L__,r26
 3280 1734 EDB7      		in r30,__SP_L__
 3281 1736 FEB7      		in r31,__SP_H__
 3282 1738 3196      		adiw r30,1
 3283 173a 1296      		adiw r26,1+1
 3284 173c DC93      		st X,r29
 3285 173e CE93      		st -X,r28
 3286 1740 1197      		sbiw r26,1
 3287 1742 20E0      		ldi r18,lo8(__c.3889)
 3288 1744 30E0      		ldi r19,hi8(__c.3889)
 3289 1746 3383      		std Z+3,r19
 3290 1748 2283      		std Z+2,r18
 3291 174a 6483      		std Z+4,r22
 3292 174c 7583      		std Z+5,r23
 3293 174e 8683      		std Z+6,r24
 3294 1750 9783      		std Z+7,r25
 3295 1752 0E94 0000 		call fprintf_P
 3296               	.LM315:
 3297 1756 4DB7      		in r20,__SP_L__
 3298 1758 5EB7      		in r21,__SP_H__
 3299 175a 485F      		subi r20,lo8(-(8))
 3300 175c 5F4F      		sbci r21,hi8(-(8))
 3301 175e 0FB6      		in __tmp_reg__,__SREG__
 3302 1760 F894      		cli
 3303 1762 5EBF      		out __SP_H__,r21
 3304 1764 0FBE      		out __SREG__,__tmp_reg__
 3305 1766 4DBF      		out __SP_L__,r20
 3306 1768 80E0      		ldi r24,lo8(spiUSE)
 3307 176a 90E0      		ldi r25,hi8(spiUSE)
 3308 176c 0E94 0000 		call chSemSignal
 3309               	.LM316:
 3310 1770 80E0      		ldi r24,lo8(i2cUSE)
 3311 1772 90E0      		ldi r25,hi8(i2cUSE)
 3312 1774 0E94 0000 		call chSemSignal
 3313               	.LM317:
 3314 1778 80E0      		ldi r24,lo8(i2cUSE)
 3315 177a 90E0      		ldi r25,hi8(i2cUSE)
 3316 177c 40E0      		ldi r20,lo8(0)
 3317 177e 50E0      		ldi r21,hi8(0)
 3318 1780 60E0      		ldi r22,hlo8(0)
 3319 1782 70E0      		ldi r23,hhi8(0)
 3320 1784 0E94 0000 		call chSemWaitTimeout
 3321               	.LM318:
 3322 1788 80E0      		ldi r24,lo8(spiUSE)
 3323 178a 90E0      		ldi r25,hi8(spiUSE)
 3324 178c 40E0      		ldi r20,lo8(0)
 3325 178e 50E0      		ldi r21,hi8(0)
 3326 1790 60E0      		ldi r22,hlo8(0)
 3327 1792 70E0      		ldi r23,hhi8(0)
 3328 1794 0E94 0000 		call chSemWaitTimeout
 3329               	.LM319:
 3330 1798 0E94 0000 		call MPL3115A2_getTemperature
 3331 179c ADB7      		in r26,__SP_L__
 3332 179e BEB7      		in r27,__SP_H__
 3333 17a0 1897      		sbiw r26,8
 3334 17a2 0FB6      		in __tmp_reg__,__SREG__
 3335 17a4 F894      		cli
 3336 17a6 BEBF      		out __SP_H__,r27
 3337 17a8 0FBE      		out __SREG__,__tmp_reg__
 3338 17aa ADBF      		out __SP_L__,r26
 3339 17ac EDB7      		in r30,__SP_L__
 3340 17ae FEB7      		in r31,__SP_H__
 3341 17b0 3196      		adiw r30,1
 3342 17b2 1296      		adiw r26,1+1
 3343 17b4 DC93      		st X,r29
 3344 17b6 CE93      		st -X,r28
 3345 17b8 1197      		sbiw r26,1
 3346 17ba 20E0      		ldi r18,lo8(__c.3891)
 3347 17bc 30E0      		ldi r19,hi8(__c.3891)
 3348 17be 3383      		std Z+3,r19
 3349 17c0 2283      		std Z+2,r18
 3350 17c2 6483      		std Z+4,r22
 3351 17c4 7583      		std Z+5,r23
 3352 17c6 8683      		std Z+6,r24
 3353 17c8 9783      		std Z+7,r25
 3354 17ca 0E94 0000 		call fprintf_P
 3355               	.LM320:
 3356 17ce 4DB7      		in r20,__SP_L__
 3357 17d0 5EB7      		in r21,__SP_H__
 3358 17d2 485F      		subi r20,lo8(-(8))
 3359 17d4 5F4F      		sbci r21,hi8(-(8))
 3360 17d6 0FB6      		in __tmp_reg__,__SREG__
 3361 17d8 F894      		cli
 3362 17da 5EBF      		out __SP_H__,r21
 3363 17dc 0FBE      		out __SREG__,__tmp_reg__
 3364 17de 4DBF      		out __SP_L__,r20
 3365 17e0 80E0      		ldi r24,lo8(spiUSE)
 3366 17e2 90E0      		ldi r25,hi8(spiUSE)
 3367 17e4 0E94 0000 		call chSemSignal
 3368               	.LM321:
 3369 17e8 80E0      		ldi r24,lo8(i2cUSE)
 3370 17ea 90E0      		ldi r25,hi8(i2cUSE)
 3371 17ec 0E94 0000 		call chSemSignal
 3372               	.LM322:
 3373 17f0 E091 0000 		lds r30,battery_average
 3374 17f4 F091 0000 		lds r31,(battery_average)+1
 3375 17f8 F093 0000 		sts (WWW)+1,r31
 3376 17fc E093 0000 		sts WWW,r30
 3377               	.LM323:
 3378 1800 CF01      		movw r24,r30
 3379 1802 64E6      		ldi r22,lo8(100)
 3380 1804 70E0      		ldi r23,hi8(100)
 3381 1806 0E94 0000 		call __udivmodhi4
 3382 180a 7093 0000 		sts (XXX)+1,r23
 3383 180e 6093 0000 		sts XXX,r22
 3384               	.LM324:
 3385 1812 24E6      		ldi r18,lo8(100)
 3386 1814 30E0      		ldi r19,hi8(100)
 3387 1816 629F      		mul r22,r18
 3388 1818 C001      		movw r24,r0
 3389 181a 639F      		mul r22,r19
 3390 181c 900D      		add r25,r0
 3391 181e 729F      		mul r23,r18
 3392 1820 900D      		add r25,r0
 3393 1822 1124      		clr r1
 3394 1824 E81B      		sub r30,r24
 3395 1826 F90B      		sbc r31,r25
 3396 1828 F093 0000 		sts (YYY)+1,r31
 3397 182c E093 0000 		sts YYY,r30
 3398               	.LM325:
 3399 1830 CF01      		movw r24,r30
 3400 1832 6AE0      		ldi r22,lo8(10)
 3401 1834 70E0      		ldi r23,hi8(10)
 3402 1836 0E94 0000 		call __udivmodhi4
 3403 183a 6093 0000 		sts ZZZ,r22
 3404 183e 7093 0000 		sts ZZZ+1,r23
 3405               	.LM326:
 3406 1842 CB01      		movw r24,r22
 3407 1844 9B01      		movw r18,r22
 3408 1846 220F      		lsl r18
 3409 1848 331F      		rol r19
 3410 184a 220F      		lsl r18
 3411 184c 331F      		rol r19
 3412 184e 220F      		lsl r18
 3413 1850 331F      		rol r19
 3414 1852 880F      		lsl r24
 3415 1854 991F      		rol r25
 3416 1856 280F      		add r18,r24
 3417 1858 391F      		adc r19,r25
 3418 185a E21B      		sub r30,r18
 3419 185c F30B      		sbc r31,r19
 3420 185e F093 0000 		sts (AAA)+1,r31
 3421 1862 E093 0000 		sts AAA,r30
 3422               	.LM327:
 3423 1866 80E0      		ldi r24,lo8(spiUSE)
 3424 1868 90E0      		ldi r25,hi8(spiUSE)
 3425 186a 40E0      		ldi r20,lo8(0)
 3426 186c 50E0      		ldi r21,hi8(0)
 3427 186e 60E0      		ldi r22,hlo8(0)
 3428 1870 70E0      		ldi r23,hhi8(0)
 3429 1872 0E94 0000 		call chSemWaitTimeout
 3430 1876 80E0      		ldi r24,lo8(0)
 3431 1878 90E0      		ldi r25,hi8(0)
 3432 187a 6AE5      		ldi r22,lo8(90)
 3433 187c 70E0      		ldi r23,hi8(90)
 3434 187e 0E94 0000 		call st7735_setCursor
 3435               	.LM328:
 3436 1882 0E94 0000 		call DS3231_getStatus
 3437 1886 00D0      		rcall .
 3438 1888 00D0      		rcall .
 3439 188a 00D0      		rcall .
 3440 188c EDB7      		in r30,__SP_L__
 3441 188e FEB7      		in r31,__SP_H__
 3442 1890 3196      		adiw r30,1
 3443 1892 ADB7      		in r26,__SP_L__
 3444 1894 BEB7      		in r27,__SP_H__
 3445 1896 1296      		adiw r26,1+1
 3446 1898 DC93      		st X,r29
 3447 189a CE93      		st -X,r28
 3448 189c 1197      		sbiw r26,1
 3449 189e 20E0      		ldi r18,lo8(__c.3893)
 3450 18a0 30E0      		ldi r19,hi8(__c.3893)
 3451 18a2 3383      		std Z+3,r19
 3452 18a4 2283      		std Z+2,r18
 3453 18a6 8483      		std Z+4,r24
 3454 18a8 1582      		std Z+5,__zero_reg__
 3455 18aa 0E94 0000 		call fprintf_P
 3456               	.LM329:
 3457 18ae 00D0      		rcall .
 3458 18b0 00D0      		rcall .
 3459 18b2 EDB7      		in r30,__SP_L__
 3460 18b4 FEB7      		in r31,__SP_H__
 3461 18b6 3196      		adiw r30,1
 3462 18b8 ADB7      		in r26,__SP_L__
 3463 18ba BEB7      		in r27,__SP_H__
 3464 18bc 1296      		adiw r26,1+1
 3465 18be DC93      		st X,r29
 3466 18c0 CE93      		st -X,r28
 3467 18c2 1197      		sbiw r26,1
 3468 18c4 20E0      		ldi r18,lo8(__c.3895)
 3469 18c6 30E0      		ldi r19,hi8(__c.3895)
 3470 18c8 3383      		std Z+3,r19
 3471 18ca 2283      		std Z+2,r18
 3472 18cc 8091 0000 		lds r24,XXX
 3473 18d0 9091 0000 		lds r25,(XXX)+1
 3474 18d4 9583      		std Z+5,r25
 3475 18d6 8483      		std Z+4,r24
 3476 18d8 8091 0000 		lds r24,ZZZ
 3477 18dc 9091 0000 		lds r25,(ZZZ)+1
 3478 18e0 9783      		std Z+7,r25
 3479 18e2 8683      		std Z+6,r24
 3480 18e4 8091 0000 		lds r24,AAA
 3481 18e8 9091 0000 		lds r25,(AAA)+1
 3482 18ec 9187      		std Z+9,r25
 3483 18ee 8087      		std Z+8,r24
 3484 18f0 0E94 0000 		call fprintf_P
 3485               	.LM330:
 3486 18f4 4DB7      		in r20,__SP_L__
 3487 18f6 5EB7      		in r21,__SP_H__
 3488 18f8 4A5F      		subi r20,lo8(-(6))
 3489 18fa 5F4F      		sbci r21,hi8(-(6))
 3490 18fc 0FB6      		in __tmp_reg__,__SREG__
 3491 18fe F894      		cli
 3492 1900 5EBF      		out __SP_H__,r21
 3493 1902 0FBE      		out __SREG__,__tmp_reg__
 3494 1904 4DBF      		out __SP_L__,r20
 3495 1906 ADB7      		in r26,__SP_L__
 3496 1908 BEB7      		in r27,__SP_H__
 3497 190a 1296      		adiw r26,1+1
 3498 190c DC93      		st X,r29
 3499 190e CE93      		st -X,r28
 3500 1910 1197      		sbiw r26,1
 3501 1912 E0E0      		ldi r30,lo8(__c.3897)
 3502 1914 F0E0      		ldi r31,hi8(__c.3897)
 3503 1916 1496      		adiw r26,3+1
 3504 1918 FC93      		st X,r31
 3505 191a EE93      		st -X,r30
 3506 191c 1397      		sbiw r26,3
 3507 191e 0E94 0000 		call fprintf_P
 3508               	.LM331:
 3509 1922 0F90      		pop __tmp_reg__
 3510 1924 0F90      		pop __tmp_reg__
 3511 1926 0F90      		pop __tmp_reg__
 3512 1928 0F90      		pop __tmp_reg__
 3513 192a 80E0      		ldi r24,lo8(spiUSE)
 3514 192c 90E0      		ldi r25,hi8(spiUSE)
 3515 192e 0E94 0000 		call chSemSignal
 3516               	.L137:
 3517               	.LM332:
 3518 1932 80E0      		ldi r24,lo8(spiUSE)
 3519 1934 90E0      		ldi r25,hi8(spiUSE)
 3520 1936 40E0      		ldi r20,lo8(0)
 3521 1938 50E0      		ldi r21,hi8(0)
 3522 193a 60E0      		ldi r22,hlo8(0)
 3523 193c 70E0      		ldi r23,hhi8(0)
 3524 193e 0E94 0000 		call chSemWaitTimeout
 3525               	.LM333:
 3526 1942 80E0      		ldi r24,lo8(0)
 3527 1944 90E0      		ldi r25,hi8(0)
 3528 1946 6AE0      		ldi r22,lo8(10)
 3529 1948 70E0      		ldi r23,hi8(10)
 3530 194a 0E94 0000 		call st7735_setCursor
 3531               	.LM334:
 3532 194e 80E0      		ldi r24,lo8(spiUSE)
 3533 1950 90E0      		ldi r25,hi8(spiUSE)
 3534 1952 0E94 0000 		call chSemSignal
 3535               	.LM335:
 3536 1956 68EB      		ldi r22,lo8(3000)
 3537 1958 7BE0      		ldi r23,hi8(3000)
 3538 195a 80E0      		ldi r24,hlo8(3000)
 3539 195c 90E0      		ldi r25,hhi8(3000)
 3540 195e 0E94 0000 		call chThdSleep
 3541 1962 10E0      		ldi r17,lo8(0)
 3542               	.L147:
 3543               	.LM336:
 3544 1964 82E0      		ldi r24,lo8(2)
 3545 1966 4FEF      		ldi r20,lo8(-1)
 3546 1968 5FEF      		ldi r21,hi8(-1)
 3547 196a 6FEF      		ldi r22,hlo8(-1)
 3548 196c 7FEF      		ldi r23,hhi8(-1)
 3549 196e 0E94 0000 		call chEvtWaitAnyTimeout
 3550 1972 8230      		cpi r24,lo8(2)
 3551 1974 01F4      		brne .+2
 3552 1976 00C0      		rjmp .L152
 3553               	.LM337:
 3554 1978 84E0      		ldi r24,lo8(4)
 3555 197a 4FEF      		ldi r20,lo8(-1)
 3556 197c 5FEF      		ldi r21,hi8(-1)
 3557 197e 6FEF      		ldi r22,hlo8(-1)
 3558 1980 7FEF      		ldi r23,hhi8(-1)
 3559 1982 0E94 0000 		call chEvtWaitAnyTimeout
 3560 1986 8430      		cpi r24,lo8(4)
 3561 1988 01F0      		breq .+2
 3562 198a 00C0      		rjmp .L153
 3563               	.L135:
 3564               	.LM338:
 3565 198c 80E0      		ldi r24,lo8(spiUSE)
 3566 198e 90E0      		ldi r25,hi8(spiUSE)
 3567 1990 40E0      		ldi r20,lo8(0)
 3568 1992 50E0      		ldi r21,hi8(0)
 3569 1994 60E0      		ldi r22,hlo8(0)
 3570 1996 70E0      		ldi r23,hhi8(0)
 3571 1998 0E94 0000 		call chSemWaitTimeout
 3572               	.LM339:
 3573 199c 80E0      		ldi r24,lo8(0)
 3574 199e 60E0      		ldi r22,lo8(0)
 3575 19a0 40EA      		ldi r20,lo8(-96)
 3576 19a2 20E8      		ldi r18,lo8(-128)
 3577 19a4 00E0      		ldi r16,lo8(0)
 3578 19a6 10E0      		ldi r17,hi8(0)
 3579 19a8 0E94 0000 		call st7735_fill_rect
 3580               	.LM340:
 3581 19ac 80E0      		ldi r24,lo8(0)
 3582 19ae 90E0      		ldi r25,hi8(0)
 3583 19b0 6AE0      		ldi r22,lo8(10)
 3584 19b2 70E0      		ldi r23,hi8(10)
 3585 19b4 0E94 0000 		call st7735_setCursor
 3586               	.LM341:
 3587 19b8 80E0      		ldi r24,lo8(spiUSE)
 3588 19ba 90E0      		ldi r25,hi8(spiUSE)
 3589 19bc 0E94 0000 		call chSemSignal
 3590               	.LM342:
 3591 19c0 8091 0000 		lds r24,lcd_context_count+4
 3592 19c4 8230      		cpi r24,lo8(2)
 3593 19c6 01F0      		breq .+2
 3594 19c8 00C0      		rjmp .L154
 3595               	.L139:
 3596               	.LM343:
 3597 19ca 80E0      		ldi r24,lo8(i2cUSE)
 3598 19cc 90E0      		ldi r25,hi8(i2cUSE)
 3599 19ce 40E0      		ldi r20,lo8(0)
 3600 19d0 50E0      		ldi r21,hi8(0)
 3601 19d2 60E0      		ldi r22,hlo8(0)
 3602 19d4 70E0      		ldi r23,hhi8(0)
 3603 19d6 0E94 0000 		call chSemWaitTimeout
 3604               	.LM344:
 3605 19da 0E94 0000 		call L3GD20_read
 3606               	.LM345:
 3607 19de 80E0      		ldi r24,lo8(i2cUSE)
 3608 19e0 90E0      		ldi r25,hi8(i2cUSE)
 3609 19e2 0E94 0000 		call chSemSignal
 3610               	.LM346:
 3611 19e6 80E0      		ldi r24,lo8(spiUSE)
 3612 19e8 90E0      		ldi r25,hi8(spiUSE)
 3613 19ea 40E0      		ldi r20,lo8(0)
 3614 19ec 50E0      		ldi r21,hi8(0)
 3615 19ee 60E0      		ldi r22,hlo8(0)
 3616 19f0 70E0      		ldi r23,hhi8(0)
 3617 19f2 0E94 0000 		call chSemWaitTimeout
 3618               	.LM347:
 3619 19f6 2DB7      		in r18,__SP_L__
 3620 19f8 3EB7      		in r19,__SP_H__
 3621 19fa 2850      		subi r18,lo8(-(-8))
 3622 19fc 3040      		sbci r19,hi8(-(-8))
 3623 19fe 0FB6      		in __tmp_reg__,__SREG__
 3624 1a00 F894      		cli
 3625 1a02 3EBF      		out __SP_H__,r19
 3626 1a04 0FBE      		out __SREG__,__tmp_reg__
 3627 1a06 2DBF      		out __SP_L__,r18
 3628 1a08 EDB7      		in r30,__SP_L__
 3629 1a0a FEB7      		in r31,__SP_H__
 3630 1a0c 3196      		adiw r30,1
 3631 1a0e ADB7      		in r26,__SP_L__
 3632 1a10 BEB7      		in r27,__SP_H__
 3633 1a12 1296      		adiw r26,1+1
 3634 1a14 DC93      		st X,r29
 3635 1a16 CE93      		st -X,r28
 3636 1a18 1197      		sbiw r26,1
 3637 1a1a 20E0      		ldi r18,lo8(__c.3901)
 3638 1a1c 30E0      		ldi r19,hi8(__c.3901)
 3639 1a1e 3383      		std Z+3,r19
 3640 1a20 2283      		std Z+2,r18
 3641 1a22 8091 0000 		lds r24,g
 3642 1a26 9091 0000 		lds r25,(g)+1
 3643 1a2a A091 0000 		lds r26,(g)+2
 3644 1a2e B091 0000 		lds r27,(g)+3
 3645 1a32 8483      		std Z+4,r24
 3646 1a34 9583      		std Z+5,r25
 3647 1a36 A683      		std Z+6,r26
 3648 1a38 B783      		std Z+7,r27
 3649 1a3a 0E94 0000 		call fprintf_P
 3650               	.LM348:
 3651 1a3e EDB7      		in r30,__SP_L__
 3652 1a40 FEB7      		in r31,__SP_H__
 3653 1a42 3196      		adiw r30,1
 3654 1a44 ADB7      		in r26,__SP_L__
 3655 1a46 BEB7      		in r27,__SP_H__
 3656 1a48 1296      		adiw r26,1+1
 3657 1a4a DC93      		st X,r29
 3658 1a4c CE93      		st -X,r28
 3659 1a4e 1197      		sbiw r26,1
 3660 1a50 20E0      		ldi r18,lo8(__c.3903)
 3661 1a52 30E0      		ldi r19,hi8(__c.3903)
 3662 1a54 3383      		std Z+3,r19
 3663 1a56 2283      		std Z+2,r18
 3664 1a58 8091 0000 		lds r24,g+4
 3665 1a5c 9091 0000 		lds r25,(g+4)+1
 3666 1a60 A091 0000 		lds r26,(g+4)+2
 3667 1a64 B091 0000 		lds r27,(g+4)+3
 3668 1a68 8483      		std Z+4,r24
 3669 1a6a 9583      		std Z+5,r25
 3670 1a6c A683      		std Z+6,r26
 3671 1a6e B783      		std Z+7,r27
 3672 1a70 0E94 0000 		call fprintf_P
 3673               	.LM349:
 3674 1a74 EDB7      		in r30,__SP_L__
 3675 1a76 FEB7      		in r31,__SP_H__
 3676 1a78 3196      		adiw r30,1
 3677 1a7a ADB7      		in r26,__SP_L__
 3678 1a7c BEB7      		in r27,__SP_H__
 3679 1a7e 1296      		adiw r26,1+1
 3680 1a80 DC93      		st X,r29
 3681 1a82 CE93      		st -X,r28
 3682 1a84 1197      		sbiw r26,1
 3683 1a86 20E0      		ldi r18,lo8(__c.3905)
 3684 1a88 30E0      		ldi r19,hi8(__c.3905)
 3685 1a8a 3383      		std Z+3,r19
 3686 1a8c 2283      		std Z+2,r18
 3687 1a8e 8091 0000 		lds r24,g+8
 3688 1a92 9091 0000 		lds r25,(g+8)+1
 3689 1a96 A091 0000 		lds r26,(g+8)+2
 3690 1a9a B091 0000 		lds r27,(g+8)+3
 3691 1a9e 8483      		std Z+4,r24
 3692 1aa0 9583      		std Z+5,r25
 3693 1aa2 A683      		std Z+6,r26
 3694 1aa4 B783      		std Z+7,r27
 3695 1aa6 0E94 0000 		call fprintf_P
 3696               	.LM350:
 3697 1aaa 0F90      		pop __tmp_reg__
 3698 1aac 0F90      		pop __tmp_reg__
 3699 1aae 0F90      		pop __tmp_reg__
 3700 1ab0 0F90      		pop __tmp_reg__
 3701 1ab2 ADB7      		in r26,__SP_L__
 3702 1ab4 BEB7      		in r27,__SP_H__
 3703 1ab6 1296      		adiw r26,1+1
 3704 1ab8 DC93      		st X,r29
 3705 1aba CE93      		st -X,r28
 3706 1abc 1197      		sbiw r26,1
 3707 1abe E0E0      		ldi r30,lo8(__c.3907)
 3708 1ac0 F0E0      		ldi r31,hi8(__c.3907)
 3709 1ac2 1496      		adiw r26,3+1
 3710 1ac4 FC93      		st X,r31
 3711 1ac6 EE93      		st -X,r30
 3712 1ac8 1397      		sbiw r26,3
 3713 1aca 0E94 0000 		call fprintf_P
 3714               	.LM351:
 3715 1ace 0F90      		pop __tmp_reg__
 3716 1ad0 0F90      		pop __tmp_reg__
 3717 1ad2 0F90      		pop __tmp_reg__
 3718 1ad4 0F90      		pop __tmp_reg__
 3719 1ad6 80E0      		ldi r24,lo8(spiUSE)
 3720 1ad8 90E0      		ldi r25,hi8(spiUSE)
 3721 1ada 0E94 0000 		call chSemSignal
 3722               	.LM352:
 3723 1ade 80E0      		ldi r24,lo8(i2cUSE)
 3724 1ae0 90E0      		ldi r25,hi8(i2cUSE)
 3725 1ae2 40E0      		ldi r20,lo8(0)
 3726 1ae4 50E0      		ldi r21,hi8(0)
 3727 1ae6 60E0      		ldi r22,hlo8(0)
 3728 1ae8 70E0      		ldi r23,hhi8(0)
 3729 1aea 0E94 0000 		call chSemWaitTimeout
 3730               	.LM353:
 3731 1aee 0E94 0000 		call LSM303_read
 3732               	.LM354:
 3733 1af2 80E0      		ldi r24,lo8(i2cUSE)
 3734 1af4 90E0      		ldi r25,hi8(i2cUSE)
 3735 1af6 0E94 0000 		call chSemSignal
 3736               	.LM355:
 3737 1afa 80E0      		ldi r24,lo8(spiUSE)
 3738 1afc 90E0      		ldi r25,hi8(spiUSE)
 3739 1afe 40E0      		ldi r20,lo8(0)
 3740 1b00 50E0      		ldi r21,hi8(0)
 3741 1b02 60E0      		ldi r22,hlo8(0)
 3742 1b04 70E0      		ldi r23,hhi8(0)
 3743 1b06 0E94 0000 		call chSemWaitTimeout
 3744               	.LM356:
 3745 1b0a 2DB7      		in r18,__SP_L__
 3746 1b0c 3EB7      		in r19,__SP_H__
 3747 1b0e 2850      		subi r18,lo8(-(-8))
 3748 1b10 3040      		sbci r19,hi8(-(-8))
 3749 1b12 0FB6      		in __tmp_reg__,__SREG__
 3750 1b14 F894      		cli
 3751 1b16 3EBF      		out __SP_H__,r19
 3752 1b18 0FBE      		out __SREG__,__tmp_reg__
 3753 1b1a 2DBF      		out __SP_L__,r18
 3754 1b1c EDB7      		in r30,__SP_L__
 3755 1b1e FEB7      		in r31,__SP_H__
 3756 1b20 3196      		adiw r30,1
 3757 1b22 ADB7      		in r26,__SP_L__
 3758 1b24 BEB7      		in r27,__SP_H__
 3759 1b26 1296      		adiw r26,1+1
 3760 1b28 DC93      		st X,r29
 3761 1b2a CE93      		st -X,r28
 3762 1b2c 1197      		sbiw r26,1
 3763 1b2e 20E0      		ldi r18,lo8(__c.3909)
 3764 1b30 30E0      		ldi r19,hi8(__c.3909)
 3765 1b32 3383      		std Z+3,r19
 3766 1b34 2283      		std Z+2,r18
 3767 1b36 8091 0000 		lds r24,a
 3768 1b3a 9091 0000 		lds r25,(a)+1
 3769 1b3e A091 0000 		lds r26,(a)+2
 3770 1b42 B091 0000 		lds r27,(a)+3
 3771 1b46 8483      		std Z+4,r24
 3772 1b48 9583      		std Z+5,r25
 3773 1b4a A683      		std Z+6,r26
 3774 1b4c B783      		std Z+7,r27
 3775 1b4e 0E94 0000 		call fprintf_P
 3776               	.LM357:
 3777 1b52 EDB7      		in r30,__SP_L__
 3778 1b54 FEB7      		in r31,__SP_H__
 3779 1b56 3196      		adiw r30,1
 3780 1b58 ADB7      		in r26,__SP_L__
 3781 1b5a BEB7      		in r27,__SP_H__
 3782 1b5c 1296      		adiw r26,1+1
 3783 1b5e DC93      		st X,r29
 3784 1b60 CE93      		st -X,r28
 3785 1b62 1197      		sbiw r26,1
 3786 1b64 20E0      		ldi r18,lo8(__c.3911)
 3787 1b66 30E0      		ldi r19,hi8(__c.3911)
 3788 1b68 3383      		std Z+3,r19
 3789 1b6a 2283      		std Z+2,r18
 3790 1b6c 8091 0000 		lds r24,a+4
 3791 1b70 9091 0000 		lds r25,(a+4)+1
 3792 1b74 A091 0000 		lds r26,(a+4)+2
 3793 1b78 B091 0000 		lds r27,(a+4)+3
 3794 1b7c 8483      		std Z+4,r24
 3795 1b7e 9583      		std Z+5,r25
 3796 1b80 A683      		std Z+6,r26
 3797 1b82 B783      		std Z+7,r27
 3798 1b84 0E94 0000 		call fprintf_P
 3799               	.LM358:
 3800 1b88 EDB7      		in r30,__SP_L__
 3801 1b8a FEB7      		in r31,__SP_H__
 3802 1b8c 3196      		adiw r30,1
 3803 1b8e ADB7      		in r26,__SP_L__
 3804 1b90 BEB7      		in r27,__SP_H__
 3805 1b92 1296      		adiw r26,1+1
 3806 1b94 DC93      		st X,r29
 3807 1b96 CE93      		st -X,r28
 3808 1b98 1197      		sbiw r26,1
 3809 1b9a 20E0      		ldi r18,lo8(__c.3913)
 3810 1b9c 30E0      		ldi r19,hi8(__c.3913)
 3811 1b9e 3383      		std Z+3,r19
 3812 1ba0 2283      		std Z+2,r18
 3813 1ba2 8091 0000 		lds r24,a+8
 3814 1ba6 9091 0000 		lds r25,(a+8)+1
 3815 1baa A091 0000 		lds r26,(a+8)+2
 3816 1bae B091 0000 		lds r27,(a+8)+3
 3817 1bb2 8483      		std Z+4,r24
 3818 1bb4 9583      		std Z+5,r25
 3819 1bb6 A683      		std Z+6,r26
 3820 1bb8 B783      		std Z+7,r27
 3821 1bba 0E94 0000 		call fprintf_P
 3822               	.LM359:
 3823 1bbe 0F90      		pop __tmp_reg__
 3824 1bc0 0F90      		pop __tmp_reg__
 3825 1bc2 0F90      		pop __tmp_reg__
 3826 1bc4 0F90      		pop __tmp_reg__
 3827 1bc6 ADB7      		in r26,__SP_L__
 3828 1bc8 BEB7      		in r27,__SP_H__
 3829 1bca 1296      		adiw r26,1+1
 3830 1bcc DC93      		st X,r29
 3831 1bce CE93      		st -X,r28
 3832 1bd0 1197      		sbiw r26,1
 3833 1bd2 E0E0      		ldi r30,lo8(__c.3915)
 3834 1bd4 F0E0      		ldi r31,hi8(__c.3915)
 3835 1bd6 1496      		adiw r26,3+1
 3836 1bd8 FC93      		st X,r31
 3837 1bda EE93      		st -X,r30
 3838 1bdc 1397      		sbiw r26,3
 3839 1bde 0E94 0000 		call fprintf_P
 3840               	.LM360:
 3841 1be2 00D0      		rcall .
 3842 1be4 00D0      		rcall .
 3843 1be6 EDB7      		in r30,__SP_L__
 3844 1be8 FEB7      		in r31,__SP_H__
 3845 1bea 3196      		adiw r30,1
 3846 1bec ADB7      		in r26,__SP_L__
 3847 1bee BEB7      		in r27,__SP_H__
 3848 1bf0 1296      		adiw r26,1+1
 3849 1bf2 DC93      		st X,r29
 3850 1bf4 CE93      		st -X,r28
 3851 1bf6 1197      		sbiw r26,1
 3852 1bf8 20E0      		ldi r18,lo8(__c.3917)
 3853 1bfa 30E0      		ldi r19,hi8(__c.3917)
 3854 1bfc 3383      		std Z+3,r19
 3855 1bfe 2283      		std Z+2,r18
 3856 1c00 8091 0000 		lds r24,m
 3857 1c04 9091 0000 		lds r25,(m)+1
 3858 1c08 A091 0000 		lds r26,(m)+2
 3859 1c0c B091 0000 		lds r27,(m)+3
 3860 1c10 8483      		std Z+4,r24
 3861 1c12 9583      		std Z+5,r25
 3862 1c14 A683      		std Z+6,r26
 3863 1c16 B783      		std Z+7,r27
 3864 1c18 0E94 0000 		call fprintf_P
 3865               	.LM361:
 3866 1c1c EDB7      		in r30,__SP_L__
 3867 1c1e FEB7      		in r31,__SP_H__
 3868 1c20 3196      		adiw r30,1
 3869 1c22 ADB7      		in r26,__SP_L__
 3870 1c24 BEB7      		in r27,__SP_H__
 3871 1c26 1296      		adiw r26,1+1
 3872 1c28 DC93      		st X,r29
 3873 1c2a CE93      		st -X,r28
 3874 1c2c 1197      		sbiw r26,1
 3875 1c2e 20E0      		ldi r18,lo8(__c.3919)
 3876 1c30 30E0      		ldi r19,hi8(__c.3919)
 3877 1c32 3383      		std Z+3,r19
 3878 1c34 2283      		std Z+2,r18
 3879 1c36 8091 0000 		lds r24,m+4
 3880 1c3a 9091 0000 		lds r25,(m+4)+1
 3881 1c3e A091 0000 		lds r26,(m+4)+2
 3882 1c42 B091 0000 		lds r27,(m+4)+3
 3883 1c46 8483      		std Z+4,r24
 3884 1c48 9583      		std Z+5,r25
 3885 1c4a A683      		std Z+6,r26
 3886 1c4c B783      		std Z+7,r27
 3887 1c4e 0E94 0000 		call fprintf_P
 3888               	.LM362:
 3889 1c52 EDB7      		in r30,__SP_L__
 3890 1c54 FEB7      		in r31,__SP_H__
 3891 1c56 3196      		adiw r30,1
 3892 1c58 ADB7      		in r26,__SP_L__
 3893 1c5a BEB7      		in r27,__SP_H__
 3894 1c5c 1296      		adiw r26,1+1
 3895 1c5e DC93      		st X,r29
 3896 1c60 CE93      		st -X,r28
 3897 1c62 1197      		sbiw r26,1
 3898 1c64 7382      		std Z+3,r7
 3899 1c66 6282      		std Z+2,r6
 3900 1c68 8091 0000 		lds r24,m+8
 3901 1c6c 9091 0000 		lds r25,(m+8)+1
 3902 1c70 A091 0000 		lds r26,(m+8)+2
 3903 1c74 B091 0000 		lds r27,(m+8)+3
 3904 1c78 8483      		std Z+4,r24
 3905 1c7a 9583      		std Z+5,r25
 3906 1c7c A683      		std Z+6,r26
 3907 1c7e B783      		std Z+7,r27
 3908 1c80 0E94 0000 		call fprintf_P
 3909               	.LM363:
 3910 1c84 0F90      		pop __tmp_reg__
 3911 1c86 0F90      		pop __tmp_reg__
 3912 1c88 0F90      		pop __tmp_reg__
 3913 1c8a 0F90      		pop __tmp_reg__
 3914 1c8c EDB7      		in r30,__SP_L__
 3915 1c8e FEB7      		in r31,__SP_H__
 3916 1c90 D283      		std Z+2,r29
 3917 1c92 C183      		std Z+1,r28
 3918 1c94 5482      		std Z+4,r5
 3919 1c96 4382      		std Z+3,r4
 3920 1c98 0E94 0000 		call fprintf_P
 3921               	.LM364:
 3922 1c9c 0F90      		pop __tmp_reg__
 3923 1c9e 0F90      		pop __tmp_reg__
 3924 1ca0 0F90      		pop __tmp_reg__
 3925 1ca2 0F90      		pop __tmp_reg__
 3926 1ca4 80E0      		ldi r24,lo8(spiUSE)
 3927 1ca6 90E0      		ldi r25,hi8(spiUSE)
 3928 1ca8 0E94 0000 		call chSemSignal
 3929               	.LM365:
 3930 1cac 80E0      		ldi r24,lo8(i2cUSE)
 3931 1cae 90E0      		ldi r25,hi8(i2cUSE)
 3932 1cb0 40E0      		ldi r20,lo8(0)
 3933 1cb2 50E0      		ldi r21,hi8(0)
 3934 1cb4 60E0      		ldi r22,hlo8(0)
 3935 1cb6 70E0      		ldi r23,hhi8(0)
 3936 1cb8 0E94 0000 		call chSemWaitTimeout
 3937               	.LM366:
 3938 1cbc 0E94 0000 		call LSM303_heading
 3939 1cc0 7B01      		movw r14,r22
 3940 1cc2 8C01      		movw r16,r24
 3941               	.LM367:
 3942 1cc4 80E0      		ldi r24,lo8(i2cUSE)
 3943 1cc6 90E0      		ldi r25,hi8(i2cUSE)
 3944 1cc8 0E94 0000 		call chSemSignal
 3945               	.LM368:
 3946 1ccc C801      		movw r24,r16
 3947 1cce B701      		movw r22,r14
 3948 1cd0 20E0      		ldi r18,lo8(0x43340000)
 3949 1cd2 30E0      		ldi r19,hi8(0x43340000)
 3950 1cd4 44E3      		ldi r20,hlo8(0x43340000)
 3951 1cd6 53E4      		ldi r21,hhi8(0x43340000)
 3952 1cd8 0E94 0000 		call __ltsf2
 3953 1cdc 8823      		tst r24
 3954 1cde 04F0      		brlt .+2
 3955 1ce0 00C0      		rjmp .L150
 3956               	.LM369:
 3957 1ce2 C801      		movw r24,r16
 3958 1ce4 B701      		movw r22,r14
 3959 1ce6 20E0      		ldi r18,lo8(0x43340000)
 3960 1ce8 30E0      		ldi r19,hi8(0x43340000)
 3961 1cea 44E3      		ldi r20,hlo8(0x43340000)
 3962 1cec 53E4      		ldi r21,hhi8(0x43340000)
 3963 1cee 0E94 0000 		call __addsf3
 3964 1cf2 7B01      		movw r14,r22
 3965 1cf4 8C01      		movw r16,r24
 3966               	.L143:
 3967               	.LM370:
 3968 1cf6 80E0      		ldi r24,lo8(spiUSE)
 3969 1cf8 90E0      		ldi r25,hi8(spiUSE)
 3970 1cfa 40E0      		ldi r20,lo8(0)
 3971 1cfc 50E0      		ldi r21,hi8(0)
 3972 1cfe 60E0      		ldi r22,hlo8(0)
 3973 1d00 70E0      		ldi r23,hhi8(0)
 3974 1d02 0E94 0000 		call chSemWaitTimeout
 3975               	.LM371:
 3976 1d06 2DB7      		in r18,__SP_L__
 3977 1d08 3EB7      		in r19,__SP_H__
 3978 1d0a 2850      		subi r18,lo8(-(-8))
 3979 1d0c 3040      		sbci r19,hi8(-(-8))
 3980 1d0e 0FB6      		in __tmp_reg__,__SREG__
 3981 1d10 F894      		cli
 3982 1d12 3EBF      		out __SP_H__,r19
 3983 1d14 0FBE      		out __SREG__,__tmp_reg__
 3984 1d16 2DBF      		out __SP_L__,r18
 3985 1d18 EDB7      		in r30,__SP_L__
 3986 1d1a FEB7      		in r31,__SP_H__
 3987 1d1c 3196      		adiw r30,1
 3988 1d1e ADB7      		in r26,__SP_L__
 3989 1d20 BEB7      		in r27,__SP_H__
 3990 1d22 1296      		adiw r26,1+1
 3991 1d24 DC93      		st X,r29
 3992 1d26 CE93      		st -X,r28
 3993 1d28 1197      		sbiw r26,1
 3994 1d2a 3382      		std Z+3,r3
 3995 1d2c 2282      		std Z+2,r2
 3996 1d2e C701      		movw r24,r14
 3997 1d30 D801      		movw r26,r16
 3998 1d32 8483      		std Z+4,r24
 3999 1d34 9583      		std Z+5,r25
 4000 1d36 A683      		std Z+6,r26
 4001 1d38 B783      		std Z+7,r27
 4002 1d3a 0E94 0000 		call fprintf_P
 4003               	.LM372:
 4004 1d3e EDB7      		in r30,__SP_L__
 4005 1d40 FEB7      		in r31,__SP_H__
 4006 1d42 3896      		adiw r30,8
 4007 1d44 0FB6      		in __tmp_reg__,__SREG__
 4008 1d46 F894      		cli
 4009 1d48 FEBF      		out __SP_H__,r31
 4010 1d4a 0FBE      		out __SREG__,__tmp_reg__
 4011 1d4c EDBF      		out __SP_L__,r30
 4012 1d4e 80E0      		ldi r24,lo8(spiUSE)
 4013 1d50 90E0      		ldi r25,hi8(spiUSE)
 4014 1d52 0E94 0000 		call chSemSignal
 4015 1d56 00C0      		rjmp .L137
 4016               	.L140:
 4017               	.LM373:
 4018 1d58 80E0      		ldi r24,lo8(i2cUSE)
 4019 1d5a 90E0      		ldi r25,hi8(i2cUSE)
 4020 1d5c 40E0      		ldi r20,lo8(0)
 4021 1d5e 50E0      		ldi r21,hi8(0)
 4022 1d60 60E0      		ldi r22,hlo8(0)
 4023 1d62 70E0      		ldi r23,hhi8(0)
 4024 1d64 0E94 0000 		call chSemWaitTimeout
 4025               	.LM374:
 4026 1d68 0091 0000 		lds r16,hr_format
 4027 1d6c 1091 0000 		lds r17,(hr_format)+1
 4028 1d70 80E0      		ldi r24,lo8(hr)
 4029 1d72 90E0      		ldi r25,hi8(hr)
 4030 1d74 60E0      		ldi r22,lo8(min)
 4031 1d76 70E0      		ldi r23,hi8(min)
 4032 1d78 40E0      		ldi r20,lo8(s)
 4033 1d7a 50E0      		ldi r21,hi8(s)
 4034 1d7c 20E0      		ldi r18,lo8(am_pm)
 4035 1d7e 30E0      		ldi r19,hi8(am_pm)
 4036 1d80 0E94 0000 		call DS3231_getTime
 4037               	.LM375:
 4038 1d84 80E0      		ldi r24,lo8(i2cUSE)
 4039 1d86 90E0      		ldi r25,hi8(i2cUSE)
 4040 1d88 0E94 0000 		call chSemSignal
 4041               	.LM376:
 4042 1d8c 80E0      		ldi r24,lo8(i2cUSE)
 4043 1d8e 90E0      		ldi r25,hi8(i2cUSE)
 4044 1d90 40E0      		ldi r20,lo8(0)
 4045 1d92 50E0      		ldi r21,hi8(0)
 4046 1d94 60E0      		ldi r22,hlo8(0)
 4047 1d96 70E0      		ldi r23,hhi8(0)
 4048 1d98 0E94 0000 		call chSemWaitTimeout
 4049               	.LM377:
 4050 1d9c 80E0      		ldi r24,lo8(dy)
 4051 1d9e 90E0      		ldi r25,hi8(dy)
 4052 1da0 60E0      		ldi r22,lo8(dt)
 4053 1da2 70E0      		ldi r23,hi8(dt)
 4054 1da4 40E0      		ldi r20,lo8(mt)
 4055 1da6 50E0      		ldi r21,hi8(mt)
 4056 1da8 20E0      		ldi r18,lo8(yr)
 4057 1daa 30E0      		ldi r19,hi8(yr)
 4058 1dac 0E94 0000 		call DS3231_getDate
 4059               	.LM378:
 4060 1db0 80E0      		ldi r24,lo8(i2cUSE)
 4061 1db2 90E0      		ldi r25,hi8(i2cUSE)
 4062 1db4 0E94 0000 		call chSemSignal
 4063               	.LM379:
 4064 1db8 80E0      		ldi r24,lo8(spiUSE)
 4065 1dba 90E0      		ldi r25,hi8(spiUSE)
 4066 1dbc 40E0      		ldi r20,lo8(0)
 4067 1dbe 50E0      		ldi r21,hi8(0)
 4068 1dc0 60E0      		ldi r22,hlo8(0)
 4069 1dc2 70E0      		ldi r23,hhi8(0)
 4070 1dc4 0E94 0000 		call chSemWaitTimeout
 4071               	.LM380:
 4072 1dc8 82E0      		ldi r24,lo8(2)
 4073 1dca 0E94 0000 		call st7735_setTextSize
 4074               	.LM381:
 4075 1dce 00D0      		rcall .
 4076 1dd0 00D0      		rcall .
 4077 1dd2 00D0      		rcall .
 4078 1dd4 ADB7      		in r26,__SP_L__
 4079 1dd6 BEB7      		in r27,__SP_H__
 4080 1dd8 1196      		adiw r26,1
 4081 1dda EDB7      		in r30,__SP_L__
 4082 1ddc FEB7      		in r31,__SP_H__
 4083 1dde D283      		std Z+2,r29
 4084 1de0 C183      		std Z+1,r28
 4085 1de2 20E0      		ldi r18,lo8(__c.3928)
 4086 1de4 30E0      		ldi r19,hi8(__c.3928)
 4087 1de6 1396      		adiw r26,2+1
 4088 1de8 3C93      		st X,r19
 4089 1dea 2E93      		st -X,r18
 4090 1dec 1297      		sbiw r26,2
 4091 1dee E091 0000 		lds r30,dy
 4092 1df2 F0E0      		ldi r31,lo8(0)
 4093 1df4 EE0F      		lsl r30
 4094 1df6 FF1F      		rol r31
 4095 1df8 E050      		subi r30,lo8(-(DAY_NAME-2))
 4096 1dfa F040      		sbci r31,hi8(-(DAY_NAME-2))
 4097 1dfc 8081      		ld r24,Z
 4098 1dfe 9181      		ldd r25,Z+1
 4099 1e00 1596      		adiw r26,4+1
 4100 1e02 9C93      		st X,r25
 4101 1e04 8E93      		st -X,r24
 4102 1e06 1497      		sbiw r26,4
 4103 1e08 0E94 0000 		call fprintf_P
 4104               	.LM382:
 4105 1e0c 4DB7      		in r20,__SP_L__
 4106 1e0e 5EB7      		in r21,__SP_H__
 4107 1e10 4A5F      		subi r20,lo8(-(6))
 4108 1e12 5F4F      		sbci r21,hi8(-(6))
 4109 1e14 0FB6      		in __tmp_reg__,__SREG__
 4110 1e16 F894      		cli
 4111 1e18 5EBF      		out __SP_H__,r21
 4112 1e1a 0FBE      		out __SREG__,__tmp_reg__
 4113 1e1c 4DBF      		out __SP_L__,r20
 4114 1e1e 80E4      		ldi r24,lo8(64)
 4115 1e20 90E0      		ldi r25,hi8(64)
 4116 1e22 6AE0      		ldi r22,lo8(10)
 4117 1e24 70E0      		ldi r23,hi8(10)
 4118 1e26 0E94 0000 		call st7735_setCursor
 4119               	.LM383:
 4120 1e2a 8DB7      		in r24,__SP_L__
 4121 1e2c 9EB7      		in r25,__SP_H__
 4122 1e2e 0A97      		sbiw r24,10
 4123 1e30 0FB6      		in __tmp_reg__,__SREG__
 4124 1e32 F894      		cli
 4125 1e34 9EBF      		out __SP_H__,r25
 4126 1e36 0FBE      		out __SREG__,__tmp_reg__
 4127 1e38 8DBF      		out __SP_L__,r24
 4128 1e3a EDB7      		in r30,__SP_L__
 4129 1e3c FEB7      		in r31,__SP_H__
 4130 1e3e 3196      		adiw r30,1
 4131 1e40 ADB7      		in r26,__SP_L__
 4132 1e42 BEB7      		in r27,__SP_H__
 4133 1e44 1296      		adiw r26,1+1
 4134 1e46 DC93      		st X,r29
 4135 1e48 CE93      		st -X,r28
 4136 1e4a 1197      		sbiw r26,1
 4137 1e4c 9382      		std Z+3,r9
 4138 1e4e 8282      		std Z+2,r8
 4139 1e50 8091 0000 		lds r24,mt
 4140 1e54 8483      		std Z+4,r24
 4141 1e56 1582      		std Z+5,__zero_reg__
 4142 1e58 8091 0000 		lds r24,dt
 4143 1e5c 8683      		std Z+6,r24
 4144 1e5e 1782      		std Z+7,__zero_reg__
 4145 1e60 8091 0000 		lds r24,yr
 4146 1e64 8087      		std Z+8,r24
 4147 1e66 1186      		std Z+9,__zero_reg__
 4148 1e68 0E94 0000 		call fprintf_P
 4149               	.LM384:
 4150 1e6c EDB7      		in r30,__SP_L__
 4151 1e6e FEB7      		in r31,__SP_H__
 4152 1e70 3A96      		adiw r30,10
 4153 1e72 0FB6      		in __tmp_reg__,__SREG__
 4154 1e74 F894      		cli
 4155 1e76 FEBF      		out __SP_H__,r31
 4156 1e78 0FBE      		out __SREG__,__tmp_reg__
 4157 1e7a EDBF      		out __SP_L__,r30
 4158 1e7c 80E0      		ldi r24,lo8(spiUSE)
 4159 1e7e 90E0      		ldi r25,hi8(spiUSE)
 4160 1e80 0E94 0000 		call chSemSignal
 4161               	.LM385:
 4162 1e84 8091 0000 		lds r24,hr_format
 4163 1e88 9091 0000 		lds r25,(hr_format)+1
 4164 1e8c 0197      		sbiw r24,1
 4165 1e8e 01F0      		breq .+2
 4166 1e90 00C0      		rjmp .L144
 4167               	.LM386:
 4168 1e92 8091 0000 		lds r24,am_pm
 4169 1e96 9091 0000 		lds r25,(am_pm)+1
 4170 1e9a 0197      		sbiw r24,1
 4171 1e9c 01F4      		brne .+2
 4172 1e9e 00C0      		rjmp .L155
 4173               	.LM387:
 4174 1ea0 80E0      		ldi r24,lo8(spiUSE)
 4175 1ea2 90E0      		ldi r25,hi8(spiUSE)
 4176 1ea4 40E0      		ldi r20,lo8(0)
 4177 1ea6 50E0      		ldi r21,hi8(0)
 4178 1ea8 60E0      		ldi r22,hlo8(0)
 4179 1eaa 70E0      		ldi r23,hhi8(0)
 4180 1eac 0E94 0000 		call chSemWaitTimeout
 4181               	.LM388:
 4182 1eb0 80E0      		ldi r24,lo8(0)
 4183 1eb2 90E0      		ldi r25,hi8(0)
 4184 1eb4 62E3      		ldi r22,lo8(50)
 4185 1eb6 70E0      		ldi r23,hi8(50)
 4186 1eb8 0E94 0000 		call st7735_setCursor
 4187               	.LM389:
 4188 1ebc 83E0      		ldi r24,lo8(3)
 4189 1ebe 0E94 0000 		call st7735_setTextSize
 4190               	.LM390:
 4191 1ec2 2DB7      		in r18,__SP_L__
 4192 1ec4 3EB7      		in r19,__SP_H__
 4193 1ec6 2A50      		subi r18,lo8(-(-10))
 4194 1ec8 3040      		sbci r19,hi8(-(-10))
 4195 1eca 0FB6      		in __tmp_reg__,__SREG__
 4196 1ecc F894      		cli
 4197 1ece 3EBF      		out __SP_H__,r19
 4198 1ed0 0FBE      		out __SREG__,__tmp_reg__
 4199 1ed2 2DBF      		out __SP_L__,r18
 4200 1ed4 EDB7      		in r30,__SP_L__
 4201 1ed6 FEB7      		in r31,__SP_H__
 4202 1ed8 3196      		adiw r30,1
 4203 1eda ADB7      		in r26,__SP_L__
 4204 1edc BEB7      		in r27,__SP_H__
 4205 1ede 1196      		adiw r26,1
 4206 1ee0 DC92      		st X,r13
 4207 1ee2 1197      		sbiw r26,1
 4208 1ee4 1296      		adiw r26,2
 4209 1ee6 CC92      		st X,r12
 4210 1ee8 20E0      		ldi r18,lo8(__c.3936)
 4211 1eea 30E0      		ldi r19,hi8(__c.3936)
 4212 1eec 3383      		std Z+3,r19
 4213 1eee 2283      		std Z+2,r18
 4214 1ef0 8091 0000 		lds r24,hr
 4215 1ef4 8483      		std Z+4,r24
 4216 1ef6 1582      		std Z+5,__zero_reg__
 4217 1ef8 8091 0000 		lds r24,min
 4218 1efc 8683      		std Z+6,r24
 4219 1efe 1782      		std Z+7,__zero_reg__
 4220 1f00 8091 0000 		lds r24,s
 4221 1f04 8087      		std Z+8,r24
 4222 1f06 1186      		std Z+9,__zero_reg__
 4223 1f08 0E94 0000 		call fprintf_P
 4224               	.LM391:
 4225 1f0c 4DB7      		in r20,__SP_L__
 4226 1f0e 5EB7      		in r21,__SP_H__
 4227 1f10 465F      		subi r20,lo8(-(10))
 4228 1f12 5F4F      		sbci r21,hi8(-(10))
 4229 1f14 0FB6      		in __tmp_reg__,__SREG__
 4230 1f16 F894      		cli
 4231 1f18 5EBF      		out __SP_H__,r21
 4232 1f1a 0FBE      		out __SREG__,__tmp_reg__
 4233 1f1c 4DBF      		out __SP_L__,r20
 4234 1f1e 81E0      		ldi r24,lo8(1)
 4235 1f20 0E94 0000 		call st7735_setTextSize
 4236               	.LM392:
 4237 1f24 84E9      		ldi r24,lo8(148)
 4238 1f26 90E0      		ldi r25,hi8(148)
 4239 1f28 62E3      		ldi r22,lo8(50)
 4240 1f2a 70E0      		ldi r23,hi8(50)
 4241 1f2c 0E94 0000 		call st7735_setCursor
 4242               	.LM393:
 4243 1f30 00D0      		rcall .
 4244 1f32 00D0      		rcall .
 4245 1f34 ADB7      		in r26,__SP_L__
 4246 1f36 BEB7      		in r27,__SP_H__
 4247 1f38 1296      		adiw r26,1+1
 4248 1f3a DC93      		st X,r29
 4249 1f3c CE93      		st -X,r28
 4250 1f3e 1197      		sbiw r26,1
 4251 1f40 E0E0      		ldi r30,lo8(__c.3938)
 4252 1f42 F0E0      		ldi r31,hi8(__c.3938)
 4253               	.L151:
 4254 1f44 1496      		adiw r26,3+1
 4255 1f46 FC93      		st X,r31
 4256 1f48 EE93      		st -X,r30
 4257 1f4a 1397      		sbiw r26,3
 4258 1f4c 0E94 0000 		call fprintf_P
 4259               	.LM394:
 4260 1f50 0F90      		pop __tmp_reg__
 4261 1f52 0F90      		pop __tmp_reg__
 4262 1f54 0F90      		pop __tmp_reg__
 4263 1f56 0F90      		pop __tmp_reg__
 4264 1f58 83E0      		ldi r24,lo8(3)
 4265 1f5a 0E94 0000 		call st7735_setTextSize
 4266               	.LM395:
 4267 1f5e 80E0      		ldi r24,lo8(spiUSE)
 4268 1f60 90E0      		ldi r25,hi8(spiUSE)
 4269 1f62 0E94 0000 		call chSemSignal
 4270               	.L146:
 4271               	.LM396:
 4272 1f66 80E0      		ldi r24,lo8(spiUSE)
 4273 1f68 90E0      		ldi r25,hi8(spiUSE)
 4274 1f6a 40E0      		ldi r20,lo8(0)
 4275 1f6c 50E0      		ldi r21,hi8(0)
 4276 1f6e 60E0      		ldi r22,hlo8(0)
 4277 1f70 70E0      		ldi r23,hhi8(0)
 4278 1f72 0E94 0000 		call chSemWaitTimeout
 4279               	.LM397:
 4280 1f76 80E0      		ldi r24,lo8(0)
 4281 1f78 90E0      		ldi r25,hi8(0)
 4282 1f7a 68E7      		ldi r22,lo8(120)
 4283 1f7c 70E0      		ldi r23,hi8(120)
 4284 1f7e 0E94 0000 		call st7735_setCursor
 4285               	.LM398:
 4286 1f82 81E0      		ldi r24,lo8(1)
 4287 1f84 0E94 0000 		call st7735_setTextSize
 4288               	.LM399:
 4289 1f88 80E0      		ldi r24,lo8(i2cUSE)
 4290 1f8a 90E0      		ldi r25,hi8(i2cUSE)
 4291 1f8c 40E0      		ldi r20,lo8(0)
 4292 1f8e 50E0      		ldi r21,hi8(0)
 4293 1f90 60E0      		ldi r22,hlo8(0)
 4294 1f92 70E0      		ldi r23,hhi8(0)
 4295 1f94 0E94 0000 		call chSemWaitTimeout
 4296               	.LM400:
 4297 1f98 0E94 0000 		call DS3231_getTemp
 4298 1f9c ADB7      		in r26,__SP_L__
 4299 1f9e BEB7      		in r27,__SP_H__
 4300 1fa0 1897      		sbiw r26,8
 4301 1fa2 0FB6      		in __tmp_reg__,__SREG__
 4302 1fa4 F894      		cli
 4303 1fa6 BEBF      		out __SP_H__,r27
 4304 1fa8 0FBE      		out __SREG__,__tmp_reg__
 4305 1faa ADBF      		out __SP_L__,r26
 4306 1fac EDB7      		in r30,__SP_L__
 4307 1fae FEB7      		in r31,__SP_H__
 4308 1fb0 3196      		adiw r30,1
 4309 1fb2 1296      		adiw r26,1+1
 4310 1fb4 DC93      		st X,r29
 4311 1fb6 CE93      		st -X,r28
 4312 1fb8 1197      		sbiw r26,1
 4313 1fba B382      		std Z+3,r11
 4314 1fbc A282      		std Z+2,r10
 4315 1fbe 6483      		std Z+4,r22
 4316 1fc0 7583      		std Z+5,r23
 4317 1fc2 8683      		std Z+6,r24
 4318 1fc4 9783      		std Z+7,r25
 4319 1fc6 0E94 0000 		call fprintf_P
 4320               	.LM401:
 4321 1fca EDB7      		in r30,__SP_L__
 4322 1fcc FEB7      		in r31,__SP_H__
 4323 1fce 3896      		adiw r30,8
 4324 1fd0 0FB6      		in __tmp_reg__,__SREG__
 4325 1fd2 F894      		cli
 4326 1fd4 FEBF      		out __SP_H__,r31
 4327 1fd6 0FBE      		out __SREG__,__tmp_reg__
 4328 1fd8 EDBF      		out __SP_L__,r30
 4329 1fda 80E0      		ldi r24,lo8(i2cUSE)
 4330 1fdc 90E0      		ldi r25,hi8(i2cUSE)
 4331 1fde 0E94 0000 		call chSemSignal
 4332               	.LM402:
 4333 1fe2 80E0      		ldi r24,lo8(spiUSE)
 4334 1fe4 90E0      		ldi r25,hi8(spiUSE)
 4335 1fe6 0E94 0000 		call chSemSignal
 4336 1fea 00C0      		rjmp .L137
 4337               	.L144:
 4338               	.LM403:
 4339 1fec 80E0      		ldi r24,lo8(spiUSE)
 4340 1fee 90E0      		ldi r25,hi8(spiUSE)
 4341 1ff0 40E0      		ldi r20,lo8(0)
 4342 1ff2 50E0      		ldi r21,hi8(0)
 4343 1ff4 60E0      		ldi r22,hlo8(0)
 4344 1ff6 70E0      		ldi r23,hhi8(0)
 4345 1ff8 0E94 0000 		call chSemWaitTimeout
 4346               	.LM404:
 4347 1ffc 80E0      		ldi r24,lo8(0)
 4348 1ffe 90E0      		ldi r25,hi8(0)
 4349 2000 62E3      		ldi r22,lo8(50)
 4350 2002 70E0      		ldi r23,hi8(50)
 4351 2004 0E94 0000 		call st7735_setCursor
 4352               	.LM405:
 4353 2008 83E0      		ldi r24,lo8(3)
 4354 200a 0E94 0000 		call st7735_setTextSize
 4355               	.LM406:
 4356 200e 2DB7      		in r18,__SP_L__
 4357 2010 3EB7      		in r19,__SP_H__
 4358 2012 2A50      		subi r18,lo8(-(-10))
 4359 2014 3040      		sbci r19,hi8(-(-10))
 4360 2016 0FB6      		in __tmp_reg__,__SREG__
 4361 2018 F894      		cli
 4362 201a 3EBF      		out __SP_H__,r19
 4363 201c 0FBE      		out __SREG__,__tmp_reg__
 4364 201e 2DBF      		out __SP_L__,r18
 4365 2020 EDB7      		in r30,__SP_L__
 4366 2022 FEB7      		in r31,__SP_H__
 4367 2024 3196      		adiw r30,1
 4368 2026 ADB7      		in r26,__SP_L__
 4369 2028 BEB7      		in r27,__SP_H__
 4370 202a 1196      		adiw r26,1
 4371 202c DC92      		st X,r13
 4372 202e 1197      		sbiw r26,1
 4373 2030 1296      		adiw r26,2
 4374 2032 CC92      		st X,r12
 4375 2034 20E0      		ldi r18,lo8(__c.3940)
 4376 2036 30E0      		ldi r19,hi8(__c.3940)
 4377 2038 3383      		std Z+3,r19
 4378 203a 2283      		std Z+2,r18
 4379 203c 8091 0000 		lds r24,hr
 4380 2040 8483      		std Z+4,r24
 4381 2042 1582      		std Z+5,__zero_reg__
 4382 2044 8091 0000 		lds r24,min
 4383 2048 8683      		std Z+6,r24
 4384 204a 1782      		std Z+7,__zero_reg__
 4385 204c 8091 0000 		lds r24,s
 4386 2050 8087      		std Z+8,r24
 4387 2052 1186      		std Z+9,__zero_reg__
 4388 2054 0E94 0000 		call fprintf_P
 4389               	.LM407:
 4390 2058 4DB7      		in r20,__SP_L__
 4391 205a 5EB7      		in r21,__SP_H__
 4392 205c 465F      		subi r20,lo8(-(10))
 4393 205e 5F4F      		sbci r21,hi8(-(10))
 4394 2060 0FB6      		in __tmp_reg__,__SREG__
 4395 2062 F894      		cli
 4396 2064 5EBF      		out __SP_H__,r21
 4397 2066 0FBE      		out __SREG__,__tmp_reg__
 4398 2068 4DBF      		out __SP_L__,r20
 4399 206a 81E0      		ldi r24,lo8(1)
 4400 206c 0E94 0000 		call st7735_setTextSize
 4401               	.LM408:
 4402 2070 80E0      		ldi r24,lo8(spiUSE)
 4403 2072 90E0      		ldi r25,hi8(spiUSE)
 4404 2074 0E94 0000 		call chSemSignal
 4405 2078 00C0      		rjmp .L146
 4406               	.L150:
 4407               	.LM409:
 4408 207a C801      		movw r24,r16
 4409 207c B701      		movw r22,r14
 4410 207e 20E0      		ldi r18,lo8(0x43340000)
 4411 2080 30E0      		ldi r19,hi8(0x43340000)
 4412 2082 44E3      		ldi r20,hlo8(0x43340000)
 4413 2084 53E4      		ldi r21,hhi8(0x43340000)
 4414 2086 0E94 0000 		call __subsf3
 4415 208a 7B01      		movw r14,r22
 4416 208c 8C01      		movw r16,r24
 4417 208e 00C0      		rjmp .L143
 4418               	.L152:
 4419               	.LM410:
 4420 2090 80E0      		ldi r24,lo8(lcdUSE)
 4421 2092 90E0      		ldi r25,hi8(lcdUSE)
 4422 2094 0E94 0000 		call chSemSignal
 4423 2098 00C0      		rjmp .L134
 4424               	.L155:
 4425               	.LM411:
 4426 209a 80E0      		ldi r24,lo8(spiUSE)
 4427 209c 90E0      		ldi r25,hi8(spiUSE)
 4428 209e 40E0      		ldi r20,lo8(0)
 4429 20a0 50E0      		ldi r21,hi8(0)
 4430 20a2 60E0      		ldi r22,hlo8(0)
 4431 20a4 70E0      		ldi r23,hhi8(0)
 4432 20a6 0E94 0000 		call chSemWaitTimeout
 4433               	.LM412:
 4434 20aa 80E0      		ldi r24,lo8(0)
 4435 20ac 90E0      		ldi r25,hi8(0)
 4436 20ae 62E3      		ldi r22,lo8(50)
 4437 20b0 70E0      		ldi r23,hi8(50)
 4438 20b2 0E94 0000 		call st7735_setCursor
 4439               	.LM413:
 4440 20b6 83E0      		ldi r24,lo8(3)
 4441 20b8 0E94 0000 		call st7735_setTextSize
 4442               	.LM414:
 4443 20bc 2DB7      		in r18,__SP_L__
 4444 20be 3EB7      		in r19,__SP_H__
 4445 20c0 2A50      		subi r18,lo8(-(-10))
 4446 20c2 3040      		sbci r19,hi8(-(-10))
 4447 20c4 0FB6      		in __tmp_reg__,__SREG__
 4448 20c6 F894      		cli
 4449 20c8 3EBF      		out __SP_H__,r19
 4450 20ca 0FBE      		out __SREG__,__tmp_reg__
 4451 20cc 2DBF      		out __SP_L__,r18
 4452 20ce EDB7      		in r30,__SP_L__
 4453 20d0 FEB7      		in r31,__SP_H__
 4454 20d2 3196      		adiw r30,1
 4455 20d4 ADB7      		in r26,__SP_L__
 4456 20d6 BEB7      		in r27,__SP_H__
 4457 20d8 1196      		adiw r26,1
 4458 20da DC92      		st X,r13
 4459 20dc 1197      		sbiw r26,1
 4460 20de 1296      		adiw r26,2
 4461 20e0 CC92      		st X,r12
 4462 20e2 20E0      		ldi r18,lo8(__c.3932)
 4463 20e4 30E0      		ldi r19,hi8(__c.3932)
 4464 20e6 3383      		std Z+3,r19
 4465 20e8 2283      		std Z+2,r18
 4466 20ea 8091 0000 		lds r24,hr
 4467 20ee 8483      		std Z+4,r24
 4468 20f0 1582      		std Z+5,__zero_reg__
 4469 20f2 8091 0000 		lds r24,min
 4470 20f6 8683      		std Z+6,r24
 4471 20f8 1782      		std Z+7,__zero_reg__
 4472 20fa 8091 0000 		lds r24,s
 4473 20fe 8087      		std Z+8,r24
 4474 2100 1186      		std Z+9,__zero_reg__
 4475 2102 0E94 0000 		call fprintf_P
 4476               	.LM415:
 4477 2106 4DB7      		in r20,__SP_L__
 4478 2108 5EB7      		in r21,__SP_H__
 4479 210a 465F      		subi r20,lo8(-(10))
 4480 210c 5F4F      		sbci r21,hi8(-(10))
 4481 210e 0FB6      		in __tmp_reg__,__SREG__
 4482 2110 F894      		cli
 4483 2112 5EBF      		out __SP_H__,r21
 4484 2114 0FBE      		out __SREG__,__tmp_reg__
 4485 2116 4DBF      		out __SP_L__,r20
 4486 2118 81E0      		ldi r24,lo8(1)
 4487 211a 0E94 0000 		call st7735_setTextSize
 4488               	.LM416:
 4489 211e 84E9      		ldi r24,lo8(148)
 4490 2120 90E0      		ldi r25,hi8(148)
 4491 2122 62E3      		ldi r22,lo8(50)
 4492 2124 70E0      		ldi r23,hi8(50)
 4493 2126 0E94 0000 		call st7735_setCursor
 4494               	.LM417:
 4495 212a 00D0      		rcall .
 4496 212c 00D0      		rcall .
 4497 212e ADB7      		in r26,__SP_L__
 4498 2130 BEB7      		in r27,__SP_H__
 4499 2132 1296      		adiw r26,1+1
 4500 2134 DC93      		st X,r29
 4501 2136 CE93      		st -X,r28
 4502 2138 1197      		sbiw r26,1
 4503 213a E0E0      		ldi r30,lo8(__c.3934)
 4504 213c F0E0      		ldi r31,hi8(__c.3934)
 4505 213e 00C0      		rjmp .L151
 4506               	.LFE86:
 4508               	.global	DS3231_showParameters
 4510               	DS3231_showParameters:
 4511               	.LFB61:
 4512               	.LM418:
 4513               	.LVL52:
 4514 2140 CF93      		push r28
 4515 2142 DF93      		push r29
 4516               	/* prologue: function */
 4517               	/* frame size = 0 */
 4518               	.LM419:
 4519 2144 8130      		cpi r24,lo8(1)
 4520 2146 01F0      		breq .L166
 4521               	/* epilogue start */
 4522               	.LM420:
 4523 2148 DF91      		pop r29
 4524 214a CF91      		pop r28
 4525 214c 0895      		ret
 4526               	.L166:
 4527               	.LM421:
 4528 214e 2DB7      		in r18,__SP_L__
 4529 2150 3EB7      		in r19,__SP_H__
 4530 2152 2A50      		subi r18,lo8(-(-10))
 4531 2154 3040      		sbci r19,hi8(-(-10))
 4532 2156 0FB6      		in __tmp_reg__,__SREG__
 4533 2158 F894      		cli
 4534 215a 3EBF      		out __SP_H__,r19
 4535 215c 0FBE      		out __SREG__,__tmp_reg__
 4536 215e 2DBF      		out __SP_L__,r18
 4537 2160 EDB7      		in r30,__SP_L__
 4538 2162 FEB7      		in r31,__SP_H__
 4539 2164 3196      		adiw r30,1
 4540 2166 C0E0      		ldi r28,lo8(usart_out)
 4541 2168 D0E0      		ldi r29,hi8(usart_out)
 4542 216a ADB7      		in r26,__SP_L__
 4543 216c BEB7      		in r27,__SP_H__
 4544 216e 1296      		adiw r26,1+1
 4545 2170 DC93      		st X,r29
 4546 2172 CE93      		st -X,r28
 4547 2174 1197      		sbiw r26,1
 4548 2176 80E0      		ldi r24,lo8(__c.3326)
 4549 2178 90E0      		ldi r25,hi8(__c.3326)
 4550               	.LVL53:
 4551 217a 9383      		std Z+3,r25
 4552 217c 8283      		std Z+2,r24
 4553 217e 8091 0000 		lds r24,mt
 4554 2182 8483      		std Z+4,r24
 4555 2184 1582      		std Z+5,__zero_reg__
 4556 2186 8091 0000 		lds r24,dt
 4557 218a 8683      		std Z+6,r24
 4558 218c 1782      		std Z+7,__zero_reg__
 4559 218e 8091 0000 		lds r24,yr
 4560 2192 8087      		std Z+8,r24
 4561 2194 1186      		std Z+9,__zero_reg__
 4562 2196 0E94 0000 		call fprintf_P
 4563               	.LM422:
 4564 219a 2DB7      		in r18,__SP_L__
 4565 219c 3EB7      		in r19,__SP_H__
 4566 219e 265F      		subi r18,lo8(-(10))
 4567 21a0 3F4F      		sbci r19,hi8(-(10))
 4568 21a2 0FB6      		in __tmp_reg__,__SREG__
 4569 21a4 F894      		cli
 4570 21a6 3EBF      		out __SP_H__,r19
 4571 21a8 0FBE      		out __SREG__,__tmp_reg__
 4572 21aa 2DBF      		out __SP_L__,r18
 4573 21ac 0E94 0000 		call DS3231_getTemp
 4574 21b0 ADB7      		in r26,__SP_L__
 4575 21b2 BEB7      		in r27,__SP_H__
 4576 21b4 1897      		sbiw r26,8
 4577 21b6 0FB6      		in __tmp_reg__,__SREG__
 4578 21b8 F894      		cli
 4579 21ba BEBF      		out __SP_H__,r27
 4580 21bc 0FBE      		out __SREG__,__tmp_reg__
 4581 21be ADBF      		out __SP_L__,r26
 4582 21c0 EDB7      		in r30,__SP_L__
 4583 21c2 FEB7      		in r31,__SP_H__
 4584 21c4 3196      		adiw r30,1
 4585 21c6 1296      		adiw r26,1+1
 4586 21c8 DC93      		st X,r29
 4587 21ca CE93      		st -X,r28
 4588 21cc 1197      		sbiw r26,1
 4589 21ce 20E0      		ldi r18,lo8(__c.3328)
 4590 21d0 30E0      		ldi r19,hi8(__c.3328)
 4591 21d2 3383      		std Z+3,r19
 4592 21d4 2283      		std Z+2,r18
 4593 21d6 6483      		std Z+4,r22
 4594 21d8 7583      		std Z+5,r23
 4595 21da 8683      		std Z+6,r24
 4596 21dc 9783      		std Z+7,r25
 4597 21de 0E94 0000 		call fprintf_P
 4598               	.LM423:
 4599 21e2 2DB7      		in r18,__SP_L__
 4600 21e4 3EB7      		in r19,__SP_H__
 4601 21e6 285F      		subi r18,lo8(-(8))
 4602 21e8 3F4F      		sbci r19,hi8(-(8))
 4603 21ea 0FB6      		in __tmp_reg__,__SREG__
 4604 21ec F894      		cli
 4605 21ee 3EBF      		out __SP_H__,r19
 4606 21f0 0FBE      		out __SREG__,__tmp_reg__
 4607 21f2 2DBF      		out __SP_L__,r18
 4608 21f4 8091 0000 		lds r24,hr_format
 4609 21f8 9091 0000 		lds r25,(hr_format)+1
 4610 21fc 0197      		sbiw r24,1
 4611 21fe 01F0      		breq .L167
 4612               	.LM424:
 4613 2200 8DB7      		in r24,__SP_L__
 4614 2202 9EB7      		in r25,__SP_H__
 4615 2204 0A97      		sbiw r24,10
 4616 2206 0FB6      		in __tmp_reg__,__SREG__
 4617 2208 F894      		cli
 4618 220a 9EBF      		out __SP_H__,r25
 4619 220c 0FBE      		out __SREG__,__tmp_reg__
 4620 220e 8DBF      		out __SP_L__,r24
 4621 2210 EDB7      		in r30,__SP_L__
 4622 2212 FEB7      		in r31,__SP_H__
 4623 2214 3196      		adiw r30,1
 4624 2216 ADB7      		in r26,__SP_L__
 4625 2218 BEB7      		in r27,__SP_H__
 4626 221a 1296      		adiw r26,1+1
 4627 221c DC93      		st X,r29
 4628 221e CE93      		st -X,r28
 4629 2220 1197      		sbiw r26,1
 4630 2222 80E0      		ldi r24,lo8(__c.3340)
 4631 2224 90E0      		ldi r25,hi8(__c.3340)
 4632               	.L165:
 4633 2226 9383      		std Z+3,r25
 4634 2228 8283      		std Z+2,r24
 4635 222a 8091 0000 		lds r24,hr
 4636 222e 8483      		std Z+4,r24
 4637 2230 1582      		std Z+5,__zero_reg__
 4638 2232 8091 0000 		lds r24,min
 4639 2236 8683      		std Z+6,r24
 4640 2238 1782      		std Z+7,__zero_reg__
 4641 223a 8091 0000 		lds r24,s
 4642 223e 8087      		std Z+8,r24
 4643 2240 1186      		std Z+9,__zero_reg__
 4644 2242 0E94 0000 		call fprintf_P
 4645 2246 2DB7      		in r18,__SP_L__
 4646 2248 3EB7      		in r19,__SP_H__
 4647 224a 265F      		subi r18,lo8(-(10))
 4648 224c 3F4F      		sbci r19,hi8(-(10))
 4649 224e 0FB6      		in __tmp_reg__,__SREG__
 4650 2250 F894      		cli
 4651 2252 3EBF      		out __SP_H__,r19
 4652 2254 0FBE      		out __SREG__,__tmp_reg__
 4653 2256 2DBF      		out __SP_L__,r18
 4654               	.LM425:
 4655 2258 DF91      		pop r29
 4656 225a CF91      		pop r28
 4657 225c 0895      		ret
 4658               	.L167:
 4659               	.LM426:
 4660 225e 8091 0000 		lds r24,am_pm
 4661 2262 9091 0000 		lds r25,(am_pm)+1
 4662 2266 0197      		sbiw r24,1
 4663 2268 01F0      		breq .L168
 4664               	.LM427:
 4665 226a 8DB7      		in r24,__SP_L__
 4666 226c 9EB7      		in r25,__SP_H__
 4667 226e 0A97      		sbiw r24,10
 4668 2270 0FB6      		in __tmp_reg__,__SREG__
 4669 2272 F894      		cli
 4670 2274 9EBF      		out __SP_H__,r25
 4671 2276 0FBE      		out __SREG__,__tmp_reg__
 4672 2278 8DBF      		out __SP_L__,r24
 4673 227a EDB7      		in r30,__SP_L__
 4674 227c FEB7      		in r31,__SP_H__
 4675 227e 3196      		adiw r30,1
 4676 2280 ADB7      		in r26,__SP_L__
 4677 2282 BEB7      		in r27,__SP_H__
 4678 2284 1296      		adiw r26,1+1
 4679 2286 DC93      		st X,r29
 4680 2288 CE93      		st -X,r28
 4681 228a 1197      		sbiw r26,1
 4682 228c 80E0      		ldi r24,lo8(__c.3336)
 4683 228e 90E0      		ldi r25,hi8(__c.3336)
 4684 2290 00C0      		rjmp .L165
 4685               	.L168:
 4686               	.LM428:
 4687 2292 8DB7      		in r24,__SP_L__
 4688 2294 9EB7      		in r25,__SP_H__
 4689 2296 0A97      		sbiw r24,10
 4690 2298 0FB6      		in __tmp_reg__,__SREG__
 4691 229a F894      		cli
 4692 229c 9EBF      		out __SP_H__,r25
 4693 229e 0FBE      		out __SREG__,__tmp_reg__
 4694 22a0 8DBF      		out __SP_L__,r24
 4695 22a2 EDB7      		in r30,__SP_L__
 4696 22a4 FEB7      		in r31,__SP_H__
 4697 22a6 3196      		adiw r30,1
 4698 22a8 ADB7      		in r26,__SP_L__
 4699 22aa BEB7      		in r27,__SP_H__
 4700 22ac 1296      		adiw r26,1+1
 4701 22ae DC93      		st X,r29
 4702 22b0 CE93      		st -X,r28
 4703 22b2 1197      		sbiw r26,1
 4704 22b4 80E0      		ldi r24,lo8(__c.3332)
 4705 22b6 90E0      		ldi r25,hi8(__c.3332)
 4706 22b8 00C0      		rjmp .L165
 4707               	.LFE61:
 4709               	.global	Thread10
 4711               	Thread10:
 4712               	.LFB91:
 4713               	.LM429:
 4714               	.LVL54:
 4715               	/* prologue: function */
 4716               	/* frame size = 0 */
 4717               	.LM430:
 4718 22ba 8091 0000 		lds r24,nil
 4719 22be 9091 0000 		lds r25,(nil)+1
 4720               	.LVL55:
 4721 22c2 9093 0000 		sts (tp+18)+1,r25
 4722 22c6 8093 0000 		sts tp+18,r24
 4723               	.LM431:
 4724 22ca 80E0      		ldi r24,lo8(i2cUSE)
 4725 22cc 90E0      		ldi r25,hi8(i2cUSE)
 4726 22ce 40E0      		ldi r20,lo8(0)
 4727 22d0 50E0      		ldi r21,hi8(0)
 4728 22d2 60E0      		ldi r22,hlo8(0)
 4729 22d4 70E0      		ldi r23,hhi8(0)
 4730 22d6 0E94 0000 		call chSemWaitTimeout
 4731               	.LM432:
 4732 22da 0E94 0000 		call i2c_init
 4733               	.LM433:
 4734 22de 80E0      		ldi r24,lo8(i2cUSE)
 4735 22e0 90E0      		ldi r25,hi8(i2cUSE)
 4736 22e2 0E94 0000 		call chSemSignal
 4737               	.LM434:
 4738 22e6 80E0      		ldi r24,lo8(usartUSE)
 4739 22e8 90E0      		ldi r25,hi8(usartUSE)
 4740 22ea 40E0      		ldi r20,lo8(0)
 4741 22ec 50E0      		ldi r21,hi8(0)
 4742 22ee 60E0      		ldi r22,hlo8(0)
 4743 22f0 70E0      		ldi r23,hhi8(0)
 4744 22f2 0E94 0000 		call chSemWaitTimeout
 4745               	.LM435:
 4746 22f6 00D0      		rcall .
 4747 22f8 00D0      		rcall .
 4748 22fa C0E0      		ldi r28,lo8(usart_out)
 4749 22fc D0E0      		ldi r29,hi8(usart_out)
 4750 22fe EDB7      		in r30,__SP_L__
 4751 2300 FEB7      		in r31,__SP_H__
 4752 2302 D283      		std Z+2,r29
 4753 2304 C183      		std Z+1,r28
 4754 2306 80E0      		ldi r24,lo8(__c.4085)
 4755 2308 90E0      		ldi r25,hi8(__c.4085)
 4756 230a 9483      		std Z+4,r25
 4757 230c 8383      		std Z+3,r24
 4758 230e 0E94 0000 		call fprintf_P
 4759               	.LM436:
 4760 2312 0F90      		pop __tmp_reg__
 4761 2314 0F90      		pop __tmp_reg__
 4762 2316 0F90      		pop __tmp_reg__
 4763 2318 0F90      		pop __tmp_reg__
 4764 231a 80E0      		ldi r24,lo8(usartUSE)
 4765 231c 90E0      		ldi r25,hi8(usartUSE)
 4766 231e 0E94 0000 		call chSemSignal
 4767               	.LM437:
 4768 2322 80E0      		ldi r24,lo8(i2cUSE)
 4769 2324 90E0      		ldi r25,hi8(i2cUSE)
 4770 2326 40E0      		ldi r20,lo8(0)
 4771 2328 50E0      		ldi r21,hi8(0)
 4772 232a 60E0      		ldi r22,hlo8(0)
 4773 232c 70E0      		ldi r23,hhi8(0)
 4774 232e 0E94 0000 		call chSemWaitTimeout
 4775               	.LM438:
 4776 2332 0E94 0000 		call DS3231_init
 4777               	.LM439:
 4778 2336 80E0      		ldi r24,lo8(i2cUSE)
 4779 2338 90E0      		ldi r25,hi8(i2cUSE)
 4780 233a 0E94 0000 		call chSemSignal
 4781               	.LM440:
 4782 233e 80E0      		ldi r24,lo8(usartUSE)
 4783 2340 90E0      		ldi r25,hi8(usartUSE)
 4784 2342 40E0      		ldi r20,lo8(0)
 4785 2344 50E0      		ldi r21,hi8(0)
 4786 2346 60E0      		ldi r22,hlo8(0)
 4787 2348 70E0      		ldi r23,hhi8(0)
 4788 234a 0E94 0000 		call chSemWaitTimeout
 4789               	.LM441:
 4790 234e 00D0      		rcall .
 4791 2350 00D0      		rcall .
 4792 2352 EDB7      		in r30,__SP_L__
 4793 2354 FEB7      		in r31,__SP_H__
 4794 2356 D283      		std Z+2,r29
 4795 2358 C183      		std Z+1,r28
 4796 235a 80E0      		ldi r24,lo8(__c.4087)
 4797 235c 90E0      		ldi r25,hi8(__c.4087)
 4798 235e 9483      		std Z+4,r25
 4799 2360 8383      		std Z+3,r24
 4800 2362 0E94 0000 		call fprintf_P
 4801               	.LM442:
 4802 2366 0F90      		pop __tmp_reg__
 4803 2368 0F90      		pop __tmp_reg__
 4804 236a 0F90      		pop __tmp_reg__
 4805 236c 0F90      		pop __tmp_reg__
 4806 236e 80E0      		ldi r24,lo8(usartUSE)
 4807 2370 90E0      		ldi r25,hi8(usartUSE)
 4808 2372 0E94 0000 		call chSemSignal
 4809               	.LBB175:
 4810               	.LBB176:
 4811               	.LM443:
 4812               	/* #APP */
 4813               	 ;  319 ".//os/nil/ports/AVR/nilcore.h" 1
 4814 2376 F894      		cli
 4815               	 ;  0 "" 2
 4816               	/* #NOAPP */
 4817               	.LBE176:
 4818               	.LBE175:
 4819               	.LM444:
 4820 2378 80E0      		ldi r24,lo8(trp+18)
 4821 237a 90E0      		ldi r25,hi8(trp+18)
 4822 237c 40E0      		ldi r20,lo8(0)
 4823 237e 50E0      		ldi r21,hi8(0)
 4824 2380 60E0      		ldi r22,hlo8(0)
 4825 2382 70E0      		ldi r23,hhi8(0)
 4826 2384 0E94 0000 		call chThdSuspendTimeoutS
 4827               	.LBB177:
 4828               	.LBB178:
 4829               	.LM445:
 4830               	/* #APP */
 4831               	 ;  327 ".//os/nil/ports/AVR/nilcore.h" 1
 4832 2388 7894      		sei
 4833               	 ;  0 "" 2
 4834               	/* #NOAPP */
 4835 238a 10E0      		ldi r17,lo8(__c.4089)
 4836 238c E12E      		mov r14,r17
 4837 238e 10E0      		ldi r17,hi8(__c.4089)
 4838 2390 F12E      		mov r15,r17
 4839               	.L170:
 4840               	.LBE178:
 4841               	.LBE177:
 4842               	.LM446:
 4843 2392 80E0      		ldi r24,lo8(i2cUSE)
 4844 2394 90E0      		ldi r25,hi8(i2cUSE)
 4845 2396 40E0      		ldi r20,lo8(0)
 4846 2398 50E0      		ldi r21,hi8(0)
 4847 239a 60E0      		ldi r22,hlo8(0)
 4848 239c 70E0      		ldi r23,hhi8(0)
 4849 239e 0E94 0000 		call chSemWaitTimeout
 4850               	.LM447:
 4851 23a2 0091 0000 		lds r16,hr_format
 4852 23a6 1091 0000 		lds r17,(hr_format)+1
 4853 23aa 80E0      		ldi r24,lo8(hr)
 4854 23ac 90E0      		ldi r25,hi8(hr)
 4855 23ae 60E0      		ldi r22,lo8(min)
 4856 23b0 70E0      		ldi r23,hi8(min)
 4857 23b2 40E0      		ldi r20,lo8(s)
 4858 23b4 50E0      		ldi r21,hi8(s)
 4859 23b6 20E0      		ldi r18,lo8(am_pm)
 4860 23b8 30E0      		ldi r19,hi8(am_pm)
 4861 23ba 0E94 0000 		call DS3231_getTime
 4862               	.LM448:
 4863 23be 80E0      		ldi r24,lo8(dy)
 4864 23c0 90E0      		ldi r25,hi8(dy)
 4865 23c2 60E0      		ldi r22,lo8(dt)
 4866 23c4 70E0      		ldi r23,hi8(dt)
 4867 23c6 40E0      		ldi r20,lo8(mt)
 4868 23c8 50E0      		ldi r21,hi8(mt)
 4869 23ca 20E0      		ldi r18,lo8(yr)
 4870 23cc 30E0      		ldi r19,hi8(yr)
 4871 23ce 0E94 0000 		call DS3231_getDate
 4872               	.LM449:
 4873 23d2 80E0      		ldi r24,lo8(i2cUSE)
 4874 23d4 90E0      		ldi r25,hi8(i2cUSE)
 4875 23d6 0E94 0000 		call chSemSignal
 4876               	.LM450:
 4877 23da 80E0      		ldi r24,lo8(usartUSE)
 4878 23dc 90E0      		ldi r25,hi8(usartUSE)
 4879 23de 40E0      		ldi r20,lo8(0)
 4880 23e0 50E0      		ldi r21,hi8(0)
 4881 23e2 60E0      		ldi r22,hlo8(0)
 4882 23e4 70E0      		ldi r23,hhi8(0)
 4883 23e6 0E94 0000 		call chSemWaitTimeout
 4884               	.LM451:
 4885 23ea 00D0      		rcall .
 4886 23ec 00D0      		rcall .
 4887 23ee EDB7      		in r30,__SP_L__
 4888 23f0 FEB7      		in r31,__SP_H__
 4889 23f2 D283      		std Z+2,r29
 4890 23f4 C183      		std Z+1,r28
 4891 23f6 F482      		std Z+4,r15
 4892 23f8 E382      		std Z+3,r14
 4893 23fa 0E94 0000 		call fprintf_P
 4894               	.LM452:
 4895 23fe 0F90      		pop __tmp_reg__
 4896 2400 0F90      		pop __tmp_reg__
 4897 2402 0F90      		pop __tmp_reg__
 4898 2404 0F90      		pop __tmp_reg__
 4899 2406 81E0      		ldi r24,lo8(1)
 4900 2408 0E94 0000 		call DS3231_showParameters
 4901               	.LM453:
 4902 240c 80E0      		ldi r24,lo8(usartUSE)
 4903 240e 90E0      		ldi r25,hi8(usartUSE)
 4904 2410 0E94 0000 		call chSemSignal
 4905               	.LM454:
 4906 2414 68EE      		ldi r22,lo8(1000)
 4907 2416 73E0      		ldi r23,hi8(1000)
 4908 2418 80E0      		ldi r24,hlo8(1000)
 4909 241a 90E0      		ldi r25,hhi8(1000)
 4910 241c 0E94 0000 		call chThdSleep
 4911 2420 00C0      		rjmp .L170
 4912               	.LFE91:
 4914               	.global	Thread1
 4916               	Thread1:
 4917               	.LFB82:
 4918               	.LM455:
 4919               	.LVL56:
 4920               	/* prologue: function */
 4921               	/* frame size = 0 */
 4922               	.LM456:
 4923 2422 8091 0000 		lds r24,nil
 4924 2426 9091 0000 		lds r25,(nil)+1
 4925               	.LVL57:
 4926 242a 9093 0000 		sts (tp)+1,r25
 4927 242e 8093 0000 		sts tp,r24
 4928               	.LM457:
 4929 2432 8091 6B00 		lds r24,107
 4930 2436 8C61      		ori r24,lo8(28)
 4931 2438 8093 6B00 		sts 107,r24
 4932               	.LM458:
 4933 243c 8091 6800 		lds r24,104
 4934 2440 8160      		ori r24,lo8(1)
 4935 2442 8093 6800 		sts 104,r24
 4936               	.LM459:
 4937 2446 129A      		sbi 34-32,2
 4938               	.LM460:
 4939 2448 139A      		sbi 34-32,3
 4940               	.LM461:
 4941 244a 149A      		sbi 34-32,4
 4942               	.LM462:
 4943 244c 11E0      		ldi r17,lo8(1)
 4944 244e 00C0      		rjmp .L192
 4945               	.L173:
 4946               	.LM463:
 4947 2450 8091 0000 		lds r24,triggered
 4948 2454 8130      		cpi r24,lo8(1)
 4949 2456 01F0      		breq .L193
 4950               	.L192:
 4951               	.LBB179:
 4952               	.LBB180:
 4953               	.LM464:
 4954               	/* #APP */
 4955               	 ;  319 ".//os/nil/ports/AVR/nilcore.h" 1
 4956 2458 F894      		cli
 4957               	 ;  0 "" 2
 4958               	/* #NOAPP */
 4959               	.LBE180:
 4960               	.LBE179:
 4961               	.LM465:
 4962 245a 80E0      		ldi r24,lo8(trp)
 4963 245c 90E0      		ldi r25,hi8(trp)
 4964 245e 40E0      		ldi r20,lo8(0)
 4965 2460 50E0      		ldi r21,hi8(0)
 4966 2462 60E0      		ldi r22,hlo8(0)
 4967 2464 70E0      		ldi r23,hhi8(0)
 4968 2466 0E94 0000 		call chThdSuspendTimeoutS
 4969               	.LBB181:
 4970               	.LBB182:
 4971               	.LM466:
 4972               	/* #APP */
 4973               	 ;  327 ".//os/nil/ports/AVR/nilcore.h" 1
 4974 246a 7894      		sei
 4975               	 ;  0 "" 2
 4976               	/* #NOAPP */
 4977               	.LBE182:
 4978               	.LBE181:
 4979               	.LM467:
 4980 246c 68E5      		ldi r22,lo8(7000)
 4981 246e 7BE1      		ldi r23,hi8(7000)
 4982 2470 80E0      		ldi r24,hlo8(7000)
 4983 2472 90E0      		ldi r25,hhi8(7000)
 4984 2474 0E94 0000 		call chThdSleep
 4985               	.LM468:
 4986 2478 8091 0000 		lds r24,switchtype
 4987 247c 8430      		cpi r24,lo8(4)
 4988 247e 01F4      		brne .L173
 4989               	.LM469:
 4990 2480 8091 0000 		lds r24,LCD_PWM_SET
 4991 2484 8233      		cpi r24,lo8(50)
 4992 2486 01F4      		brne .+2
 4993 2488 00C0      		rjmp .L194
 4994               	.LM470:
 4995 248a 8091 0000 		lds r24,LCD_PWM_SET
 4996 248e 865F      		subi r24,lo8(-(10))
 4997 2490 8093 0000 		sts LCD_PWM_SET,r24
 4998               	.L175:
 4999               	.LBB183:
 5000               	.LBB184:
 5001               	.LM471:
 5002               	/* #APP */
 5003               	 ;  319 ".//os/nil/ports/AVR/nilcore.h" 1
 5004 2494 F894      		cli
 5005               	 ;  0 "" 2
 5006               	/* #NOAPP */
 5007               	.LBE184:
 5008               	.LBE183:
 5009               	.LM472:
 5010 2496 8091 0000 		lds r24,LCD_PWM_SET
 5011 249a 8093 B300 		sts 179,r24
 5012               	.LM473:
 5013 249e D89A      		sbi 59-32,0
 5014               	.LM474:
 5015 24a0 1092 0000 		sts switchtype,__zero_reg__
 5016               	.LM475:
 5017 24a4 1092 0000 		sts triggered,__zero_reg__
 5018               	.LBB185:
 5019               	.LBB186:
 5020               	.LM476:
 5021               	/* #APP */
 5022               	 ;  327 ".//os/nil/ports/AVR/nilcore.h" 1
 5023 24a8 7894      		sei
 5024               	 ;  0 "" 2
 5025               	/* #NOAPP */
 5026               	.LBE186:
 5027               	.LBE185:
 5028               	.LM477:
 5029 24aa 8091 0000 		lds r24,triggered
 5030 24ae 8130      		cpi r24,lo8(1)
 5031 24b0 01F4      		brne .L192
 5032               	.L193:
 5033               	.LM478:
 5034 24b2 8091 0000 		lds r24,lcd_context
 5035 24b6 8130      		cpi r24,lo8(1)
 5036 24b8 01F4      		brne .+2
 5037 24ba 00C0      		rjmp .L195
 5038               	.L177:
 5039               	.LM479:
 5040 24bc 8091 0000 		lds r24,lcd_context
 5041 24c0 8330      		cpi r24,lo8(3)
 5042 24c2 01F4      		brne .+2
 5043 24c4 00C0      		rjmp .L196
 5044               	.L178:
 5045               	.LM480:
 5046 24c6 8091 0000 		lds r24,lcd_context
 5047 24ca 8430      		cpi r24,lo8(4)
 5048 24cc 01F4      		brne .+2
 5049 24ce 00C0      		rjmp .L197
 5050               	.L179:
 5051               	.LM481:
 5052 24d0 8091 0000 		lds r24,lcd_context
 5053 24d4 8530      		cpi r24,lo8(5)
 5054 24d6 01F4      		brne .+2
 5055 24d8 00C0      		rjmp .L198
 5056               	.L180:
 5057               	.LM482:
 5058 24da 8091 0000 		lds r24,lcd_context
 5059 24de 8930      		cpi r24,lo8(9)
 5060 24e0 01F4      		brne .+2
 5061 24e2 00C0      		rjmp .L199
 5062               	.L183:
 5063               	.LM483:
 5064 24e4 8091 0000 		lds r24,lcd_context
 5065 24e8 8C30      		cpi r24,lo8(12)
 5066 24ea 01F0      		breq .L200
 5067               	.L184:
 5068               	.LM484:
 5069 24ec 8091 0000 		lds r24,lcd_context
 5070 24f0 8E30      		cpi r24,lo8(14)
 5071 24f2 01F0      		breq .+2
 5072 24f4 00C0      		rjmp .L192
 5073               	.LBB187:
 5074               	.LBB188:
 5075               	.LM485:
 5076               	/* #APP */
 5077               	 ;  319 ".//os/nil/ports/AVR/nilcore.h" 1
 5078 24f6 F894      		cli
 5079               	 ;  0 "" 2
 5080               	/* #NOAPP */
 5081               	.LBE188:
 5082               	.LBE187:
 5083               	.LM486:
 5084 24f8 D89A      		sbi 59-32,0
 5085               	.LM487:
 5086 24fa 1092 0000 		sts triggered,__zero_reg__
 5087               	.LM488:
 5088 24fe 2091 0000 		lds r18,switchtype
 5089 2502 2130      		cpi r18,lo8(1)
 5090 2504 01F4      		brne .+2
 5091 2506 00C0      		rjmp .L201
 5092               	.LM489:
 5093 2508 8091 0000 		lds r24,tp+26
 5094 250c 9091 0000 		lds r25,(tp+26)+1
 5095 2510 64E0      		ldi r22,lo8(4)
 5096 2512 0E94 0000 		call chEvtSignalI
 5097               	.LBB189:
 5098               	.LBB190:
 5099               	.LM490:
 5100               	/* #APP */
 5101               	 ;  327 ".//os/nil/ports/AVR/nilcore.h" 1
 5102 2516 7894      		sei
 5103               	 ;  0 "" 2
 5104               	/* #NOAPP */
 5105 2518 00C0      		rjmp .L192
 5106               	.L194:
 5107               	.LBE190:
 5108               	.LBE189:
 5109               	.LM491:
 5110 251a 1092 0000 		sts LCD_PWM_SET,__zero_reg__
 5111 251e 00C0      		rjmp .L175
 5112               	.L200:
 5113               	.LBB191:
 5114               	.LBB192:
 5115               	.LM492:
 5116               	/* #APP */
 5117               	 ;  319 ".//os/nil/ports/AVR/nilcore.h" 1
 5118 2520 F894      		cli
 5119               	 ;  0 "" 2
 5120               	/* #NOAPP */
 5121               	.LBE192:
 5122               	.LBE191:
 5123               	.LM493:
 5124 2522 D89A      		sbi 59-32,0
 5125               	.LM494:
 5126 2524 1092 0000 		sts triggered,__zero_reg__
 5127               	.LM495:
 5128 2528 8091 0000 		lds r24,switchtype
 5129 252c 8130      		cpi r24,lo8(1)
 5130 252e 01F4      		brne .+2
 5131 2530 00C0      		rjmp .L202
 5132               	.LM496:
 5133 2532 8091 0000 		lds r24,lcd_context_count+11
 5134 2536 8F5F      		subi r24,lo8(-(1))
 5135 2538 8093 0000 		sts lcd_context_count+11,r24
 5136               	.LM497:
 5137 253c 9091 0000 		lds r25,lcd_context_count+11
 5138 2540 8091 0000 		lds r24,lcd_context_count_MAX+11
 5139 2544 8917      		cp r24,r25
 5140 2546 00F4      		brsh .L186
 5141 2548 1093 0000 		sts lcd_context_count+11,r17
 5142               	.L186:
 5143               	.LM498:
 5144 254c 8091 0000 		lds r24,tp+22
 5145 2550 9091 0000 		lds r25,(tp+22)+1
 5146 2554 64E0      		ldi r22,lo8(4)
 5147 2556 0E94 0000 		call chEvtSignalI
 5148               	.LBB193:
 5149               	.LBB194:
 5150               	.LM499:
 5151               	/* #APP */
 5152               	 ;  327 ".//os/nil/ports/AVR/nilcore.h" 1
 5153 255a 7894      		sei
 5154               	 ;  0 "" 2
 5155               	/* #NOAPP */
 5156 255c 00C0      		rjmp .L184
 5157               	.L198:
 5158               	.LBE194:
 5159               	.LBE193:
 5160               	.LBB195:
 5161               	.LBB196:
 5162               	.LM500:
 5163               	/* #APP */
 5164               	 ;  319 ".//os/nil/ports/AVR/nilcore.h" 1
 5165 255e F894      		cli
 5166               	 ;  0 "" 2
 5167               	/* #NOAPP */
 5168               	.LBE196:
 5169               	.LBE195:
 5170               	.LM501:
 5171 2560 D89A      		sbi 59-32,0
 5172               	.LM502:
 5173 2562 1092 0000 		sts triggered,__zero_reg__
 5174               	.LM503:
 5175 2566 8091 0000 		lds r24,switchtype
 5176 256a 8130      		cpi r24,lo8(1)
 5177 256c 01F4      		brne .+2
 5178 256e 00C0      		rjmp .L203
 5179               	.LM504:
 5180 2570 8091 0000 		lds r24,lcd_context_count+4
 5181 2574 8F5F      		subi r24,lo8(-(1))
 5182 2576 8093 0000 		sts lcd_context_count+4,r24
 5183               	.LM505:
 5184 257a 9091 0000 		lds r25,lcd_context_count+4
 5185 257e 8091 0000 		lds r24,lcd_context_count_MAX+4
 5186 2582 8917      		cp r24,r25
 5187 2584 00F4      		brsh .L182
 5188 2586 1093 0000 		sts lcd_context_count+4,r17
 5189               	.L182:
 5190               	.LM506:
 5191 258a 8091 0000 		lds r24,tp+8
 5192 258e 9091 0000 		lds r25,(tp+8)+1
 5193 2592 64E0      		ldi r22,lo8(4)
 5194 2594 0E94 0000 		call chEvtSignalI
 5195               	.LBB197:
 5196               	.LBB198:
 5197               	.LM507:
 5198               	/* #APP */
 5199               	 ;  327 ".//os/nil/ports/AVR/nilcore.h" 1
 5200 2598 7894      		sei
 5201               	 ;  0 "" 2
 5202               	/* #NOAPP */
 5203               	.LBE198:
 5204               	.LBE197:
 5205               	.LM508:
 5206 259a 8091 0000 		lds r24,lcd_context
 5207 259e 8930      		cpi r24,lo8(9)
 5208 25a0 01F0      		breq .+2
 5209 25a2 00C0      		rjmp .L183
 5210               	.L199:
 5211               	.LBB199:
 5212               	.LBB200:
 5213               	.LM509:
 5214               	/* #APP */
 5215               	 ;  319 ".//os/nil/ports/AVR/nilcore.h" 1
 5216 25a4 F894      		cli
 5217               	 ;  0 "" 2
 5218               	/* #NOAPP */
 5219               	.LBE200:
 5220               	.LBE199:
 5221               	.LM510:
 5222 25a6 D89A      		sbi 59-32,0
 5223               	.LM511:
 5224 25a8 1092 0000 		sts triggered,__zero_reg__
 5225               	.LM512:
 5226 25ac 1093 0000 		sts lcd_context,r17
 5227               	.LM513:
 5228 25b0 1092 0000 		sts switchtype,__zero_reg__
 5229               	.LM514:
 5230 25b4 8091 0000 		lds r24,tp+16
 5231 25b8 9091 0000 		lds r25,(tp+16)+1
 5232 25bc 62E0      		ldi r22,lo8(2)
 5233 25be 0E94 0000 		call chEvtSignalI
 5234               	.LM515:
 5235 25c2 68E5      		ldi r22,lo8(600)
 5236 25c4 72E0      		ldi r23,hi8(600)
 5237 25c6 80E0      		ldi r24,hlo8(600)
 5238 25c8 90E0      		ldi r25,hhi8(600)
 5239 25ca 0E94 0000 		call chThdSleep
 5240               	.LM516:
 5241 25ce 80E0      		ldi r24,lo8(ButtonPressed)
 5242 25d0 90E0      		ldi r25,hi8(ButtonPressed)
 5243 25d2 0E94 0000 		call chSemSignal
 5244               	.LBB201:
 5245               	.LBB202:
 5246               	.LM517:
 5247               	/* #APP */
 5248               	 ;  327 ".//os/nil/ports/AVR/nilcore.h" 1
 5249 25d6 7894      		sei
 5250               	 ;  0 "" 2
 5251               	/* #NOAPP */
 5252 25d8 00C0      		rjmp .L183
 5253               	.L197:
 5254               	.LBE202:
 5255               	.LBE201:
 5256               	.LBB203:
 5257               	.LBB204:
 5258               	.LM518:
 5259               	/* #APP */
 5260               	 ;  319 ".//os/nil/ports/AVR/nilcore.h" 1
 5261 25da F894      		cli
 5262               	 ;  0 "" 2
 5263               	/* #NOAPP */
 5264               	.LBE204:
 5265               	.LBE203:
 5266               	.LM519:
 5267 25dc D89A      		sbi 59-32,0
 5268               	.LM520:
 5269 25de 1092 0000 		sts triggered,__zero_reg__
 5270               	.LM521:
 5271 25e2 1093 0000 		sts lcd_context,r17
 5272               	.LM522:
 5273 25e6 1092 0000 		sts switchtype,__zero_reg__
 5274               	.LM523:
 5275 25ea 8091 0000 		lds r24,tp+6
 5276 25ee 9091 0000 		lds r25,(tp+6)+1
 5277 25f2 62E0      		ldi r22,lo8(2)
 5278 25f4 0E94 0000 		call chEvtSignalI
 5279               	.LM524:
 5280 25f8 68E5      		ldi r22,lo8(600)
 5281 25fa 72E0      		ldi r23,hi8(600)
 5282 25fc 80E0      		ldi r24,hlo8(600)
 5283 25fe 90E0      		ldi r25,hhi8(600)
 5284 2600 0E94 0000 		call chThdSleep
 5285               	.LM525:
 5286 2604 80E0      		ldi r24,lo8(ButtonPressed)
 5287 2606 90E0      		ldi r25,hi8(ButtonPressed)
 5288 2608 0E94 0000 		call chSemSignal
 5289               	.LBB205:
 5290               	.LBB206:
 5291               	.LM526:
 5292               	/* #APP */
 5293               	 ;  327 ".//os/nil/ports/AVR/nilcore.h" 1
 5294 260c 7894      		sei
 5295               	 ;  0 "" 2
 5296               	/* #NOAPP */
 5297 260e 00C0      		rjmp .L179
 5298               	.L196:
 5299               	.LBE206:
 5300               	.LBE205:
 5301               	.LBB207:
 5302               	.LBB208:
 5303               	.LM527:
 5304               	/* #APP */
 5305               	 ;  319 ".//os/nil/ports/AVR/nilcore.h" 1
 5306 2610 F894      		cli
 5307               	 ;  0 "" 2
 5308               	/* #NOAPP */
 5309               	.LBE208:
 5310               	.LBE207:
 5311               	.LM528:
 5312 2612 D89A      		sbi 59-32,0
 5313               	.LM529:
 5314 2614 1092 0000 		sts triggered,__zero_reg__
 5315               	.LM530:
 5316 2618 1093 0000 		sts lcd_context,r17
 5317               	.LM531:
 5318 261c 1092 0000 		sts switchtype,__zero_reg__
 5319               	.LM532:
 5320 2620 8091 0000 		lds r24,tp+4
 5321 2624 9091 0000 		lds r25,(tp+4)+1
 5322 2628 62E0      		ldi r22,lo8(2)
 5323 262a 0E94 0000 		call chEvtSignalI
 5324               	.LM533:
 5325 262e 68E5      		ldi r22,lo8(600)
 5326 2630 72E0      		ldi r23,hi8(600)
 5327 2632 80E0      		ldi r24,hlo8(600)
 5328 2634 90E0      		ldi r25,hhi8(600)
 5329 2636 0E94 0000 		call chThdSleep
 5330               	.LM534:
 5331 263a 80E0      		ldi r24,lo8(ButtonPressed)
 5332 263c 90E0      		ldi r25,hi8(ButtonPressed)
 5333 263e 0E94 0000 		call chSemSignal
 5334               	.LBB209:
 5335               	.LBB210:
 5336               	.LM535:
 5337               	/* #APP */
 5338               	 ;  327 ".//os/nil/ports/AVR/nilcore.h" 1
 5339 2642 7894      		sei
 5340               	 ;  0 "" 2
 5341               	/* #NOAPP */
 5342 2644 00C0      		rjmp .L178
 5343               	.L195:
 5344               	.LBE210:
 5345               	.LBE209:
 5346               	.LBB211:
 5347               	.LBB212:
 5348               	.LM536:
 5349               	/* #APP */
 5350               	 ;  319 ".//os/nil/ports/AVR/nilcore.h" 1
 5351 2646 F894      		cli
 5352               	 ;  0 "" 2
 5353               	/* #NOAPP */
 5354               	.LBE212:
 5355               	.LBE211:
 5356               	.LM537:
 5357 2648 D89A      		sbi 59-32,0
 5358               	.LM538:
 5359 264a 1092 0000 		sts triggered,__zero_reg__
 5360               	.LM539:
 5361 264e 80E0      		ldi r24,lo8(ButtonPressed)
 5362 2650 90E0      		ldi r25,hi8(ButtonPressed)
 5363 2652 0E94 0000 		call chSemSignal
 5364               	.LBB213:
 5365               	.LBB214:
 5366               	.LM540:
 5367               	/* #APP */
 5368               	 ;  327 ".//os/nil/ports/AVR/nilcore.h" 1
 5369 2656 7894      		sei
 5370               	 ;  0 "" 2
 5371               	/* #NOAPP */
 5372 2658 00C0      		rjmp .L177
 5373               	.L203:
 5374               	.LBE214:
 5375               	.LBE213:
 5376               	.LM541:
 5377 265a 8093 0000 		sts lcd_context,r24
 5378               	.LM542:
 5379 265e 1092 0000 		sts switchtype,__zero_reg__
 5380               	.LM543:
 5381 2662 8091 0000 		lds r24,tp+8
 5382 2666 9091 0000 		lds r25,(tp+8)+1
 5383 266a 62E0      		ldi r22,lo8(2)
 5384 266c 0E94 0000 		call chEvtSignalI
 5385               	.LM544:
 5386 2670 68E5      		ldi r22,lo8(600)
 5387 2672 72E0      		ldi r23,hi8(600)
 5388 2674 80E0      		ldi r24,hlo8(600)
 5389 2676 90E0      		ldi r25,hhi8(600)
 5390 2678 0E94 0000 		call chThdSleep
 5391               	.LM545:
 5392 267c 80E0      		ldi r24,lo8(ButtonPressed)
 5393 267e 90E0      		ldi r25,hi8(ButtonPressed)
 5394 2680 0E94 0000 		call chSemSignal
 5395               	.LBB215:
 5396               	.LBB216:
 5397               	.LM546:
 5398               	/* #APP */
 5399               	 ;  327 ".//os/nil/ports/AVR/nilcore.h" 1
 5400 2684 7894      		sei
 5401               	 ;  0 "" 2
 5402               	/* #NOAPP */
 5403 2686 00C0      		rjmp .L180
 5404               	.L202:
 5405               	.LBE216:
 5406               	.LBE215:
 5407               	.LM547:
 5408 2688 8093 0000 		sts lcd_context,r24
 5409               	.LM548:
 5410 268c 1092 0000 		sts switchtype,__zero_reg__
 5411               	.LM549:
 5412 2690 8091 0000 		lds r24,tp+22
 5413 2694 9091 0000 		lds r25,(tp+22)+1
 5414 2698 62E0      		ldi r22,lo8(2)
 5415 269a 0E94 0000 		call chEvtSignalI
 5416               	.LM550:
 5417 269e 68E5      		ldi r22,lo8(600)
 5418 26a0 72E0      		ldi r23,hi8(600)
 5419 26a2 80E0      		ldi r24,hlo8(600)
 5420 26a4 90E0      		ldi r25,hhi8(600)
 5421 26a6 0E94 0000 		call chThdSleep
 5422               	.LM551:
 5423 26aa 80E0      		ldi r24,lo8(ButtonPressed)
 5424 26ac 90E0      		ldi r25,hi8(ButtonPressed)
 5425 26ae 0E94 0000 		call chSemSignal
 5426               	.LBB217:
 5427               	.LBB218:
 5428               	.LM552:
 5429               	/* #APP */
 5430               	 ;  327 ".//os/nil/ports/AVR/nilcore.h" 1
 5431 26b2 7894      		sei
 5432               	 ;  0 "" 2
 5433               	/* #NOAPP */
 5434 26b4 00C0      		rjmp .L184
 5435               	.L201:
 5436               	.LBE218:
 5437               	.LBE217:
 5438               	.LM553:
 5439 26b6 8091 0000 		lds r24,lcd_context_count+13
 5440 26ba 8F5F      		subi r24,lo8(-(1))
 5441 26bc 8093 0000 		sts lcd_context_count+13,r24
 5442               	.LM554:
 5443 26c0 9091 0000 		lds r25,lcd_context_count+13
 5444 26c4 8091 0000 		lds r24,lcd_context_count_MAX+13
 5445 26c8 8917      		cp r24,r25
 5446 26ca 00F4      		brsh .L188
 5447               	.LM555:
 5448 26cc 2093 0000 		sts lcd_context_count+13,r18
 5449               	.LM556:
 5450 26d0 2093 0000 		sts lcd_context,r18
 5451               	.LM557:
 5452 26d4 1092 0000 		sts switchtype,__zero_reg__
 5453               	.LM558:
 5454 26d8 8091 0000 		lds r24,tp+26
 5455 26dc 9091 0000 		lds r25,(tp+26)+1
 5456 26e0 68E0      		ldi r22,lo8(8)
 5457 26e2 0E94 0000 		call chEvtSignalI
 5458               	.LM559:
 5459 26e6 68E5      		ldi r22,lo8(600)
 5460 26e8 72E0      		ldi r23,hi8(600)
 5461 26ea 80E0      		ldi r24,hlo8(600)
 5462 26ec 90E0      		ldi r25,hhi8(600)
 5463 26ee 0E94 0000 		call chThdSleep
 5464               	.LM560:
 5465 26f2 80E0      		ldi r24,lo8(ButtonPressed)
 5466 26f4 90E0      		ldi r25,hi8(ButtonPressed)
 5467 26f6 0E94 0000 		call chSemSignal
 5468               	.LBB219:
 5469               	.LBB220:
 5470               	.LM561:
 5471               	/* #APP */
 5472               	 ;  327 ".//os/nil/ports/AVR/nilcore.h" 1
 5473 26fa 7894      		sei
 5474               	 ;  0 "" 2
 5475               	/* #NOAPP */
 5476 26fc 00C0      		rjmp .L192
 5477               	.L188:
 5478               	.LBE220:
 5479               	.LBE219:
 5480               	.LM562:
 5481 26fe 8091 0000 		lds r24,tp+26
 5482 2702 9091 0000 		lds r25,(tp+26)+1
 5483 2706 62E0      		ldi r22,lo8(2)
 5484 2708 0E94 0000 		call chEvtSignalI
 5485               	.LBB221:
 5486               	.LBB222:
 5487               	.LM563:
 5488               	/* #APP */
 5489               	 ;  327 ".//os/nil/ports/AVR/nilcore.h" 1
 5490 270c 7894      		sei
 5491               	 ;  0 "" 2
 5492               	/* #NOAPP */
 5493 270e 00C0      		rjmp .L192
 5494               	.LBE222:
 5495               	.LBE221:
 5496               	.LFE82:
 5498               	.global	__vector_4
 5500               	__vector_4:
 5501               	.LFB81:
 5502               	.LM564:
 5503 2710 1F92      		push __zero_reg__
 5504 2712 0F92      		push r0
 5505 2714 0FB6      		in r0,__SREG__
 5506 2716 0F92      		push r0
 5507 2718 0BB6      		in r0,91-32
 5508 271a 0F92      		push r0
 5509 271c 1124      		clr __zero_reg__
 5510 271e 2F93      		push r18
 5511 2720 3F93      		push r19
 5512 2722 4F93      		push r20
 5513 2724 5F93      		push r21
 5514 2726 6F93      		push r22
 5515 2728 7F93      		push r23
 5516 272a 8F93      		push r24
 5517 272c 9F93      		push r25
 5518 272e AF93      		push r26
 5519 2730 BF93      		push r27
 5520 2732 EF93      		push r30
 5521 2734 FF93      		push r31
 5522               	/* prologue: Signal */
 5523               	/* frame size = 0 */
 5524               	.LM565:
 5525               	.LM566:
 5526 2736 81E0      		ldi r24,lo8(1)
 5527 2738 8093 0000 		sts triggered,r24
 5528               	.LM567:
 5529 273c 039B      		sbis 32-32,3
 5530 273e 00C0      		rjmp .L209
 5531               	.LM568:
 5532 2740 029B      		sbis 32-32,2
 5533 2742 00C0      		rjmp .L210
 5534               	.LM569:
 5535 2744 0499      		sbic 32-32,4
 5536 2746 00C0      		rjmp .L206
 5537               	.LM570:
 5538 2748 84E0      		ldi r24,lo8(4)
 5539               	.L209:
 5540 274a 8093 0000 		sts switchtype,r24
 5541               	.L206:
 5542               	.LM571:
 5543 274e 6091 0000 		lds r22,switchtype
 5544 2752 80E0      		ldi r24,lo8(trp)
 5545 2754 90E0      		ldi r25,hi8(trp)
 5546 2756 70E0      		ldi r23,lo8(0)
 5547 2758 0E94 0000 		call chThdResumeI
 5548               	.LM572:
 5549 275c 0E94 0000 		call chSchRescheduleS
 5550               	/* epilogue start */
 5551               	.LM573:
 5552 2760 FF91      		pop r31
 5553 2762 EF91      		pop r30
 5554 2764 BF91      		pop r27
 5555 2766 AF91      		pop r26
 5556 2768 9F91      		pop r25
 5557 276a 8F91      		pop r24
 5558 276c 7F91      		pop r23
 5559 276e 6F91      		pop r22
 5560 2770 5F91      		pop r21
 5561 2772 4F91      		pop r20
 5562 2774 3F91      		pop r19
 5563 2776 2F91      		pop r18
 5564 2778 0F90      		pop r0
 5565 277a 0BBE      		out 91-32,r0
 5566 277c 0F90      		pop r0
 5567 277e 0FBE      		out __SREG__,r0
 5568 2780 0F90      		pop r0
 5569 2782 1F90      		pop __zero_reg__
 5570 2784 1895      		reti
 5571               	.L210:
 5572               	.LM574:
 5573 2786 82E0      		ldi r24,lo8(2)
 5574 2788 8093 0000 		sts switchtype,r24
 5575 278c 00C0      		rjmp .L206
 5576               	.LFE81:
 5578               	.global	__vector_11
 5580               	__vector_11:
 5581               	.LFB65:
 5582               	.LM575:
 5583 278e 1F92      		push __zero_reg__
 5584 2790 0F92      		push r0
 5585 2792 0FB6      		in r0,__SREG__
 5586 2794 0F92      		push r0
 5587 2796 0BB6      		in r0,91-32
 5588 2798 0F92      		push r0
 5589 279a 1124      		clr __zero_reg__
 5590 279c 2F93      		push r18
 5591 279e 3F93      		push r19
 5592 27a0 4F93      		push r20
 5593 27a2 5F93      		push r21
 5594 27a4 6F93      		push r22
 5595 27a6 7F93      		push r23
 5596 27a8 8F93      		push r24
 5597 27aa 9F93      		push r25
 5598 27ac AF93      		push r26
 5599 27ae BF93      		push r27
 5600 27b0 EF93      		push r30
 5601 27b2 FF93      		push r31
 5602               	/* prologue: Signal */
 5603               	/* frame size = 0 */
 5604               	.LM576:
 5605               	.LM577:
 5606 27b4 2B9A      		sbi 37-32,3
 5607               	.LM578:
 5608 27b6 0E94 0000 		call chSchRescheduleS
 5609               	/* epilogue start */
 5610               	.LM579:
 5611 27ba FF91      		pop r31
 5612 27bc EF91      		pop r30
 5613 27be BF91      		pop r27
 5614 27c0 AF91      		pop r26
 5615 27c2 9F91      		pop r25
 5616 27c4 8F91      		pop r24
 5617 27c6 7F91      		pop r23
 5618 27c8 6F91      		pop r22
 5619 27ca 5F91      		pop r21
 5620 27cc 4F91      		pop r20
 5621 27ce 3F91      		pop r19
 5622 27d0 2F91      		pop r18
 5623 27d2 0F90      		pop r0
 5624 27d4 0BBE      		out 91-32,r0
 5625 27d6 0F90      		pop r0
 5626 27d8 0FBE      		out __SREG__,r0
 5627 27da 0F90      		pop r0
 5628 27dc 1F90      		pop __zero_reg__
 5629 27de 1895      		reti
 5630               	.LFE65:
 5632               	.global	__vector_9
 5634               	__vector_9:
 5635               	.LFB64:
 5636               	.LM580:
 5637 27e0 1F92      		push __zero_reg__
 5638 27e2 0F92      		push r0
 5639 27e4 0FB6      		in r0,__SREG__
 5640 27e6 0F92      		push r0
 5641 27e8 0BB6      		in r0,91-32
 5642 27ea 0F92      		push r0
 5643 27ec 1124      		clr __zero_reg__
 5644 27ee 2F93      		push r18
 5645 27f0 3F93      		push r19
 5646 27f2 4F93      		push r20
 5647 27f4 5F93      		push r21
 5648 27f6 6F93      		push r22
 5649 27f8 7F93      		push r23
 5650 27fa 8F93      		push r24
 5651 27fc 9F93      		push r25
 5652 27fe AF93      		push r26
 5653 2800 BF93      		push r27
 5654 2802 EF93      		push r30
 5655 2804 FF93      		push r31
 5656               	/* prologue: Signal */
 5657               	/* frame size = 0 */
 5658               	.LM581:
 5659               	.LM582:
 5660 2806 2B98      		cbi 37-32,3
 5661               	.LM583:
 5662 2808 0E94 0000 		call chSchRescheduleS
 5663               	/* epilogue start */
 5664               	.LM584:
 5665 280c FF91      		pop r31
 5666 280e EF91      		pop r30
 5667 2810 BF91      		pop r27
 5668 2812 AF91      		pop r26
 5669 2814 9F91      		pop r25
 5670 2816 8F91      		pop r24
 5671 2818 7F91      		pop r23
 5672 281a 6F91      		pop r22
 5673 281c 5F91      		pop r21
 5674 281e 4F91      		pop r20
 5675 2820 3F91      		pop r19
 5676 2822 2F91      		pop r18
 5677 2824 0F90      		pop r0
 5678 2826 0BBE      		out 91-32,r0
 5679 2828 0F90      		pop r0
 5680 282a 0FBE      		out __SREG__,r0
 5681 282c 0F90      		pop r0
 5682 282e 1F90      		pop __zero_reg__
 5683 2830 1895      		reti
 5684               	.LFE64:
 5686               		.data
 5687               	.LC0:
 5688 0000 4D41 494E 		.string	"MAIN MENU"
 5688      204D 454E 
 5688      5500 
 5689               	.LC1:
 5690 000a 5254 4F53 		.string	"RTOS Tests"
 5690      2054 6573 
 5690      7473 00
 5691               	.LC2:
 5692 0015 496E 666F 		.string	"Information"
 5692      726D 6174 
 5692      696F 6E00 
 5693               	.LC3:
 5694 0021 5344 2043 		.string	"SD Card Images"
 5694      6172 6420 
 5694      496D 6167 
 5694      6573 00
 5695               	.LC4:
 5696 0030 5365 6E73 		.string	"Sensor Data"
 5696      6F72 2044 
 5696      6174 6100 
 5697               	.LC5:
 5698 003c 4D65 6E75 		.string	"Menu 2"
 5698      2032 00
 5699               	.LC6:
 5700 0043 4E49 4C20 		.string	"NIL RTOS Test"
 5700      5254 4F53 
 5700      2054 6573 
 5700      7400 
 5701               	.LC7:
 5702 0051 5468 7265 		.string	"Thread Stack Data"
 5702      6164 2053 
 5702      7461 636B 
 5702      2044 6174 
 5702      6100 
 5703               	.LC8:
 5704 0063 5468 7265 		.string	"Thread Status"
 5704      6164 2053 
 5704      7461 7475 
 5704      7300 
 5705               	.LC9:
 5706 0071 2F2F 00   		.string	"//"
 5707               	.LC10:
 5708 0074 5379 7374 		.string	"System Time"
 5708      656D 2054 
 5708      696D 6500 
 5709               	.LC11:
 5710 0080 4865 6172 		.string	"HeartBeat"
 5710      7442 6561 
 5710      7400 
 5711               	.LC12:
 5712 008a 496E 666F 		.string	"Info Scroll"
 5712      2053 6372 
 5712      6F6C 6C00 
 5713               	.LC13:
 5714 0096 5369 6D70 		.string	"Simple Timer"
 5714      6C65 2054 
 5714      696D 6572 
 5714      00
 5715               	.LC14:
 5716 00a3 5365 7420 		.string	"Set the Time"
 5716      7468 6520 
 5716      5469 6D65 
 5716      00
 5717               	.LC15:
 5718 00b0 5368 6F77 		.string	"Show image 1"
 5718      2069 6D61 
 5718      6765 2031 
 5718      00
 5719               	.LC16:
 5720 00bd 5368 6F77 		.string	"Show image 2"
 5720      2069 6D61 
 5720      6765 2032 
 5720      00
 5721               	.LC17:
 5722 00ca 5265 616C 		.string	"Real Time Clock"
 5722      2054 696D 
 5722      6520 436C 
 5722      6F63 6B00 
 5723               	.LC18:
 5724 00da 5365 6E73 		.string	"Sensormania"
 5724      6F72 6D61 
 5724      6E69 6100 
 5725               	.LC19:
 5726 00e6 4D65 6E75 		.string	"Menu 3"
 5726      2033 00
 5727               		.text
 5728               	.global	initMenu
 5730               	initMenu:
 5731               	.LFB79:
 5732               	.LM585:
 5733               	/* prologue: function */
 5734               	/* frame size = 0 */
 5735               	.LM586:
 5736 2832 A0E0      		ldi r26,lo8(menutitle)
 5737 2834 B0E0      		ldi r27,hi8(menutitle)
 5738 2836 E0E0      		ldi r30,lo8(.LC0)
 5739 2838 F0E0      		ldi r31,hi8(.LC0)
 5740 283a 8AE0      		ldi r24,lo8(10)
 5741               	.L216:
 5742 283c 0190      		ld r0,Z+
 5743 283e 0D92      		st X+,r0
 5744 2840 8150      		subi r24,lo8(-(-1))
 5745 2842 01F4      		brne .L216
 5746               	.LM587:
 5747 2844 A0E0      		ldi r26,lo8(menuitem)
 5748 2846 B0E0      		ldi r27,hi8(menuitem)
 5749 2848 E0E0      		ldi r30,lo8(.LC1)
 5750 284a F0E0      		ldi r31,hi8(.LC1)
 5751 284c 8BE0      		ldi r24,lo8(11)
 5752               	.L217:
 5753 284e 0190      		ld r0,Z+
 5754 2850 0D92      		st X+,r0
 5755 2852 8150      		subi r24,lo8(-(-1))
 5756 2854 01F4      		brne .L217
 5757               	.LM588:
 5758 2856 81E0      		ldi r24,lo8(1)
 5759 2858 90E0      		ldi r25,hi8(1)
 5760 285a 9093 0000 		sts (menulink)+1,r25
 5761 285e 8093 0000 		sts menulink,r24
 5762               	.LM589:
 5763 2862 1092 0000 		sts (menuactn)+1,__zero_reg__
 5764 2866 1092 0000 		sts menuactn,__zero_reg__
 5765               	.LM590:
 5766 286a A0E0      		ldi r26,lo8(menuitem+20)
 5767 286c B0E0      		ldi r27,hi8(menuitem+20)
 5768 286e E0E0      		ldi r30,lo8(.LC2)
 5769 2870 F0E0      		ldi r31,hi8(.LC2)
 5770 2872 8CE0      		ldi r24,lo8(12)
 5771               	.L218:
 5772 2874 0190      		ld r0,Z+
 5773 2876 0D92      		st X+,r0
 5774 2878 8150      		subi r24,lo8(-(-1))
 5775 287a 01F4      		brne .L218
 5776               	.LM591:
 5777 287c 82E0      		ldi r24,lo8(2)
 5778 287e 90E0      		ldi r25,hi8(2)
 5779 2880 9093 0000 		sts (menulink+2)+1,r25
 5780 2884 8093 0000 		sts menulink+2,r24
 5781               	.LM592:
 5782 2888 1092 0000 		sts (menuactn+2)+1,__zero_reg__
 5783 288c 1092 0000 		sts menuactn+2,__zero_reg__
 5784               	.LM593:
 5785 2890 A0E0      		ldi r26,lo8(menuitem+40)
 5786 2892 B0E0      		ldi r27,hi8(menuitem+40)
 5787 2894 E0E0      		ldi r30,lo8(.LC3)
 5788 2896 F0E0      		ldi r31,hi8(.LC3)
 5789 2898 8FE0      		ldi r24,lo8(15)
 5790               	.L219:
 5791 289a 0190      		ld r0,Z+
 5792 289c 0D92      		st X+,r0
 5793 289e 8150      		subi r24,lo8(-(-1))
 5794 28a0 01F4      		brne .L219
 5795               	.LM594:
 5796 28a2 83E0      		ldi r24,lo8(3)
 5797 28a4 90E0      		ldi r25,hi8(3)
 5798 28a6 9093 0000 		sts (menulink+4)+1,r25
 5799 28aa 8093 0000 		sts menulink+4,r24
 5800               	.LM595:
 5801 28ae 1092 0000 		sts (menuactn+4)+1,__zero_reg__
 5802 28b2 1092 0000 		sts menuactn+4,__zero_reg__
 5803               	.LM596:
 5804 28b6 A0E0      		ldi r26,lo8(menuitem+60)
 5805 28b8 B0E0      		ldi r27,hi8(menuitem+60)
 5806 28ba E0E0      		ldi r30,lo8(.LC4)
 5807 28bc F0E0      		ldi r31,hi8(.LC4)
 5808 28be 8CE0      		ldi r24,lo8(12)
 5809               	.L220:
 5810 28c0 0190      		ld r0,Z+
 5811 28c2 0D92      		st X+,r0
 5812 28c4 8150      		subi r24,lo8(-(-1))
 5813 28c6 01F4      		brne .L220
 5814               	.LM597:
 5815 28c8 84E0      		ldi r24,lo8(4)
 5816 28ca 90E0      		ldi r25,hi8(4)
 5817 28cc 9093 0000 		sts (menulink+6)+1,r25
 5818 28d0 8093 0000 		sts menulink+6,r24
 5819               	.LM598:
 5820 28d4 1092 0000 		sts (menuactn+6)+1,__zero_reg__
 5821 28d8 1092 0000 		sts menuactn+6,__zero_reg__
 5822               	.LM599:
 5823 28dc A0E0      		ldi r26,lo8(menuitem+80)
 5824 28de B0E0      		ldi r27,hi8(menuitem+80)
 5825 28e0 E0E0      		ldi r30,lo8(.LC5)
 5826 28e2 F0E0      		ldi r31,hi8(.LC5)
 5827 28e4 87E0      		ldi r24,lo8(7)
 5828               	.L221:
 5829 28e6 0190      		ld r0,Z+
 5830 28e8 0D92      		st X+,r0
 5831 28ea 8150      		subi r24,lo8(-(-1))
 5832 28ec 01F4      		brne .L221
 5833               	.LM600:
 5834 28ee 85E0      		ldi r24,lo8(5)
 5835 28f0 90E0      		ldi r25,hi8(5)
 5836 28f2 9093 0000 		sts (menulink+8)+1,r25
 5837 28f6 8093 0000 		sts menulink+8,r24
 5838               	.LM601:
 5839 28fa 1092 0000 		sts (menuactn+8)+1,__zero_reg__
 5840 28fe 1092 0000 		sts menuactn+8,__zero_reg__
 5841               	.LM602:
 5842 2902 1092 0000 		sts menuitem+100,__zero_reg__
 5843               	.LM603:
 5844 2906 A0E0      		ldi r26,lo8(menutitle+20)
 5845 2908 B0E0      		ldi r27,hi8(menutitle+20)
 5846 290a E0E0      		ldi r30,lo8(.LC1)
 5847 290c F0E0      		ldi r31,hi8(.LC1)
 5848 290e 8BE0      		ldi r24,lo8(11)
 5849               	.L222:
 5850 2910 0190      		ld r0,Z+
 5851 2912 0D92      		st X+,r0
 5852 2914 8150      		subi r24,lo8(-(-1))
 5853 2916 01F4      		brne .L222
 5854               	.LM604:
 5855 2918 A0E0      		ldi r26,lo8(menuitem+140)
 5856 291a B0E0      		ldi r27,hi8(menuitem+140)
 5857 291c E0E0      		ldi r30,lo8(.LC6)
 5858 291e F0E0      		ldi r31,hi8(.LC6)
 5859 2920 8EE0      		ldi r24,lo8(14)
 5860               	.L223:
 5861 2922 0190      		ld r0,Z+
 5862 2924 0D92      		st X+,r0
 5863 2926 8150      		subi r24,lo8(-(-1))
 5864 2928 01F4      		brne .L223
 5865               	.LM605:
 5866 292a 1092 0000 		sts (menulink+14)+1,__zero_reg__
 5867 292e 1092 0000 		sts menulink+14,__zero_reg__
 5868               	.LM606:
 5869 2932 81E0      		ldi r24,lo8(1)
 5870 2934 90E0      		ldi r25,hi8(1)
 5871 2936 9093 0000 		sts (menuactn+14)+1,r25
 5872 293a 8093 0000 		sts menuactn+14,r24
 5873               	.LM607:
 5874 293e A0E0      		ldi r26,lo8(menuitem+160)
 5875 2940 B0E0      		ldi r27,hi8(menuitem+160)
 5876 2942 E0E0      		ldi r30,lo8(.LC7)
 5877 2944 F0E0      		ldi r31,hi8(.LC7)
 5878 2946 82E1      		ldi r24,lo8(18)
 5879               	.L224:
 5880 2948 0190      		ld r0,Z+
 5881 294a 0D92      		st X+,r0
 5882 294c 8150      		subi r24,lo8(-(-1))
 5883 294e 01F4      		brne .L224
 5884               	.LM608:
 5885 2950 1092 0000 		sts (menulink+16)+1,__zero_reg__
 5886 2954 1092 0000 		sts menulink+16,__zero_reg__
 5887               	.LM609:
 5888 2958 82E0      		ldi r24,lo8(2)
 5889 295a 90E0      		ldi r25,hi8(2)
 5890 295c 9093 0000 		sts (menuactn+16)+1,r25
 5891 2960 8093 0000 		sts menuactn+16,r24
 5892               	.LM610:
 5893 2964 A0E0      		ldi r26,lo8(menuitem+180)
 5894 2966 B0E0      		ldi r27,hi8(menuitem+180)
 5895 2968 E0E0      		ldi r30,lo8(.LC8)
 5896 296a F0E0      		ldi r31,hi8(.LC8)
 5897 296c 8EE0      		ldi r24,lo8(14)
 5898               	.L225:
 5899 296e 0190      		ld r0,Z+
 5900 2970 0D92      		st X+,r0
 5901 2972 8150      		subi r24,lo8(-(-1))
 5902 2974 01F4      		brne .L225
 5903               	.LM611:
 5904 2976 1092 0000 		sts (menulink+18)+1,__zero_reg__
 5905 297a 1092 0000 		sts menulink+18,__zero_reg__
 5906               	.LM612:
 5907 297e 83E0      		ldi r24,lo8(3)
 5908 2980 90E0      		ldi r25,hi8(3)
 5909 2982 9093 0000 		sts (menuactn+18)+1,r25
 5910 2986 8093 0000 		sts menuactn+18,r24
 5911               	.LM613:
 5912 298a A0E0      		ldi r26,lo8(menuitem+200)
 5913 298c B0E0      		ldi r27,hi8(menuitem+200)
 5914 298e E0E0      		ldi r30,lo8(.LC9)
 5915 2990 F0E0      		ldi r31,hi8(.LC9)
 5916 2992 83E0      		ldi r24,lo8(3)
 5917               	.L226:
 5918 2994 0190      		ld r0,Z+
 5919 2996 0D92      		st X+,r0
 5920 2998 8150      		subi r24,lo8(-(-1))
 5921 299a 01F4      		brne .L226
 5922               	.LM614:
 5923 299c 1092 0000 		sts (menulink+20)+1,__zero_reg__
 5924 29a0 1092 0000 		sts menulink+20,__zero_reg__
 5925               	.LM615:
 5926 29a4 87EE      		ldi r24,lo8(999)
 5927 29a6 93E0      		ldi r25,hi8(999)
 5928 29a8 9093 0000 		sts (menuactn+20)+1,r25
 5929 29ac 8093 0000 		sts menuactn+20,r24
 5930               	.LM616:
 5931 29b0 1092 0000 		sts menuitem+220,__zero_reg__
 5932               	.LM617:
 5933 29b4 A0E0      		ldi r26,lo8(menutitle+40)
 5934 29b6 B0E0      		ldi r27,hi8(menutitle+40)
 5935 29b8 E0E0      		ldi r30,lo8(.LC2)
 5936 29ba F0E0      		ldi r31,hi8(.LC2)
 5937 29bc 8CE0      		ldi r24,lo8(12)
 5938               	.L227:
 5939 29be 0190      		ld r0,Z+
 5940 29c0 0D92      		st X+,r0
 5941 29c2 8150      		subi r24,lo8(-(-1))
 5942 29c4 01F4      		brne .L227
 5943               	.LM618:
 5944 29c6 A0E0      		ldi r26,lo8(menuitem+280)
 5945 29c8 B0E0      		ldi r27,hi8(menuitem+280)
 5946 29ca E0E0      		ldi r30,lo8(.LC10)
 5947 29cc F0E0      		ldi r31,hi8(.LC10)
 5948 29ce 8CE0      		ldi r24,lo8(12)
 5949               	.L228:
 5950 29d0 0190      		ld r0,Z+
 5951 29d2 0D92      		st X+,r0
 5952 29d4 8150      		subi r24,lo8(-(-1))
 5953 29d6 01F4      		brne .L228
 5954               	.LM619:
 5955 29d8 1092 0000 		sts (menulink+28)+1,__zero_reg__
 5956 29dc 1092 0000 		sts menulink+28,__zero_reg__
 5957               	.LM620:
 5958 29e0 84E0      		ldi r24,lo8(4)
 5959 29e2 90E0      		ldi r25,hi8(4)
 5960 29e4 9093 0000 		sts (menuactn+28)+1,r25
 5961 29e8 8093 0000 		sts menuactn+28,r24
 5962               	.LM621:
 5963 29ec A0E0      		ldi r26,lo8(menuitem+300)
 5964 29ee B0E0      		ldi r27,hi8(menuitem+300)
 5965 29f0 E0E0      		ldi r30,lo8(.LC11)
 5966 29f2 F0E0      		ldi r31,hi8(.LC11)
 5967 29f4 8AE0      		ldi r24,lo8(10)
 5968               	.L229:
 5969 29f6 0190      		ld r0,Z+
 5970 29f8 0D92      		st X+,r0
 5971 29fa 8150      		subi r24,lo8(-(-1))
 5972 29fc 01F4      		brne .L229
 5973               	.LM622:
 5974 29fe 1092 0000 		sts (menulink+30)+1,__zero_reg__
 5975 2a02 1092 0000 		sts menulink+30,__zero_reg__
 5976               	.LM623:
 5977 2a06 8BE0      		ldi r24,lo8(11)
 5978 2a08 90E0      		ldi r25,hi8(11)
 5979 2a0a 9093 0000 		sts (menuactn+30)+1,r25
 5980 2a0e 8093 0000 		sts menuactn+30,r24
 5981               	.LM624:
 5982 2a12 A0E0      		ldi r26,lo8(menuitem+320)
 5983 2a14 B0E0      		ldi r27,hi8(menuitem+320)
 5984 2a16 E0E0      		ldi r30,lo8(.LC12)
 5985 2a18 F0E0      		ldi r31,hi8(.LC12)
 5986 2a1a 8CE0      		ldi r24,lo8(12)
 5987               	.L230:
 5988 2a1c 0190      		ld r0,Z+
 5989 2a1e 0D92      		st X+,r0
 5990 2a20 8150      		subi r24,lo8(-(-1))
 5991 2a22 01F4      		brne .L230
 5992               	.LM625:
 5993 2a24 1092 0000 		sts (menulink+32)+1,__zero_reg__
 5994 2a28 1092 0000 		sts menulink+32,__zero_reg__
 5995               	.LM626:
 5996 2a2c 85E0      		ldi r24,lo8(5)
 5997 2a2e 90E0      		ldi r25,hi8(5)
 5998 2a30 9093 0000 		sts (menuactn+32)+1,r25
 5999 2a34 8093 0000 		sts menuactn+32,r24
 6000               	.LM627:
 6001 2a38 A0E0      		ldi r26,lo8(menuitem+340)
 6002 2a3a B0E0      		ldi r27,hi8(menuitem+340)
 6003 2a3c E0E0      		ldi r30,lo8(.LC13)
 6004 2a3e F0E0      		ldi r31,hi8(.LC13)
 6005 2a40 8DE0      		ldi r24,lo8(13)
 6006               	.L231:
 6007 2a42 0190      		ld r0,Z+
 6008 2a44 0D92      		st X+,r0
 6009 2a46 8150      		subi r24,lo8(-(-1))
 6010 2a48 01F4      		brne .L231
 6011               	.LM628:
 6012 2a4a 1092 0000 		sts (menulink+34)+1,__zero_reg__
 6013 2a4e 1092 0000 		sts menulink+34,__zero_reg__
 6014               	.LM629:
 6015 2a52 86E0      		ldi r24,lo8(6)
 6016 2a54 90E0      		ldi r25,hi8(6)
 6017 2a56 9093 0000 		sts (menuactn+34)+1,r25
 6018 2a5a 8093 0000 		sts menuactn+34,r24
 6019               	.LM630:
 6020 2a5e A0E0      		ldi r26,lo8(menuitem+360)
 6021 2a60 B0E0      		ldi r27,hi8(menuitem+360)
 6022 2a62 E0E0      		ldi r30,lo8(.LC14)
 6023 2a64 F0E0      		ldi r31,hi8(.LC14)
 6024 2a66 8DE0      		ldi r24,lo8(13)
 6025               	.L232:
 6026 2a68 0190      		ld r0,Z+
 6027 2a6a 0D92      		st X+,r0
 6028 2a6c 8150      		subi r24,lo8(-(-1))
 6029 2a6e 01F4      		brne .L232
 6030               	.LM631:
 6031 2a70 1092 0000 		sts (menulink+36)+1,__zero_reg__
 6032 2a74 1092 0000 		sts menulink+36,__zero_reg__
 6033               	.LM632:
 6034 2a78 8CE0      		ldi r24,lo8(12)
 6035 2a7a 90E0      		ldi r25,hi8(12)
 6036 2a7c 9093 0000 		sts (menuactn+36)+1,r25
 6037 2a80 8093 0000 		sts menuactn+36,r24
 6038               	.LM633:
 6039 2a84 A0E0      		ldi r26,lo8(menuitem+380)
 6040 2a86 B0E0      		ldi r27,hi8(menuitem+380)
 6041 2a88 E0E0      		ldi r30,lo8(.LC9)
 6042 2a8a F0E0      		ldi r31,hi8(.LC9)
 6043 2a8c 83E0      		ldi r24,lo8(3)
 6044               	.L233:
 6045 2a8e 0190      		ld r0,Z+
 6046 2a90 0D92      		st X+,r0
 6047 2a92 8150      		subi r24,lo8(-(-1))
 6048 2a94 01F4      		brne .L233
 6049               	.LM634:
 6050 2a96 1092 0000 		sts (menulink+38)+1,__zero_reg__
 6051 2a9a 1092 0000 		sts menulink+38,__zero_reg__
 6052               	.LM635:
 6053 2a9e 87EE      		ldi r24,lo8(999)
 6054 2aa0 93E0      		ldi r25,hi8(999)
 6055 2aa2 9093 0000 		sts (menuactn+38)+1,r25
 6056 2aa6 8093 0000 		sts menuactn+38,r24
 6057               	.LM636:
 6058 2aaa 1092 0000 		sts menuitem+400,__zero_reg__
 6059               	.LM637:
 6060 2aae A0E0      		ldi r26,lo8(menutitle+60)
 6061 2ab0 B0E0      		ldi r27,hi8(menutitle+60)
 6062 2ab2 E0E0      		ldi r30,lo8(.LC3)
 6063 2ab4 F0E0      		ldi r31,hi8(.LC3)
 6064 2ab6 8FE0      		ldi r24,lo8(15)
 6065               	.L234:
 6066 2ab8 0190      		ld r0,Z+
 6067 2aba 0D92      		st X+,r0
 6068 2abc 8150      		subi r24,lo8(-(-1))
 6069 2abe 01F4      		brne .L234
 6070               	.LM638:
 6071 2ac0 A0E0      		ldi r26,lo8(menuitem+420)
 6072 2ac2 B0E0      		ldi r27,hi8(menuitem+420)
 6073 2ac4 E0E0      		ldi r30,lo8(.LC15)
 6074 2ac6 F0E0      		ldi r31,hi8(.LC15)
 6075 2ac8 8DE0      		ldi r24,lo8(13)
 6076               	.L235:
 6077 2aca 0190      		ld r0,Z+
 6078 2acc 0D92      		st X+,r0
 6079 2ace 8150      		subi r24,lo8(-(-1))
 6080 2ad0 01F4      		brne .L235
 6081               	.LM639:
 6082 2ad2 1092 0000 		sts (menulink+42)+1,__zero_reg__
 6083 2ad6 1092 0000 		sts menulink+42,__zero_reg__
 6084               	.LM640:
 6085 2ada 87E0      		ldi r24,lo8(7)
 6086 2adc 90E0      		ldi r25,hi8(7)
 6087 2ade 9093 0000 		sts (menuactn+42)+1,r25
 6088 2ae2 8093 0000 		sts menuactn+42,r24
 6089               	.LM641:
 6090 2ae6 A0E0      		ldi r26,lo8(menuitem+440)
 6091 2ae8 B0E0      		ldi r27,hi8(menuitem+440)
 6092 2aea E0E0      		ldi r30,lo8(.LC16)
 6093 2aec F0E0      		ldi r31,hi8(.LC16)
 6094 2aee 8DE0      		ldi r24,lo8(13)
 6095               	.L236:
 6096 2af0 0190      		ld r0,Z+
 6097 2af2 0D92      		st X+,r0
 6098 2af4 8150      		subi r24,lo8(-(-1))
 6099 2af6 01F4      		brne .L236
 6100               	.LM642:
 6101 2af8 1092 0000 		sts (menulink+44)+1,__zero_reg__
 6102 2afc 1092 0000 		sts menulink+44,__zero_reg__
 6103               	.LM643:
 6104 2b00 88E0      		ldi r24,lo8(8)
 6105 2b02 90E0      		ldi r25,hi8(8)
 6106 2b04 9093 0000 		sts (menuactn+44)+1,r25
 6107 2b08 8093 0000 		sts menuactn+44,r24
 6108               	.LM644:
 6109 2b0c A0E0      		ldi r26,lo8(menuitem+460)
 6110 2b0e B0E0      		ldi r27,hi8(menuitem+460)
 6111 2b10 E0E0      		ldi r30,lo8(.LC9)
 6112 2b12 F0E0      		ldi r31,hi8(.LC9)
 6113 2b14 83E0      		ldi r24,lo8(3)
 6114               	.L237:
 6115 2b16 0190      		ld r0,Z+
 6116 2b18 0D92      		st X+,r0
 6117 2b1a 8150      		subi r24,lo8(-(-1))
 6118 2b1c 01F4      		brne .L237
 6119               	.LM645:
 6120 2b1e 1092 0000 		sts (menulink+46)+1,__zero_reg__
 6121 2b22 1092 0000 		sts menulink+46,__zero_reg__
 6122               	.LM646:
 6123 2b26 87EE      		ldi r24,lo8(999)
 6124 2b28 93E0      		ldi r25,hi8(999)
 6125 2b2a 9093 0000 		sts (menuactn+46)+1,r25
 6126 2b2e 8093 0000 		sts menuactn+46,r24
 6127               	.LM647:
 6128 2b32 1092 0000 		sts menuitem+480,__zero_reg__
 6129               	.LM648:
 6130 2b36 A0E0      		ldi r26,lo8(menutitle+80)
 6131 2b38 B0E0      		ldi r27,hi8(menutitle+80)
 6132 2b3a E0E0      		ldi r30,lo8(.LC4)
 6133 2b3c F0E0      		ldi r31,hi8(.LC4)
 6134 2b3e 8CE0      		ldi r24,lo8(12)
 6135               	.L238:
 6136 2b40 0190      		ld r0,Z+
 6137 2b42 0D92      		st X+,r0
 6138 2b44 8150      		subi r24,lo8(-(-1))
 6139 2b46 01F4      		brne .L238
 6140               	.LM649:
 6141 2b48 A0E0      		ldi r26,lo8(menuitem+560)
 6142 2b4a B0E0      		ldi r27,hi8(menuitem+560)
 6143 2b4c E0E0      		ldi r30,lo8(.LC17)
 6144 2b4e F0E0      		ldi r31,hi8(.LC17)
 6145 2b50 80E1      		ldi r24,lo8(16)
 6146               	.L239:
 6147 2b52 0190      		ld r0,Z+
 6148 2b54 0D92      		st X+,r0
 6149 2b56 8150      		subi r24,lo8(-(-1))
 6150 2b58 01F4      		brne .L239
 6151               	.LM650:
 6152 2b5a 1092 0000 		sts (menulink+56)+1,__zero_reg__
 6153 2b5e 1092 0000 		sts menulink+56,__zero_reg__
 6154               	.LM651:
 6155 2b62 89E0      		ldi r24,lo8(9)
 6156 2b64 90E0      		ldi r25,hi8(9)
 6157 2b66 9093 0000 		sts (menuactn+56)+1,r25
 6158 2b6a 8093 0000 		sts menuactn+56,r24
 6159               	.LM652:
 6160 2b6e A0E0      		ldi r26,lo8(menuitem+580)
 6161 2b70 B0E0      		ldi r27,hi8(menuitem+580)
 6162 2b72 E0E0      		ldi r30,lo8(.LC18)
 6163 2b74 F0E0      		ldi r31,hi8(.LC18)
 6164 2b76 8CE0      		ldi r24,lo8(12)
 6165               	.L240:
 6166 2b78 0190      		ld r0,Z+
 6167 2b7a 0D92      		st X+,r0
 6168 2b7c 8150      		subi r24,lo8(-(-1))
 6169 2b7e 01F4      		brne .L240
 6170               	.LM653:
 6171 2b80 1092 0000 		sts (menulink+58)+1,__zero_reg__
 6172 2b84 1092 0000 		sts menulink+58,__zero_reg__
 6173               	.LM654:
 6174 2b88 8AE0      		ldi r24,lo8(10)
 6175 2b8a 90E0      		ldi r25,hi8(10)
 6176 2b8c 9093 0000 		sts (menuactn+58)+1,r25
 6177 2b90 8093 0000 		sts menuactn+58,r24
 6178               	.LM655:
 6179 2b94 A0E0      		ldi r26,lo8(menuitem+600)
 6180 2b96 B0E0      		ldi r27,hi8(menuitem+600)
 6181 2b98 E0E0      		ldi r30,lo8(.LC9)
 6182 2b9a F0E0      		ldi r31,hi8(.LC9)
 6183 2b9c 83E0      		ldi r24,lo8(3)
 6184               	.L241:
 6185 2b9e 0190      		ld r0,Z+
 6186 2ba0 0D92      		st X+,r0
 6187 2ba2 8150      		subi r24,lo8(-(-1))
 6188 2ba4 01F4      		brne .L241
 6189               	.LM656:
 6190 2ba6 1092 0000 		sts (menulink+60)+1,__zero_reg__
 6191 2baa 1092 0000 		sts menulink+60,__zero_reg__
 6192               	.LM657:
 6193 2bae 87EE      		ldi r24,lo8(999)
 6194 2bb0 93E0      		ldi r25,hi8(999)
 6195 2bb2 9093 0000 		sts (menuactn+60)+1,r25
 6196 2bb6 8093 0000 		sts menuactn+60,r24
 6197               	.LM658:
 6198 2bba 1092 0000 		sts menuitem+620,__zero_reg__
 6199               	.LM659:
 6200 2bbe A0E0      		ldi r26,lo8(menutitle+100)
 6201 2bc0 B0E0      		ldi r27,hi8(menutitle+100)
 6202 2bc2 E0E0      		ldi r30,lo8(.LC5)
 6203 2bc4 F0E0      		ldi r31,hi8(.LC5)
 6204 2bc6 87E0      		ldi r24,lo8(7)
 6205               	.L242:
 6206 2bc8 0190      		ld r0,Z+
 6207 2bca 0D92      		st X+,r0
 6208 2bcc 8150      		subi r24,lo8(-(-1))
 6209 2bce 01F4      		brne .L242
 6210               	.LM660:
 6211 2bd0 A0E0      		ldi r26,lo8(menuitem+700)
 6212 2bd2 B0E0      		ldi r27,hi8(menuitem+700)
 6213 2bd4 E0E0      		ldi r30,lo8(.LC19)
 6214 2bd6 F0E0      		ldi r31,hi8(.LC19)
 6215 2bd8 87E0      		ldi r24,lo8(7)
 6216               	.L243:
 6217 2bda 0190      		ld r0,Z+
 6218 2bdc 0D92      		st X+,r0
 6219 2bde 8150      		subi r24,lo8(-(-1))
 6220 2be0 01F4      		brne .L243
 6221               	.LM661:
 6222 2be2 86E0      		ldi r24,lo8(6)
 6223 2be4 90E0      		ldi r25,hi8(6)
 6224 2be6 9093 0000 		sts (menulink+70)+1,r25
 6225 2bea 8093 0000 		sts menulink+70,r24
 6226               	.LM662:
 6227 2bee 1092 0000 		sts (menuactn+70)+1,__zero_reg__
 6228 2bf2 1092 0000 		sts menuactn+70,__zero_reg__
 6229               	.LM663:
 6230 2bf6 A0E0      		ldi r26,lo8(menuitem+720)
 6231 2bf8 B0E0      		ldi r27,hi8(menuitem+720)
 6232 2bfa E0E0      		ldi r30,lo8(.LC9)
 6233 2bfc F0E0      		ldi r31,hi8(.LC9)
 6234 2bfe 83E0      		ldi r24,lo8(3)
 6235               	.L244:
 6236 2c00 0190      		ld r0,Z+
 6237 2c02 0D92      		st X+,r0
 6238 2c04 8150      		subi r24,lo8(-(-1))
 6239 2c06 01F4      		brne .L244
 6240               	.LM664:
 6241 2c08 1092 0000 		sts (menulink+72)+1,__zero_reg__
 6242 2c0c 1092 0000 		sts menulink+72,__zero_reg__
 6243               	.LM665:
 6244 2c10 87EE      		ldi r24,lo8(999)
 6245 2c12 93E0      		ldi r25,hi8(999)
 6246 2c14 9093 0000 		sts (menuactn+72)+1,r25
 6247 2c18 8093 0000 		sts menuactn+72,r24
 6248               	.LM666:
 6249 2c1c 1092 0000 		sts menuitem+740,__zero_reg__
 6250               	.LM667:
 6251 2c20 A0E0      		ldi r26,lo8(menutitle+120)
 6252 2c22 B0E0      		ldi r27,hi8(menutitle+120)
 6253 2c24 E0E0      		ldi r30,lo8(.LC19)
 6254 2c26 F0E0      		ldi r31,hi8(.LC19)
 6255 2c28 87E0      		ldi r24,lo8(7)
 6256               	.L245:
 6257 2c2a 0190      		ld r0,Z+
 6258 2c2c 0D92      		st X+,r0
 6259 2c2e 8150      		subi r24,lo8(-(-1))
 6260 2c30 01F4      		brne .L245
 6261               	.LM668:
 6262 2c32 A0E0      		ldi r26,lo8(menuitem+840)
 6263 2c34 B0E0      		ldi r27,hi8(menuitem+840)
 6264 2c36 E0E0      		ldi r30,lo8(.LC9)
 6265 2c38 F0E0      		ldi r31,hi8(.LC9)
 6266 2c3a 83E0      		ldi r24,lo8(3)
 6267               	.L246:
 6268 2c3c 0190      		ld r0,Z+
 6269 2c3e 0D92      		st X+,r0
 6270 2c40 8150      		subi r24,lo8(-(-1))
 6271 2c42 01F4      		brne .L246
 6272               	.LM669:
 6273 2c44 85E0      		ldi r24,lo8(5)
 6274 2c46 90E0      		ldi r25,hi8(5)
 6275 2c48 9093 0000 		sts (menulink+84)+1,r25
 6276 2c4c 8093 0000 		sts menulink+84,r24
 6277               	.LM670:
 6278 2c50 1092 0000 		sts (menuactn+84)+1,__zero_reg__
 6279 2c54 1092 0000 		sts menuactn+84,__zero_reg__
 6280               	.LM671:
 6281 2c58 1092 0000 		sts menuitem+860,__zero_reg__
 6282               	/* epilogue start */
 6283               	.LM672:
 6284 2c5c 0895      		ret
 6285               	.LFE79:
 6287               	.global	Thread2
 6289               	Thread2:
 6290               	.LFB83:
 6291               	.LM673:
 6292               	.LVL58:
 6293               	/* prologue: function */
 6294               	/* frame size = 0 */
 6295               	.LM674:
 6296 2c5e 8091 0000 		lds r24,nil
 6297 2c62 9091 0000 		lds r25,(nil)+1
 6298               	.LVL59:
 6299 2c66 9093 0000 		sts (tp+2)+1,r25
 6300 2c6a 8093 0000 		sts tp+2,r24
 6301               	.LM675:
 6302 2c6e 0E94 0000 		call initMenu
 6303               	.LM676:
 6304 2c72 80E0      		ldi r24,lo8(lcdUSE)
 6305 2c74 90E0      		ldi r25,hi8(lcdUSE)
 6306 2c76 40E0      		ldi r20,lo8(0)
 6307 2c78 50E0      		ldi r21,hi8(0)
 6308 2c7a 60E0      		ldi r22,hlo8(0)
 6309 2c7c 70E0      		ldi r23,hhi8(0)
 6310 2c7e 0E94 0000 		call chSemWaitTimeout
 6311               	.LBB223:
 6312               	.LBB224:
 6313               	.LM677:
 6314 2c82 239A      		sbi 36-32,3
 6315               	.LM678:
 6316 2c84 8091 0000 		lds r24,LCD_PWM_SET
 6317 2c88 8093 B300 		sts 179,r24
 6318               	.LM679:
 6319 2c8c 8091 B100 		lds r24,177
 6320 2c90 8760      		ori r24,lo8(7)
 6321 2c92 8093 B100 		sts 177,r24
 6322               	.LM680:
 6323 2c96 8091 7000 		lds r24,112
 6324 2c9a 8360      		ori r24,lo8(3)
 6325 2c9c 8093 7000 		sts 112,r24
 6326               	.LBE224:
 6327               	.LBE223:
 6328               	.LM681:
 6329 2ca0 80E0      		ldi r24,lo8(spiUSE)
 6330 2ca2 90E0      		ldi r25,hi8(spiUSE)
 6331 2ca4 40E0      		ldi r20,lo8(0)
 6332 2ca6 50E0      		ldi r21,hi8(0)
 6333 2ca8 60E0      		ldi r22,hlo8(0)
 6334 2caa 70E0      		ldi r23,hhi8(0)
 6335 2cac 0E94 0000 		call chSemWaitTimeout
 6336               	.LM682:
 6337 2cb0 0E94 0000 		call spi_init
 6338               	.LM683:
 6339 2cb4 0E94 0000 		call st7735_init
 6340               	.LM684:
 6341 2cb8 80E0      		ldi r24,lo8(spiUSE)
 6342 2cba 90E0      		ldi r25,hi8(spiUSE)
 6343 2cbc 0E94 0000 		call chSemSignal
 6344               	.LM685:
 6345 2cc0 80E0      		ldi r24,lo8(spiUSE)
 6346 2cc2 90E0      		ldi r25,hi8(spiUSE)
 6347 2cc4 40E0      		ldi r20,lo8(0)
 6348 2cc6 50E0      		ldi r21,hi8(0)
 6349 2cc8 60E0      		ldi r22,hlo8(0)
 6350 2cca 70E0      		ldi r23,hhi8(0)
 6351 2ccc 0E94 0000 		call chSemWaitTimeout
 6352               	.LM686:
 6353 2cd0 82E0      		ldi r24,lo8(2)
 6354 2cd2 0E94 0000 		call st7735_set_orientation
 6355               	.LM687:
 6356 2cd6 80E0      		ldi r24,lo8(0)
 6357 2cd8 60E0      		ldi r22,lo8(0)
 6358 2cda 40EA      		ldi r20,lo8(-96)
 6359 2cdc 20E8      		ldi r18,lo8(-128)
 6360 2cde 00E0      		ldi r16,lo8(0)
 6361 2ce0 10E0      		ldi r17,hi8(0)
 6362 2ce2 0E94 0000 		call st7735_fill_rect
 6363               	.LM688:
 6364 2ce6 80E0      		ldi r24,lo8(spiUSE)
 6365 2ce8 90E0      		ldi r25,hi8(spiUSE)
 6366 2cea 0E94 0000 		call chSemSignal
 6367               	.LM689:
 6368 2cee 80E0      		ldi r24,lo8(spiUSE)
 6369 2cf0 90E0      		ldi r25,hi8(spiUSE)
 6370 2cf2 40E0      		ldi r20,lo8(0)
 6371 2cf4 50E0      		ldi r21,hi8(0)
 6372 2cf6 60E0      		ldi r22,hlo8(0)
 6373 2cf8 70E0      		ldi r23,hhi8(0)
 6374 2cfa 0E94 0000 		call chSemWaitTimeout
 6375               	.LM690:
 6376 2cfe 8FEF      		ldi r24,lo8(2047)
 6377 2d00 97E0      		ldi r25,hi8(2047)
 6378 2d02 60E0      		ldi r22,lo8(0)
 6379 2d04 70E0      		ldi r23,hi8(0)
 6380 2d06 0E94 0000 		call st7735_setTextColor
 6381               	.LM691:
 6382 2d0a 81E0      		ldi r24,lo8(1)
 6383 2d0c 0E94 0000 		call st7735_setTextSize
 6384               	.LM692:
 6385 2d10 81E0      		ldi r24,lo8(1)
 6386 2d12 0E94 0000 		call st7735_setTextWrap
 6387               	.LM693:
 6388 2d16 80E0      		ldi r24,lo8(spiUSE)
 6389 2d18 90E0      		ldi r25,hi8(spiUSE)
 6390 2d1a 0E94 0000 		call chSemSignal
 6391               	.LM694:
 6392 2d1e 80E0      		ldi r24,lo8(lcdUSE)
 6393 2d20 90E0      		ldi r25,hi8(lcdUSE)
 6394 2d22 0E94 0000 		call chSemSignal
 6395               	.LM695:
 6396 2d26 60ED      		ldi r22,lo8(2000)
 6397 2d28 77E0      		ldi r23,hi8(2000)
 6398 2d2a 80E0      		ldi r24,hlo8(2000)
 6399 2d2c 90E0      		ldi r25,hhi8(2000)
 6400 2d2e 0E94 0000 		call chThdSleep
 6401               	.LM696:
 6402 2d32 0CE8      		ldi r16,lo8(140)
 6403 2d34 10E0      		ldi r17,hi8(140)
 6404               	.LM697:
 6405 2d36 C1E0      		ldi r28,lo8(1)
 6406 2d38 D0E0      		ldi r29,hi8(1)
 6407 2d3a 00C0      		rjmp .L312
 6408               	.L283:
 6409               	.LM698:
 6410 2d3c 8091 0000 		lds r24,switchtype
 6411 2d40 8230      		cpi r24,lo8(2)
 6412 2d42 01F4      		brne .+2
 6413 2d44 00C0      		rjmp .L317
 6414               	.L312:
 6415               	.LM699:
 6416 2d46 80E0      		ldi r24,lo8(lcdUSE)
 6417 2d48 90E0      		ldi r25,hi8(lcdUSE)
 6418 2d4a 40E0      		ldi r20,lo8(0)
 6419 2d4c 50E0      		ldi r21,hi8(0)
 6420 2d4e 60E0      		ldi r22,hlo8(0)
 6421 2d50 70E0      		ldi r23,hhi8(0)
 6422 2d52 0E94 0000 		call chSemWaitTimeout
 6423               	.LM700:
 6424 2d56 0E94 0000 		call showMenu
 6425               	.LM701:
 6426 2d5a 80E0      		ldi r24,lo8(lcdUSE)
 6427 2d5c 90E0      		ldi r25,hi8(lcdUSE)
 6428 2d5e 0E94 0000 		call chSemSignal
 6429               	.LM702:
 6430 2d62 80E0      		ldi r24,lo8(ButtonPressed)
 6431 2d64 90E0      		ldi r25,hi8(ButtonPressed)
 6432 2d66 40E0      		ldi r20,lo8(0)
 6433 2d68 50E0      		ldi r21,hi8(0)
 6434 2d6a 60E0      		ldi r22,hlo8(0)
 6435 2d6c 70E0      		ldi r23,hhi8(0)
 6436 2d6e 0E94 0000 		call chSemWaitTimeout
 6437               	.LM703:
 6438 2d72 8091 0000 		lds r24,switchtype
 6439 2d76 8823      		tst r24
 6440 2d78 01F4      		brne .L280
 6441               	.LM704:
 6442 2d7a 2091 0000 		lds r18,curMenu
 6443 2d7e 3091 0000 		lds r19,(curMenu)+1
 6444 2d82 E091 0000 		lds r30,curItem
 6445 2d86 F091 0000 		lds r31,curItem+1
 6446 2d8a EE0F      		lsl r30
 6447 2d8c FF1F      		rol r31
 6448 2d8e EE0F      		lsl r30
 6449 2d90 FF1F      		rol r31
 6450 2d92 CF01      		movw r24,r30
 6451 2d94 880F      		lsl r24
 6452 2d96 991F      		rol r25
 6453 2d98 880F      		lsl r24
 6454 2d9a 991F      		rol r25
 6455 2d9c E80F      		add r30,r24
 6456 2d9e F91F      		adc r31,r25
 6457 2da0 209F      		mul r18,r16
 6458 2da2 C001      		movw r24,r0
 6459 2da4 219F      		mul r18,r17
 6460 2da6 900D      		add r25,r0
 6461 2da8 309F      		mul r19,r16
 6462 2daa 900D      		add r25,r0
 6463 2dac 1124      		clr r1
 6464 2dae E80F      		add r30,r24
 6465 2db0 F91F      		adc r31,r25
 6466 2db2 E050      		subi r30,lo8(-(menuitem))
 6467 2db4 F040      		sbci r31,hi8(-(menuitem))
 6468 2db6 8081      		ld r24,Z
 6469 2db8 8823      		tst r24
 6470 2dba 01F0      		breq .+2
 6471 2dbc 00C0      		rjmp .L281
 6472               	.LM705:
 6473 2dbe 1092 0000 		sts (curItem)+1,__zero_reg__
 6474 2dc2 1092 0000 		sts curItem,__zero_reg__
 6475               	.LM706:
 6476 2dc6 1092 0000 		sts (pageScroll)+1,__zero_reg__
 6477 2dca 1092 0000 		sts pageScroll,__zero_reg__
 6478               	.LM707:
 6479 2dce 1092 0000 		sts (cursorCount)+1,__zero_reg__
 6480 2dd2 1092 0000 		sts cursorCount,__zero_reg__
 6481 2dd6 20E0      		ldi r18,lo8(0)
 6482 2dd8 30E0      		ldi r19,hi8(0)
 6483               	.L282:
 6484               	.LM708:
 6485 2dda C901      		movw r24,r18
 6486 2ddc 880F      		lsl r24
 6487 2dde 991F      		rol r25
 6488 2de0 880F      		lsl r24
 6489 2de2 991F      		rol r25
 6490 2de4 880F      		lsl r24
 6491 2de6 991F      		rol r25
 6492 2de8 821B      		sub r24,r18
 6493 2dea 930B      		sbc r25,r19
 6494 2dec 9093 0000 		sts (menuCount)+1,r25
 6495 2df0 8093 0000 		sts menuCount,r24
 6496               	.L280:
 6497               	.LM709:
 6498 2df4 8091 0000 		lds r24,switchtype
 6499 2df8 8130      		cpi r24,lo8(1)
 6500 2dfa 01F0      		breq .+2
 6501 2dfc 00C0      		rjmp .L283
 6502               	.LM710:
 6503 2dfe E091 0000 		lds r30,curItem
 6504 2e02 F091 0000 		lds r31,(curItem)+1
 6505 2e06 3196      		adiw r30,1
 6506 2e08 F093 0000 		sts (curItem)+1,r31
 6507 2e0c E093 0000 		sts curItem,r30
 6508               	.LM711:
 6509 2e10 4091 0000 		lds r20,cursorCount
 6510 2e14 5091 0000 		lds r21,(cursorCount)+1
 6511 2e18 4F5F      		subi r20,lo8(-(1))
 6512 2e1a 5F4F      		sbci r21,hi8(-(1))
 6513 2e1c 5093 0000 		sts (cursorCount)+1,r21
 6514 2e20 4093 0000 		sts cursorCount,r20
 6515               	.LM712:
 6516 2e24 2091 0000 		lds r18,curMenu
 6517 2e28 3091 0000 		lds r19,(curMenu)+1
 6518 2e2c EE0F      		lsl r30
 6519 2e2e FF1F      		rol r31
 6520 2e30 EE0F      		lsl r30
 6521 2e32 FF1F      		rol r31
 6522 2e34 CF01      		movw r24,r30
 6523 2e36 880F      		lsl r24
 6524 2e38 991F      		rol r25
 6525 2e3a 880F      		lsl r24
 6526 2e3c 991F      		rol r25
 6527 2e3e E80F      		add r30,r24
 6528 2e40 F91F      		adc r31,r25
 6529 2e42 209F      		mul r18,r16
 6530 2e44 C001      		movw r24,r0
 6531 2e46 219F      		mul r18,r17
 6532 2e48 900D      		add r25,r0
 6533 2e4a 309F      		mul r19,r16
 6534 2e4c 900D      		add r25,r0
 6535 2e4e 1124      		clr r1
 6536 2e50 E80F      		add r30,r24
 6537 2e52 F91F      		adc r31,r25
 6538 2e54 E050      		subi r30,lo8(-(menuitem))
 6539 2e56 F040      		sbci r31,hi8(-(menuitem))
 6540 2e58 8081      		ld r24,Z
 6541 2e5a 8823      		tst r24
 6542 2e5c 01F0      		breq .+2
 6543 2e5e 00C0      		rjmp .L284
 6544               	.LM713:
 6545 2e60 1092 0000 		sts (curItem)+1,__zero_reg__
 6546 2e64 1092 0000 		sts curItem,__zero_reg__
 6547               	.LM714:
 6548 2e68 1092 0000 		sts (pageScroll)+1,__zero_reg__
 6549 2e6c 1092 0000 		sts pageScroll,__zero_reg__
 6550               	.LM715:
 6551 2e70 1092 0000 		sts (cursorCount)+1,__zero_reg__
 6552 2e74 1092 0000 		sts cursorCount,__zero_reg__
 6553 2e78 20E0      		ldi r18,lo8(0)
 6554 2e7a 30E0      		ldi r19,hi8(0)
 6555               	.L285:
 6556               	.LM716:
 6557 2e7c C901      		movw r24,r18
 6558 2e7e 880F      		lsl r24
 6559 2e80 991F      		rol r25
 6560 2e82 880F      		lsl r24
 6561 2e84 991F      		rol r25
 6562 2e86 880F      		lsl r24
 6563 2e88 991F      		rol r25
 6564 2e8a 821B      		sub r24,r18
 6565 2e8c 930B      		sbc r25,r19
 6566 2e8e 9093 0000 		sts (menuCount)+1,r25
 6567 2e92 8093 0000 		sts menuCount,r24
 6568               	.LM717:
 6569 2e96 8091 0000 		lds r24,switchtype
 6570 2e9a 8230      		cpi r24,lo8(2)
 6571 2e9c 01F0      		breq .+2
 6572 2e9e 00C0      		rjmp .L312
 6573               	.L317:
 6574               	.LM718:
 6575 2ea0 8091 0000 		lds r24,curMenu
 6576 2ea4 9091 0000 		lds r25,(curMenu)+1
 6577 2ea8 2091 0000 		lds r18,curItem
 6578 2eac 3091 0000 		lds r19,(curItem)+1
 6579 2eb0 DC01      		movw r26,r24
 6580 2eb2 AA0F      		lsl r26
 6581 2eb4 BB1F      		rol r27
 6582 2eb6 AA0F      		lsl r26
 6583 2eb8 BB1F      		rol r27
 6584 2eba AA0F      		lsl r26
 6585 2ebc BB1F      		rol r27
 6586 2ebe A81B      		sub r26,r24
 6587 2ec0 B90B      		sbc r27,r25
 6588 2ec2 A20F      		add r26,r18
 6589 2ec4 B31F      		adc r27,r19
 6590 2ec6 AA0F      		lsl r26
 6591 2ec8 BB1F      		rol r27
 6592 2eca FD01      		movw r30,r26
 6593 2ecc E050      		subi r30,lo8(-(menuactn))
 6594 2ece F040      		sbci r31,hi8(-(menuactn))
 6595 2ed0 0190      		ld __tmp_reg__,Z+
 6596 2ed2 F081      		ld r31,Z
 6597 2ed4 E02D      		mov r30,__tmp_reg__
 6598 2ed6 3097      		sbiw r30,0
 6599 2ed8 01F4      		brne .+2
 6600 2eda 00C0      		rjmp .L287
 6601               	.LM719:
 6602 2edc E730      		cpi r30,7
 6603 2ede F105      		cpc r31,__zero_reg__
 6604 2ee0 01F4      		brne .+2
 6605 2ee2 00C0      		rjmp .L295
 6606 2ee4 E830      		cpi r30,8
 6607 2ee6 F105      		cpc r31,__zero_reg__
 6608 2ee8 04F0      		brlt .+2
 6609 2eea 00C0      		rjmp .L302
 6610 2eec E330      		cpi r30,3
 6611 2eee F105      		cpc r31,__zero_reg__
 6612 2ef0 01F4      		brne .+2
 6613 2ef2 00C0      		rjmp .L291
 6614 2ef4 E430      		cpi r30,4
 6615 2ef6 F105      		cpc r31,__zero_reg__
 6616 2ef8 04F0      		brlt .+2
 6617 2efa 00C0      		rjmp .L303
 6618 2efc E130      		cpi r30,1
 6619 2efe F105      		cpc r31,__zero_reg__
 6620 2f00 01F4      		brne .+2
 6621 2f02 00C0      		rjmp .L289
 6622 2f04 3297      		sbiw r30,2
 6623 2f06 01F4      		brne .L316
 6624               	.LM720:
 6625 2f08 8091 0000 		lds r24,tp+12
 6626 2f0c 9091 0000 		lds r25,(tp+12)+1
 6627 2f10 61E0      		ldi r22,lo8(1)
 6628 2f12 0E94 0000 		call chEvtSignalI
 6629               	.L316:
 6630               	.LM721:
 6631 2f16 1092 0000 		sts (menuCount)+1,__zero_reg__
 6632 2f1a 1092 0000 		sts menuCount,__zero_reg__
 6633               	.LM722:
 6634 2f1e D093 0000 		sts (updateFlag)+1,r29
 6635 2f22 C093 0000 		sts updateFlag,r28
 6636 2f26 00C0      		rjmp .L312
 6637               	.L281:
 6638               	.LM723:
 6639 2f28 8091 0000 		lds r24,cursorCount
 6640 2f2c 9091 0000 		lds r25,(cursorCount)+1
 6641 2f30 0797      		sbiw r24,7
 6642 2f32 04F4      		brge .+2
 6643 2f34 00C0      		rjmp .L318
 6644               	.LM724:
 6645 2f36 2091 0000 		lds r18,pageScroll
 6646 2f3a 3091 0000 		lds r19,(pageScroll)+1
 6647 2f3e 2F5F      		subi r18,lo8(-(1))
 6648 2f40 3F4F      		sbci r19,hi8(-(1))
 6649 2f42 3093 0000 		sts (pageScroll)+1,r19
 6650 2f46 2093 0000 		sts pageScroll,r18
 6651               	.LM725:
 6652 2f4a 1092 0000 		sts (cursorCount)+1,__zero_reg__
 6653 2f4e 1092 0000 		sts cursorCount,__zero_reg__
 6654 2f52 00C0      		rjmp .L282
 6655               	.L284:
 6656               	.LM726:
 6657 2f54 4730      		cpi r20,7
 6658 2f56 5105      		cpc r21,__zero_reg__
 6659 2f58 04F4      		brge .+2
 6660 2f5a 00C0      		rjmp .L319
 6661               	.LM727:
 6662 2f5c 2091 0000 		lds r18,pageScroll
 6663 2f60 3091 0000 		lds r19,(pageScroll)+1
 6664 2f64 2F5F      		subi r18,lo8(-(1))
 6665 2f66 3F4F      		sbci r19,hi8(-(1))
 6666 2f68 3093 0000 		sts (pageScroll)+1,r19
 6667 2f6c 2093 0000 		sts pageScroll,r18
 6668               	.LM728:
 6669 2f70 1092 0000 		sts (cursorCount)+1,__zero_reg__
 6670 2f74 1092 0000 		sts cursorCount,__zero_reg__
 6671 2f78 00C0      		rjmp .L285
 6672               	.L287:
 6673               	.LM729:
 6674 2f7a A050      		subi r26,lo8(-(menulink))
 6675 2f7c B040      		sbci r27,hi8(-(menulink))
 6676 2f7e 8D91      		ld r24,X+
 6677 2f80 9C91      		ld r25,X
 6678 2f82 9093 0000 		sts (curMenu)+1,r25
 6679 2f86 8093 0000 		sts curMenu,r24
 6680               	.LM730:
 6681 2f8a 1092 0000 		sts (curItem)+1,__zero_reg__
 6682 2f8e 1092 0000 		sts curItem,__zero_reg__
 6683               	.LM731:
 6684 2f92 1092 0000 		sts (pageScroll)+1,__zero_reg__
 6685 2f96 1092 0000 		sts pageScroll,__zero_reg__
 6686               	.LM732:
 6687 2f9a 1092 0000 		sts (cursorCount)+1,__zero_reg__
 6688 2f9e 1092 0000 		sts cursorCount,__zero_reg__
 6689 2fa2 00C0      		rjmp .L316
 6690               	.L302:
 6691               	.LM733:
 6692 2fa4 EA30      		cpi r30,10
 6693 2fa6 F105      		cpc r31,__zero_reg__
 6694 2fa8 01F4      		brne .+2
 6695 2faa 00C0      		rjmp .L298
 6696 2fac EB30      		cpi r30,11
 6697 2fae F105      		cpc r31,__zero_reg__
 6698 2fb0 04F4      		brge .L304
 6699 2fb2 E830      		cpi r30,8
 6700 2fb4 F105      		cpc r31,__zero_reg__
 6701 2fb6 01F4      		brne .+2
 6702 2fb8 00C0      		rjmp .L296
 6703 2fba 3997      		sbiw r30,9
 6704 2fbc 01F0      		breq .+2
 6705 2fbe 00C0      		rjmp .L316
 6706               	.LBB225:
 6707               	.LBB226:
 6708               	.LM734:
 6709               	/* #APP */
 6710               	 ;  319 ".//os/nil/ports/AVR/nilcore.h" 1
 6711 2fc0 F894      		cli
 6712               	 ;  0 "" 2
 6713               	/* #NOAPP */
 6714               	.LBE226:
 6715               	.LBE225:
 6716               	.LM735:
 6717 2fc2 80E0      		ldi r24,lo8(trp+18)
 6718 2fc4 90E0      		ldi r25,hi8(trp+18)
 6719 2fc6 61E0      		ldi r22,lo8(1)
 6720 2fc8 70E0      		ldi r23,hi8(1)
 6721 2fca 0E94 0000 		call chThdResumeI
 6722               	.LBB227:
 6723               	.LBB228:
 6724               	.LM736:
 6725               	/* #APP */
 6726               	 ;  327 ".//os/nil/ports/AVR/nilcore.h" 1
 6727 2fce 7894      		sei
 6728               	 ;  0 "" 2
 6729               	/* #NOAPP */
 6730 2fd0 00C0      		rjmp .L316
 6731               	.L304:
 6732               	.LBE228:
 6733               	.LBE227:
 6734               	.LM737:
 6735 2fd2 EC30      		cpi r30,12
 6736 2fd4 F105      		cpc r31,__zero_reg__
 6737 2fd6 01F4      		brne .+2
 6738 2fd8 00C0      		rjmp .L300
 6739 2fda EC30      		cpi r30,12
 6740 2fdc F105      		cpc r31,__zero_reg__
 6741 2fde 04F4      		brge .+2
 6742 2fe0 00C0      		rjmp .L299
 6743 2fe2 E75E      		subi r30,lo8(999)
 6744 2fe4 F340      		sbci r31,hi8(999)
 6745 2fe6 01F0      		breq .+2
 6746 2fe8 00C0      		rjmp .L316
 6747               	.LM738:
 6748 2fea 1092 0000 		sts (curMenu)+1,__zero_reg__
 6749 2fee 1092 0000 		sts curMenu,__zero_reg__
 6750               	.LM739:
 6751 2ff2 1092 0000 		sts (curItem)+1,__zero_reg__
 6752 2ff6 1092 0000 		sts curItem,__zero_reg__
 6753               	.LM740:
 6754 2ffa 1092 0000 		sts (pageScroll)+1,__zero_reg__
 6755 2ffe 1092 0000 		sts pageScroll,__zero_reg__
 6756               	.LM741:
 6757 3002 1092 0000 		sts (cursorCount)+1,__zero_reg__
 6758 3006 1092 0000 		sts cursorCount,__zero_reg__
 6759 300a 00C0      		rjmp .L316
 6760               	.L303:
 6761               	.LM742:
 6762 300c E530      		cpi r30,5
 6763 300e F105      		cpc r31,__zero_reg__
 6764 3010 01F0      		breq .L293
 6765 3012 3697      		sbiw r30,6
 6766 3014 04F0      		brlt .L320
 6767               	.LM743:
 6768 3016 8091 0000 		lds r24,thread_internal_started+8
 6769               	.LM744:
 6770 301a 8091 0000 		lds r24,tp+16
 6771 301e 9091 0000 		lds r25,(tp+16)+1
 6772 3022 61E0      		ldi r22,lo8(1)
 6773 3024 0E94 0000 		call chEvtSignalI
 6774 3028 00C0      		rjmp .L316
 6775               	.L289:
 6776               	.LBB229:
 6777               	.LBB230:
 6778               	.LM745:
 6779               	/* #APP */
 6780               	 ;  319 ".//os/nil/ports/AVR/nilcore.h" 1
 6781 302a F894      		cli
 6782               	 ;  0 "" 2
 6783               	/* #NOAPP */
 6784               	.LBE230:
 6785               	.LBE229:
 6786               	.LM746:
 6787 302c 80E0      		ldi r24,lo8(trp+10)
 6788 302e 90E0      		ldi r25,hi8(trp+10)
 6789 3030 65E5      		ldi r22,lo8(85)
 6790 3032 70E0      		ldi r23,hi8(85)
 6791 3034 0E94 0000 		call chThdResumeI
 6792               	.LBB231:
 6793               	.LBB232:
 6794               	.LM747:
 6795               	/* #APP */
 6796               	 ;  327 ".//os/nil/ports/AVR/nilcore.h" 1
 6797 3038 7894      		sei
 6798               	 ;  0 "" 2
 6799               	/* #NOAPP */
 6800 303a 00C0      		rjmp .L316
 6801               	.L320:
 6802               	.LBE232:
 6803               	.LBE231:
 6804               	.LM748:
 6805 303c 8091 0000 		lds r24,tp+6
 6806 3040 9091 0000 		lds r25,(tp+6)+1
 6807 3044 61E0      		ldi r22,lo8(1)
 6808 3046 0E94 0000 		call chEvtSignalI
 6809 304a 00C0      		rjmp .L316
 6810               	.L293:
 6811               	.LM749:
 6812 304c 8091 0000 		lds r24,tp+8
 6813 3050 9091 0000 		lds r25,(tp+8)+1
 6814 3054 61E0      		ldi r22,lo8(1)
 6815 3056 0E94 0000 		call chEvtSignalI
 6816 305a 00C0      		rjmp .L316
 6817               	.L299:
 6818               	.LM750:
 6819 305c 8091 0000 		lds r24,tp+22
 6820 3060 9091 0000 		lds r25,(tp+22)+1
 6821 3064 61E0      		ldi r22,lo8(1)
 6822 3066 0E94 0000 		call chEvtSignalI
 6823 306a 00C0      		rjmp .L316
 6824               	.L300:
 6825               	.LM751:
 6826 306c 8091 0000 		lds r24,tp+26
 6827 3070 9091 0000 		lds r25,(tp+26)+1
 6828 3074 61E0      		ldi r22,lo8(1)
 6829 3076 0E94 0000 		call chEvtSignalI
 6830 307a 00C0      		rjmp .L316
 6831               	.L295:
 6832               	.LBB233:
 6833               	.LBB234:
 6834               	.LM752:
 6835               	/* #APP */
 6836               	 ;  319 ".//os/nil/ports/AVR/nilcore.h" 1
 6837 307c F894      		cli
 6838               	 ;  0 "" 2
 6839               	/* #NOAPP */
 6840               	.LBE234:
 6841               	.LBE233:
 6842               	.LM753:
 6843 307e 80E0      		ldi r24,lo8(trp+4)
 6844 3080 90E0      		ldi r25,hi8(trp+4)
 6845 3082 61E0      		ldi r22,lo8(1)
 6846 3084 70E0      		ldi r23,hi8(1)
 6847 3086 0E94 0000 		call chThdResumeI
 6848               	.LBB235:
 6849               	.LBB236:
 6850               	.LM754:
 6851               	/* #APP */
 6852               	 ;  327 ".//os/nil/ports/AVR/nilcore.h" 1
 6853 308a 7894      		sei
 6854               	 ;  0 "" 2
 6855               	/* #NOAPP */
 6856 308c 00C0      		rjmp .L316
 6857               	.L291:
 6858               	.LBE236:
 6859               	.LBE235:
 6860               	.LM755:
 6861 308e 8091 0000 		lds r24,tp+14
 6862 3092 9091 0000 		lds r25,(tp+14)+1
 6863 3096 61E0      		ldi r22,lo8(1)
 6864 3098 0E94 0000 		call chEvtSignalI
 6865 309c 00C0      		rjmp .L316
 6866               	.L296:
 6867               	.LBB237:
 6868               	.LBB238:
 6869               	.LM756:
 6870               	/* #APP */
 6871               	 ;  319 ".//os/nil/ports/AVR/nilcore.h" 1
 6872 309e F894      		cli
 6873               	 ;  0 "" 2
 6874               	/* #NOAPP */
 6875               	.LBE238:
 6876               	.LBE237:
 6877               	.LM757:
 6878 30a0 80E0      		ldi r24,lo8(trp+4)
 6879 30a2 90E0      		ldi r25,hi8(trp+4)
 6880 30a4 62E0      		ldi r22,lo8(2)
 6881 30a6 70E0      		ldi r23,hi8(2)
 6882 30a8 0E94 0000 		call chThdResumeI
 6883               	.LBB239:
 6884               	.LBB240:
 6885               	.LM758:
 6886               	/* #APP */
 6887               	 ;  327 ".//os/nil/ports/AVR/nilcore.h" 1
 6888 30ac 7894      		sei
 6889               	 ;  0 "" 2
 6890               	/* #NOAPP */
 6891 30ae 00C0      		rjmp .L316
 6892               	.L298:
 6893               	.LBE240:
 6894               	.LBE239:
 6895               	.LBB241:
 6896               	.LBB242:
 6897               	.LM759:
 6898               	/* #APP */
 6899               	 ;  319 ".//os/nil/ports/AVR/nilcore.h" 1
 6900 30b0 F894      		cli
 6901               	 ;  0 "" 2
 6902               	/* #NOAPP */
 6903               	.LBE242:
 6904               	.LBE241:
 6905               	.LM760:
 6906 30b2 80E0      		ldi r24,lo8(trp+20)
 6907 30b4 90E0      		ldi r25,hi8(trp+20)
 6908 30b6 61E0      		ldi r22,lo8(1)
 6909 30b8 70E0      		ldi r23,hi8(1)
 6910 30ba 0E94 0000 		call chThdResumeI
 6911               	.LBB243:
 6912               	.LBB244:
 6913               	.LM761:
 6914               	/* #APP */
 6915               	 ;  327 ".//os/nil/ports/AVR/nilcore.h" 1
 6916 30be 7894      		sei
 6917               	 ;  0 "" 2
 6918               	/* #NOAPP */
 6919 30c0 00C0      		rjmp .L316
 6920               	.L318:
 6921 30c2 2091 0000 		lds r18,pageScroll
 6922 30c6 3091 0000 		lds r19,(pageScroll)+1
 6923 30ca 00C0      		rjmp .L282
 6924               	.L319:
 6925 30cc 2091 0000 		lds r18,pageScroll
 6926 30d0 3091 0000 		lds r19,(pageScroll)+1
 6927 30d4 00C0      		rjmp .L285
 6928               	.LBE244:
 6929               	.LBE243:
 6930               	.LFE83:
 6932               	.global	read32
 6934               	read32:
 6935               	.LFB67:
 6936               	.LM762:
 6937               	.LVL60:
 6938 30d6 AF92      		push r10
 6939 30d8 BF92      		push r11
 6940 30da CF92      		push r12
 6941 30dc DF92      		push r13
 6942 30de EF92      		push r14
 6943 30e0 FF92      		push r15
 6944 30e2 0F93      		push r16
 6945 30e4 1F93      		push r17
 6946 30e6 DF93      		push r29
 6947 30e8 CF93      		push r28
 6948 30ea CDB7      		in r28,__SP_L__
 6949 30ec DEB7      		in r29,__SP_H__
 6950 30ee 2797      		sbiw r28,7
 6951 30f0 0FB6      		in __tmp_reg__,__SREG__
 6952 30f2 F894      		cli
 6953 30f4 DEBF      		out __SP_H__,r29
 6954 30f6 0FBE      		out __SREG__,__tmp_reg__
 6955 30f8 CDBF      		out __SP_L__,r28
 6956               	/* prologue: function */
 6957               	/* frame size = 7 */
 6958 30fa 7C01      		movw r14,r24
 6959               	.LM763:
 6960 30fc 92E0      		ldi r25,lo8(2)
 6961 30fe C92E      		mov r12,r25
 6962 3100 D12C      		mov r13,__zero_reg__
 6963 3102 CC0E      		add r12,r28
 6964 3104 DD1E      		adc r13,r29
 6965 3106 C701      		movw r24,r14
 6966               	.LVL61:
 6967 3108 8E01      		movw r16,r28
 6968 310a 0F5F      		subi r16,lo8(-(1))
 6969 310c 1F4F      		sbci r17,hi8(-(1))
 6970 310e B801      		movw r22,r16
 6971 3110 41E0      		ldi r20,lo8(1)
 6972 3112 50E0      		ldi r21,hi8(1)
 6973 3114 9601      		movw r18,r12
 6974 3116 0E94 0000 		call f_read
 6975               	.LM764:
 6976 311a 84E0      		ldi r24,lo8(4)
 6977 311c A82E      		mov r10,r24
 6978 311e B12C      		mov r11,__zero_reg__
 6979 3120 AC0E      		add r10,r28
 6980 3122 BD1E      		adc r11,r29
 6981 3124 8981      		ldd r24,Y+1
 6982               	.LVL62:
 6983 3126 8C83      		std Y+4,r24
 6984               	.LM765:
 6985 3128 C701      		movw r24,r14
 6986 312a B801      		movw r22,r16
 6987 312c 41E0      		ldi r20,lo8(1)
 6988 312e 50E0      		ldi r21,hi8(1)
 6989 3130 9601      		movw r18,r12
 6990 3132 0E94 0000 		call f_read
 6991               	.LM766:
 6992 3136 8981      		ldd r24,Y+1
 6993 3138 F501      		movw r30,r10
 6994 313a 8183      		std Z+1,r24
 6995               	.LM767:
 6996 313c C701      		movw r24,r14
 6997 313e B801      		movw r22,r16
 6998 3140 41E0      		ldi r20,lo8(1)
 6999 3142 50E0      		ldi r21,hi8(1)
 7000 3144 9601      		movw r18,r12
 7001 3146 0E94 0000 		call f_read
 7002               	.LM768:
 7003 314a 8981      		ldd r24,Y+1
 7004 314c F501      		movw r30,r10
 7005 314e 8283      		std Z+2,r24
 7006               	.LM769:
 7007 3150 C701      		movw r24,r14
 7008 3152 B801      		movw r22,r16
 7009 3154 41E0      		ldi r20,lo8(1)
 7010 3156 50E0      		ldi r21,hi8(1)
 7011 3158 9601      		movw r18,r12
 7012 315a 0E94 0000 		call f_read
 7013               	.LM770:
 7014 315e 6C81      		ldd r22,Y+4
 7015               	.LVL63:
 7016 3160 7D81      		ldd r23,Y+5
 7017               	.LVL64:
 7018               	.LM771:
 7019 3162 8E81      		ldd r24,Y+6
 7020               	.LVL65:
 7021 3164 9981      		ldd r25,Y+1
 7022               	/* epilogue start */
 7023 3166 2796      		adiw r28,7
 7024 3168 0FB6      		in __tmp_reg__,__SREG__
 7025 316a F894      		cli
 7026 316c DEBF      		out __SP_H__,r29
 7027 316e 0FBE      		out __SREG__,__tmp_reg__
 7028 3170 CDBF      		out __SP_L__,r28
 7029 3172 CF91      		pop r28
 7030 3174 DF91      		pop r29
 7031 3176 1F91      		pop r17
 7032 3178 0F91      		pop r16
 7033 317a FF90      		pop r15
 7034 317c EF90      		pop r14
 7035               	.LVL66:
 7036 317e DF90      		pop r13
 7037 3180 CF90      		pop r12
 7038 3182 BF90      		pop r11
 7039 3184 AF90      		pop r10
 7040 3186 0895      		ret
 7041               	.LFE67:
 7043               	.global	read16
 7045               	read16:
 7046               	.LFB66:
 7047               	.LM772:
 7048               	.LVL67:
 7049 3188 CF92      		push r12
 7050 318a DF92      		push r13
 7051 318c EF92      		push r14
 7052 318e FF92      		push r15
 7053 3190 0F93      		push r16
 7054 3192 1F93      		push r17
 7055 3194 DF93      		push r29
 7056 3196 CF93      		push r28
 7057 3198 00D0      		rcall .
 7058 319a 00D0      		rcall .
 7059 319c 0F92      		push __tmp_reg__
 7060 319e CDB7      		in r28,__SP_L__
 7061 31a0 DEB7      		in r29,__SP_H__
 7062               	/* prologue: function */
 7063               	/* frame size = 5 */
 7064 31a2 7C01      		movw r14,r24
 7065               	.LM773:
 7066 31a4 24E0      		ldi r18,lo8(4)
 7067 31a6 C22E      		mov r12,r18
 7068 31a8 D12C      		mov r13,__zero_reg__
 7069 31aa CC0E      		add r12,r28
 7070 31ac DD1E      		adc r13,r29
 7071 31ae 8E01      		movw r16,r28
 7072 31b0 0F5F      		subi r16,lo8(-(1))
 7073 31b2 1F4F      		sbci r17,hi8(-(1))
 7074 31b4 B801      		movw r22,r16
 7075 31b6 41E0      		ldi r20,lo8(1)
 7076 31b8 50E0      		ldi r21,hi8(1)
 7077 31ba 9601      		movw r18,r12
 7078 31bc 0E94 0000 		call f_read
 7079               	.LVL68:
 7080               	.LM774:
 7081 31c0 8981      		ldd r24,Y+1
 7082               	.LVL69:
 7083 31c2 8A83      		std Y+2,r24
 7084               	.LM775:
 7085 31c4 C701      		movw r24,r14
 7086 31c6 B801      		movw r22,r16
 7087 31c8 41E0      		ldi r20,lo8(1)
 7088 31ca 50E0      		ldi r21,hi8(1)
 7089 31cc 9601      		movw r18,r12
 7090 31ce 0E94 0000 		call f_read
 7091               	.LM776:
 7092 31d2 8A81      		ldd r24,Y+2
 7093               	.LVL70:
 7094 31d4 9981      		ldd r25,Y+1
 7095               	/* epilogue start */
 7096 31d6 0F90      		pop __tmp_reg__
 7097 31d8 0F90      		pop __tmp_reg__
 7098 31da 0F90      		pop __tmp_reg__
 7099 31dc 0F90      		pop __tmp_reg__
 7100 31de 0F90      		pop __tmp_reg__
 7101 31e0 CF91      		pop r28
 7102 31e2 DF91      		pop r29
 7103 31e4 1F91      		pop r17
 7104 31e6 0F91      		pop r16
 7105 31e8 FF90      		pop r15
 7106 31ea EF90      		pop r14
 7107               	.LVL71:
 7108 31ec DF90      		pop r13
 7109 31ee CF90      		pop r12
 7110 31f0 0895      		ret
 7111               	.LFE66:
 7113               	.global	bmpDraw
 7115               	bmpDraw:
 7116               	.LFB68:
 7117               	.LM777:
 7118               	.LVL72:
 7119 31f2 2F92      		push r2
 7120 31f4 3F92      		push r3
 7121 31f6 4F92      		push r4
 7122 31f8 5F92      		push r5
 7123 31fa 6F92      		push r6
 7124 31fc 7F92      		push r7
 7125 31fe 8F92      		push r8
 7126 3200 9F92      		push r9
 7127 3202 AF92      		push r10
 7128 3204 BF92      		push r11
 7129 3206 CF92      		push r12
 7130 3208 DF92      		push r13
 7131 320a EF92      		push r14
 7132 320c FF92      		push r15
 7133 320e 0F93      		push r16
 7134 3210 1F93      		push r17
 7135 3212 DF93      		push r29
 7136 3214 CF93      		push r28
 7137 3216 CDB7      		in r28,__SP_L__
 7138 3218 DEB7      		in r29,__SP_H__
 7139 321a C05B      		subi r28,lo8(-(-176))
 7140 321c D040      		sbci r29,hi8(-(-176))
 7141 321e 0FB6      		in __tmp_reg__,__SREG__
 7142 3220 F894      		cli
 7143 3222 DEBF      		out __SP_H__,r29
 7144 3224 0FBE      		out __SREG__,__tmp_reg__
 7145 3226 CDBF      		out __SP_L__,r28
 7146               	/* prologue: function */
 7147               	/* frame size = 176 */
 7148 3228 8C01      		movw r16,r24
 7149 322a E62E      		mov r14,r22
 7150 322c C42E      		mov r12,r20
 7151               	.LM778:
 7152 322e 8091 0000 		lds r24,st7735_width
 7153               	.LVL73:
 7154 3232 6817      		cp r22,r24
 7155 3234 00F4      		brsh .L326
 7156               	.LVL74:
 7157 3236 8091 0000 		lds r24,st7735_height
 7158 323a 4817      		cp r20,r24
 7159 323c 00F0      		brlo .L327
 7160               	.L326:
 7161               	.LM779:
 7162 323e 80E0      		ldi r24,lo8(__c.3457)
 7163 3240 90E0      		ldi r25,hi8(__c.3457)
 7164 3242 0E94 0000 		call xputs
 7165               	.LVL75:
 7166               	.L347:
 7167               	/* epilogue start */
 7168               	.LM780:
 7169 3246 C055      		subi r28,lo8(-(176))
 7170 3248 DF4F      		sbci r29,hi8(-(176))
 7171 324a 0FB6      		in __tmp_reg__,__SREG__
 7172 324c F894      		cli
 7173 324e DEBF      		out __SP_H__,r29
 7174 3250 0FBE      		out __SREG__,__tmp_reg__
 7175 3252 CDBF      		out __SP_L__,r28
 7176 3254 CF91      		pop r28
 7177 3256 DF91      		pop r29
 7178 3258 1F91      		pop r17
 7179               	.LVL76:
 7180 325a 0F91      		pop r16
 7181               	.LVL77:
 7182 325c FF90      		pop r15
 7183               	.LVL78:
 7184 325e EF90      		pop r14
 7185               	.LVL79:
 7186 3260 DF90      		pop r13
 7187 3262 CF90      		pop r12
 7188               	.LVL80:
 7189 3264 BF90      		pop r11
 7190 3266 AF90      		pop r10
 7191               	.LVL81:
 7192 3268 9F90      		pop r9
 7193               	.LVL82:
 7194 326a 8F90      		pop r8
 7195               	.LVL83:
 7196 326c 7F90      		pop r7
 7197 326e 6F90      		pop r6
 7198 3270 5F90      		pop r5
 7199 3272 4F90      		pop r4
 7200 3274 3F90      		pop r3
 7201               	.LVL84:
 7202 3276 2F90      		pop r2
 7203               	.LVL85:
 7204 3278 0895      		ret
 7205               	.LVL86:
 7206               	.L327:
 7207               	.LM781:
 7208 327a 80E0      		ldi r24,lo8(__c.3459)
 7209 327c 90E0      		ldi r25,hi8(__c.3459)
 7210 327e 0E94 0000 		call xputs
 7211               	.LVL87:
 7212               	.LM782:
 7213 3282 80E0      		ldi r24,lo8(spiUSE)
 7214 3284 90E0      		ldi r25,hi8(spiUSE)
 7215 3286 40E0      		ldi r20,lo8(0)
 7216 3288 50E0      		ldi r21,hi8(0)
 7217 328a 60E0      		ldi r22,hlo8(0)
 7218 328c 70E0      		ldi r23,hhi8(0)
 7219 328e 0E94 0000 		call chSemWaitTimeout
 7220               	.LM783:
 7221 3292 CE01      		movw r24,r28
 7222 3294 0396      		adiw r24,3
 7223 3296 B801      		movw r22,r16
 7224 3298 41E0      		ldi r20,lo8(1)
 7225 329a 0E94 0000 		call f_open
 7226 329e 8823      		tst r24
 7227 32a0 01F4      		brne .L350
 7228               	.LM784:
 7229 32a2 80E0      		ldi r24,lo8(spiUSE)
 7230 32a4 90E0      		ldi r25,hi8(spiUSE)
 7231 32a6 0E94 0000 		call chSemSignal
 7232               	.LM785:
 7233 32aa 80E0      		ldi r24,lo8(spiUSE)
 7234 32ac 90E0      		ldi r25,hi8(spiUSE)
 7235 32ae 40E0      		ldi r20,lo8(0)
 7236 32b0 50E0      		ldi r21,hi8(0)
 7237 32b2 60E0      		ldi r22,hlo8(0)
 7238 32b4 70E0      		ldi r23,hhi8(0)
 7239 32b6 0E94 0000 		call chSemWaitTimeout
 7240               	.LM786:
 7241 32ba CE01      		movw r24,r28
 7242 32bc 0396      		adiw r24,3
 7243 32be 0E94 0000 		call read16
 7244 32c2 8254      		subi r24,lo8(19778)
 7245 32c4 9D44      		sbci r25,hi8(19778)
 7246 32c6 01F0      		breq .L330
 7247               	.LM787:
 7248 32c8 80E0      		ldi r24,lo8(__c.3463)
 7249 32ca 90E0      		ldi r25,hi8(__c.3463)
 7250 32cc 0E94 0000 		call xputs
 7251               	.LM788:
 7252 32d0 80E0      		ldi r24,lo8(spiUSE)
 7253 32d2 90E0      		ldi r25,hi8(spiUSE)
 7254 32d4 0E94 0000 		call chSemSignal
 7255 32d8 00C0      		rjmp .L347
 7256               	.L350:
 7257               	.LM789:
 7258 32da 80E0      		ldi r24,lo8(__c.3461)
 7259 32dc 90E0      		ldi r25,hi8(__c.3461)
 7260 32de 0E94 0000 		call xputs
 7261               	.LM790:
 7262 32e2 80E0      		ldi r24,lo8(spiUSE)
 7263 32e4 90E0      		ldi r25,hi8(spiUSE)
 7264 32e6 0E94 0000 		call chSemSignal
 7265 32ea 00C0      		rjmp .L347
 7266               	.L330:
 7267               	.LM791:
 7268 32ec 80E0      		ldi r24,lo8(spiUSE)
 7269 32ee 90E0      		ldi r25,hi8(spiUSE)
 7270 32f0 0E94 0000 		call chSemSignal
 7271               	.LM792:
 7272 32f4 80E0      		ldi r24,lo8(spiUSE)
 7273 32f6 90E0      		ldi r25,hi8(spiUSE)
 7274 32f8 40E0      		ldi r20,lo8(0)
 7275 32fa 50E0      		ldi r21,hi8(0)
 7276 32fc 60E0      		ldi r22,hlo8(0)
 7277 32fe 70E0      		ldi r23,hhi8(0)
 7278 3300 0E94 0000 		call chSemWaitTimeout
 7279               	.LM793:
 7280 3304 CE01      		movw r24,r28
 7281 3306 0396      		adiw r24,3
 7282 3308 0E94 0000 		call read32
 7283 330c 00D0      		rcall .
 7284 330e 00D0      		rcall .
 7285 3310 00D0      		rcall .
 7286 3312 20E0      		ldi r18,lo8(__c.3465)
 7287 3314 30E0      		ldi r19,hi8(__c.3465)
 7288 3316 ADB7      		in r26,__SP_L__
 7289 3318 BEB7      		in r27,__SP_H__
 7290 331a 1296      		adiw r26,1+1
 7291 331c 3C93      		st X,r19
 7292 331e 2E93      		st -X,r18
 7293 3320 1197      		sbiw r26,1
 7294 3322 EDB7      		in r30,__SP_L__
 7295 3324 FEB7      		in r31,__SP_H__
 7296 3326 6383      		std Z+3,r22
 7297 3328 7483      		std Z+4,r23
 7298 332a 8583      		std Z+5,r24
 7299 332c 9683      		std Z+6,r25
 7300 332e 0E94 0000 		call xprintf
 7301               	.LM794:
 7302 3332 2DB7      		in r18,__SP_L__
 7303 3334 3EB7      		in r19,__SP_H__
 7304 3336 2A5F      		subi r18,lo8(-(6))
 7305 3338 3F4F      		sbci r19,hi8(-(6))
 7306 333a 0FB6      		in __tmp_reg__,__SREG__
 7307 333c F894      		cli
 7308 333e 3EBF      		out __SP_H__,r19
 7309 3340 0FBE      		out __SREG__,__tmp_reg__
 7310 3342 2DBF      		out __SP_L__,r18
 7311 3344 80E0      		ldi r24,lo8(spiUSE)
 7312 3346 90E0      		ldi r25,hi8(spiUSE)
 7313 3348 0E94 0000 		call chSemSignal
 7314               	.LM795:
 7315 334c 80E0      		ldi r24,lo8(spiUSE)
 7316 334e 90E0      		ldi r25,hi8(spiUSE)
 7317 3350 40E0      		ldi r20,lo8(0)
 7318 3352 50E0      		ldi r21,hi8(0)
 7319 3354 60E0      		ldi r22,hlo8(0)
 7320 3356 70E0      		ldi r23,hhi8(0)
 7321 3358 0E94 0000 		call chSemWaitTimeout
 7322               	.LM796:
 7323 335c CE01      		movw r24,r28
 7324 335e 0396      		adiw r24,3
 7325 3360 0E94 0000 		call read32
 7326               	.LM797:
 7327 3364 80E0      		ldi r24,lo8(spiUSE)
 7328 3366 90E0      		ldi r25,hi8(spiUSE)
 7329 3368 0E94 0000 		call chSemSignal
 7330               	.LM798:
 7331 336c 80E0      		ldi r24,lo8(spiUSE)
 7332 336e 90E0      		ldi r25,hi8(spiUSE)
 7333 3370 40E0      		ldi r20,lo8(0)
 7334 3372 50E0      		ldi r21,hi8(0)
 7335 3374 60E0      		ldi r22,hlo8(0)
 7336 3376 70E0      		ldi r23,hhi8(0)
 7337 3378 0E94 0000 		call chSemWaitTimeout
 7338               	.LM799:
 7339 337c CE01      		movw r24,r28
 7340 337e 0396      		adiw r24,3
 7341 3380 0E94 0000 		call read32
 7342 3384 C755      		subi r28,lo8(-169)
 7343 3386 DF4F      		sbci r29,hi8(-169)
 7344 3388 6883      		st Y,r22
 7345 338a 7983      		std Y+1,r23
 7346 338c 8A83      		std Y+2,r24
 7347 338e 9B83      		std Y+3,r25
 7348 3390 C95A      		subi r28,lo8(169)
 7349 3392 D040      		sbci r29,hi8(169)
 7350               	.LVL88:
 7351               	.LM800:
 7352 3394 80E0      		ldi r24,lo8(spiUSE)
 7353 3396 90E0      		ldi r25,hi8(spiUSE)
 7354 3398 0E94 0000 		call chSemSignal
 7355               	.LM801:
 7356 339c 00D0      		rcall .
 7357 339e 00D0      		rcall .
 7358 33a0 00D0      		rcall .
 7359 33a2 80E0      		ldi r24,lo8(__c.3467)
 7360 33a4 90E0      		ldi r25,hi8(__c.3467)
 7361 33a6 ADB7      		in r26,__SP_L__
 7362 33a8 BEB7      		in r27,__SP_H__
 7363 33aa 1296      		adiw r26,1+1
 7364 33ac 9C93      		st X,r25
 7365 33ae 8E93      		st -X,r24
 7366 33b0 1197      		sbiw r26,1
 7367 33b2 C755      		subi r28,lo8(-169)
 7368 33b4 DF4F      		sbci r29,hi8(-169)
 7369 33b6 2881      		ld r18,Y
 7370 33b8 3981      		ldd r19,Y+1
 7371 33ba 4A81      		ldd r20,Y+2
 7372 33bc 5B81      		ldd r21,Y+3
 7373 33be C95A      		subi r28,lo8(169)
 7374 33c0 D040      		sbci r29,hi8(169)
 7375 33c2 1396      		adiw r26,3
 7376 33c4 2D93      		st X+,r18
 7377 33c6 3D93      		st X+,r19
 7378 33c8 4D93      		st X+,r20
 7379 33ca 5C93      		st X,r21
 7380 33cc 1697      		sbiw r26,3+3
 7381 33ce 0E94 0000 		call xprintf
 7382               	.LM802:
 7383 33d2 EDB7      		in r30,__SP_L__
 7384 33d4 FEB7      		in r31,__SP_H__
 7385 33d6 3696      		adiw r30,6
 7386 33d8 0FB6      		in __tmp_reg__,__SREG__
 7387 33da F894      		cli
 7388 33dc FEBF      		out __SP_H__,r31
 7389 33de 0FBE      		out __SREG__,__tmp_reg__
 7390 33e0 EDBF      		out __SP_L__,r30
 7391 33e2 80E0      		ldi r24,lo8(spiUSE)
 7392 33e4 90E0      		ldi r25,hi8(spiUSE)
 7393 33e6 40E0      		ldi r20,lo8(0)
 7394 33e8 50E0      		ldi r21,hi8(0)
 7395 33ea 60E0      		ldi r22,hlo8(0)
 7396 33ec 70E0      		ldi r23,hhi8(0)
 7397 33ee 0E94 0000 		call chSemWaitTimeout
 7398               	.LM803:
 7399 33f2 CE01      		movw r24,r28
 7400 33f4 0396      		adiw r24,3
 7401 33f6 0E94 0000 		call read32
 7402 33fa 00D0      		rcall .
 7403 33fc 00D0      		rcall .
 7404 33fe 00D0      		rcall .
 7405 3400 20E0      		ldi r18,lo8(__c.3469)
 7406 3402 30E0      		ldi r19,hi8(__c.3469)
 7407 3404 ADB7      		in r26,__SP_L__
 7408 3406 BEB7      		in r27,__SP_H__
 7409 3408 1296      		adiw r26,1+1
 7410 340a 3C93      		st X,r19
 7411 340c 2E93      		st -X,r18
 7412 340e 1197      		sbiw r26,1
 7413 3410 EDB7      		in r30,__SP_L__
 7414 3412 FEB7      		in r31,__SP_H__
 7415 3414 6383      		std Z+3,r22
 7416 3416 7483      		std Z+4,r23
 7417 3418 8583      		std Z+5,r24
 7418 341a 9683      		std Z+6,r25
 7419 341c 0E94 0000 		call xprintf
 7420               	.LM804:
 7421 3420 2DB7      		in r18,__SP_L__
 7422 3422 3EB7      		in r19,__SP_H__
 7423 3424 2A5F      		subi r18,lo8(-(6))
 7424 3426 3F4F      		sbci r19,hi8(-(6))
 7425 3428 0FB6      		in __tmp_reg__,__SREG__
 7426 342a F894      		cli
 7427 342c 3EBF      		out __SP_H__,r19
 7428 342e 0FBE      		out __SREG__,__tmp_reg__
 7429 3430 2DBF      		out __SP_L__,r18
 7430 3432 80E0      		ldi r24,lo8(spiUSE)
 7431 3434 90E0      		ldi r25,hi8(spiUSE)
 7432 3436 0E94 0000 		call chSemSignal
 7433               	.LM805:
 7434 343a 80E0      		ldi r24,lo8(spiUSE)
 7435 343c 90E0      		ldi r25,hi8(spiUSE)
 7436 343e 40E0      		ldi r20,lo8(0)
 7437 3440 50E0      		ldi r21,hi8(0)
 7438 3442 60E0      		ldi r22,hlo8(0)
 7439 3444 70E0      		ldi r23,hhi8(0)
 7440 3446 0E94 0000 		call chSemWaitTimeout
 7441               	.LM806:
 7442 344a CE01      		movw r24,r28
 7443 344c 0396      		adiw r24,3
 7444 344e 0E94 0000 		call read32
 7445 3452 C355      		subi r28,lo8(-173)
 7446 3454 DF4F      		sbci r29,hi8(-173)
 7447 3456 6883      		st Y,r22
 7448 3458 7983      		std Y+1,r23
 7449 345a 8A83      		std Y+2,r24
 7450 345c 9B83      		std Y+3,r25
 7451 345e CD5A      		subi r28,lo8(173)
 7452 3460 D040      		sbci r29,hi8(173)
 7453               	.LM807:
 7454 3462 80E0      		ldi r24,lo8(spiUSE)
 7455 3464 90E0      		ldi r25,hi8(spiUSE)
 7456 3466 0E94 0000 		call chSemSignal
 7457               	.LM808:
 7458 346a 80E0      		ldi r24,lo8(spiUSE)
 7459 346c 90E0      		ldi r25,hi8(spiUSE)
 7460 346e 40E0      		ldi r20,lo8(0)
 7461 3470 50E0      		ldi r21,hi8(0)
 7462 3472 60E0      		ldi r22,hlo8(0)
 7463 3474 70E0      		ldi r23,hhi8(0)
 7464 3476 0E94 0000 		call chSemWaitTimeout
 7465               	.LM809:
 7466 347a CE01      		movw r24,r28
 7467 347c 0396      		adiw r24,3
 7468 347e 0E94 0000 		call read32
 7469 3482 2B01      		movw r4,r22
 7470 3484 3C01      		movw r6,r24
 7471               	.LM810:
 7472 3486 80E0      		ldi r24,lo8(spiUSE)
 7473 3488 90E0      		ldi r25,hi8(spiUSE)
 7474 348a 0E94 0000 		call chSemSignal
 7475               	.LM811:
 7476 348e 80E0      		ldi r24,lo8(spiUSE)
 7477 3490 90E0      		ldi r25,hi8(spiUSE)
 7478 3492 40E0      		ldi r20,lo8(0)
 7479 3494 50E0      		ldi r21,hi8(0)
 7480 3496 60E0      		ldi r22,hlo8(0)
 7481 3498 70E0      		ldi r23,hhi8(0)
 7482 349a 0E94 0000 		call chSemWaitTimeout
 7483               	.LM812:
 7484 349e CE01      		movw r24,r28
 7485 34a0 0396      		adiw r24,3
 7486 34a2 0E94 0000 		call read16
 7487 34a6 0197      		sbiw r24,1
 7488 34a8 01F0      		breq .L331
 7489               	.LM813:
 7490 34aa 80E0      		ldi r24,lo8(__c.3471)
 7491 34ac 90E0      		ldi r25,hi8(__c.3471)
 7492 34ae 0E94 0000 		call xputs
 7493               	.LM814:
 7494 34b2 80E0      		ldi r24,lo8(spiUSE)
 7495 34b4 90E0      		ldi r25,hi8(spiUSE)
 7496 34b6 0E94 0000 		call chSemSignal
 7497 34ba 00C0      		rjmp .L347
 7498               	.L331:
 7499               	.LM815:
 7500 34bc 80E0      		ldi r24,lo8(spiUSE)
 7501 34be 90E0      		ldi r25,hi8(spiUSE)
 7502 34c0 0E94 0000 		call chSemSignal
 7503               	.LM816:
 7504 34c4 80E0      		ldi r24,lo8(spiUSE)
 7505 34c6 90E0      		ldi r25,hi8(spiUSE)
 7506 34c8 40E0      		ldi r20,lo8(0)
 7507 34ca 50E0      		ldi r21,hi8(0)
 7508 34cc 60E0      		ldi r22,hlo8(0)
 7509 34ce 70E0      		ldi r23,hhi8(0)
 7510 34d0 0E94 0000 		call chSemWaitTimeout
 7511               	.LM817:
 7512 34d4 CE01      		movw r24,r28
 7513 34d6 0396      		adiw r24,3
 7514 34d8 0E94 0000 		call read16
 7515 34dc 182F      		mov r17,r24
 7516               	.LM818:
 7517 34de 80E0      		ldi r24,lo8(spiUSE)
 7518 34e0 90E0      		ldi r25,hi8(spiUSE)
 7519 34e2 0E94 0000 		call chSemSignal
 7520               	.LM819:
 7521 34e6 00D0      		rcall .
 7522 34e8 00D0      		rcall .
 7523 34ea EDB7      		in r30,__SP_L__
 7524 34ec FEB7      		in r31,__SP_H__
 7525 34ee 3196      		adiw r30,1
 7526 34f0 80E0      		ldi r24,lo8(__c.3473)
 7527 34f2 90E0      		ldi r25,hi8(__c.3473)
 7528 34f4 ADB7      		in r26,__SP_L__
 7529 34f6 BEB7      		in r27,__SP_H__
 7530 34f8 1296      		adiw r26,1+1
 7531 34fa 9C93      		st X,r25
 7532 34fc 8E93      		st -X,r24
 7533 34fe 1197      		sbiw r26,1
 7534 3500 1283      		std Z+2,r17
 7535 3502 1382      		std Z+3,__zero_reg__
 7536 3504 0E94 0000 		call xprintf
 7537               	.LM820:
 7538 3508 0F90      		pop __tmp_reg__
 7539 350a 0F90      		pop __tmp_reg__
 7540 350c 0F90      		pop __tmp_reg__
 7541 350e 0F90      		pop __tmp_reg__
 7542 3510 80E0      		ldi r24,lo8(spiUSE)
 7543 3512 90E0      		ldi r25,hi8(spiUSE)
 7544 3514 40E0      		ldi r20,lo8(0)
 7545 3516 50E0      		ldi r21,hi8(0)
 7546 3518 60E0      		ldi r22,hlo8(0)
 7547 351a 70E0      		ldi r23,hhi8(0)
 7548 351c 0E94 0000 		call chSemWaitTimeout
 7549               	.LM821:
 7550 3520 1831      		cpi r17,lo8(24)
 7551 3522 01F0      		breq .L332
 7552 3524 CE01      		movw r24,r28
 7553 3526 0396      		adiw r24,3
 7554 3528 0E94 0000 		call read32
 7555 352c 6115      		cp r22,__zero_reg__
 7556 352e 7105      		cpc r23,__zero_reg__
 7557 3530 8105      		cpc r24,__zero_reg__
 7558 3532 9105      		cpc r25,__zero_reg__
 7559 3534 01F0      		breq .+2
 7560 3536 00C0      		rjmp .L351
 7561               	.L332:
 7562               	.LM822:
 7563 3538 C355      		subi r28,lo8(-173)
 7564 353a DF4F      		sbci r29,hi8(-173)
 7565 353c A880      		ld r10,Y
 7566 353e B980      		ldd r11,Y+1
 7567 3540 CD5A      		subi r28,lo8(173)
 7568 3542 D040      		sbci r29,hi8(173)
 7569               	.LVL89:
 7570               	.LM823:
 7571 3544 8201      		movw r16,r4
 7572               	.LVL90:
 7573               	.LM824:
 7574 3546 80E0      		ldi r24,lo8(spiUSE)
 7575 3548 90E0      		ldi r25,hi8(spiUSE)
 7576 354a 0E94 0000 		call chSemSignal
 7577               	.LM825:
 7578 354e 00D0      		rcall .
 7579 3550 00D0      		rcall .
 7580 3552 00D0      		rcall .
 7581 3554 EDB7      		in r30,__SP_L__
 7582 3556 FEB7      		in r31,__SP_H__
 7583 3558 3196      		adiw r30,1
 7584 355a 80E0      		ldi r24,lo8(__c.3477)
 7585 355c 90E0      		ldi r25,hi8(__c.3477)
 7586 355e ADB7      		in r26,__SP_L__
 7587 3560 BEB7      		in r27,__SP_H__
 7588 3562 1296      		adiw r26,1+1
 7589 3564 9C93      		st X,r25
 7590 3566 8E93      		st -X,r24
 7591 3568 1197      		sbiw r26,1
 7592 356a C355      		subi r28,lo8(-173)
 7593 356c DF4F      		sbci r29,hi8(-173)
 7594 356e 2881      		ld r18,Y
 7595 3570 3981      		ldd r19,Y+1
 7596 3572 CD5A      		subi r28,lo8(173)
 7597 3574 D040      		sbci r29,hi8(173)
 7598 3576 3383      		std Z+3,r19
 7599 3578 2283      		std Z+2,r18
 7600 357a 5582      		std Z+5,r5
 7601 357c 4482      		std Z+4,r4
 7602 357e 0E94 0000 		call xprintf
 7603               	.LM826:
 7604 3582 9501      		movw r18,r10
 7605 3584 2F5F      		subi r18,lo8(-(1))
 7606 3586 3F4F      		sbci r19,hi8(-(1))
 7607 3588 C901      		movw r24,r18
 7608 358a 880F      		lsl r24
 7609 358c 991F      		rol r25
 7610 358e 820F      		add r24,r18
 7611 3590 931F      		adc r25,r19
 7612 3592 8C7F      		andi r24,lo8(-4)
 7613 3594 9C01      		movw r18,r24
 7614 3596 4427      		clr r20
 7615 3598 37FD      		sbrc r19,7
 7616 359a 4095      		com r20
 7617 359c 542F      		mov r21,r20
 7618 359e CB55      		subi r28,lo8(-165)
 7619 35a0 DF4F      		sbci r29,hi8(-165)
 7620 35a2 2883      		st Y,r18
 7621 35a4 3983      		std Y+1,r19
 7622 35a6 4A83      		std Y+2,r20
 7623 35a8 5B83      		std Y+3,r21
 7624 35aa C55A      		subi r28,lo8(165)
 7625 35ac D040      		sbci r29,hi8(165)
 7626               	.LVL91:
 7627               	.LM827:
 7628 35ae 4DB7      		in r20,__SP_L__
 7629 35b0 5EB7      		in r21,__SP_H__
 7630 35b2 4A5F      		subi r20,lo8(-(6))
 7631 35b4 5F4F      		sbci r21,hi8(-(6))
 7632 35b6 0FB6      		in __tmp_reg__,__SREG__
 7633 35b8 F894      		cli
 7634 35ba 5EBF      		out __SP_H__,r21
 7635 35bc 0FBE      		out __SREG__,__tmp_reg__
 7636 35be 4DBF      		out __SP_L__,r20
 7637 35c0 57FC      		sbrc r5,7
 7638 35c2 00C0      		rjmp .L333
 7639 35c4 8824      		clr r8
 7640 35c6 8394      		inc r8
 7641               	.LVL92:
 7642               	.L334:
 7643               	.LM828:
 7644 35c8 4E2D      		mov r20,r14
 7645 35ca 50E0      		ldi r21,lo8(0)
 7646 35cc 8091 0000 		lds r24,st7735_width
 7647 35d0 282F      		mov r18,r24
 7648 35d2 30E0      		ldi r19,lo8(0)
 7649 35d4 C501      		movw r24,r10
 7650 35d6 840F      		add r24,r20
 7651 35d8 951F      		adc r25,r21
 7652 35da 2817      		cp r18,r24
 7653 35dc 3907      		cpc r19,r25
 7654 35de 04F4      		brge .+2
 7655 35e0 00C0      		rjmp .L335
 7656 35e2 CD55      		subi r28,lo8(-163)
 7657 35e4 DF4F      		sbci r29,hi8(-163)
 7658 35e6 B982      		std Y+1,r11
 7659 35e8 A882      		st Y,r10
 7660 35ea C35A      		subi r28,lo8(163)
 7661 35ec D040      		sbci r29,hi8(163)
 7662               	.LVL93:
 7663               	.L336:
 7664               	.LM829:
 7665 35ee 4C2D      		mov r20,r12
 7666 35f0 50E0      		ldi r21,lo8(0)
 7667 35f2 8091 0000 		lds r24,st7735_height
 7668 35f6 282F      		mov r18,r24
 7669 35f8 30E0      		ldi r19,lo8(0)
 7670 35fa C801      		movw r24,r16
 7671 35fc 840F      		add r24,r20
 7672 35fe 951F      		adc r25,r21
 7673 3600 2817      		cp r18,r24
 7674 3602 3907      		cpc r19,r25
 7675 3604 04F4      		brge .+2
 7676 3606 00C0      		rjmp .L337
 7677 3608 CF55      		subi r28,lo8(-161)
 7678 360a DF4F      		sbci r29,hi8(-161)
 7679 360c 1983      		std Y+1,r17
 7680 360e 0883      		st Y,r16
 7681 3610 C15A      		subi r28,lo8(161)
 7682 3612 D040      		sbci r29,hi8(161)
 7683               	.LVL94:
 7684               	.L338:
 7685               	.LM830:
 7686 3614 80E0      		ldi r24,lo8(spiUSE)
 7687 3616 90E0      		ldi r25,hi8(spiUSE)
 7688 3618 40E0      		ldi r20,lo8(0)
 7689 361a 50E0      		ldi r21,hi8(0)
 7690 361c 60E0      		ldi r22,hlo8(0)
 7691 361e 70E0      		ldi r23,hhi8(0)
 7692 3620 0E94 0000 		call chSemWaitTimeout
 7693               	.LM831:
 7694 3624 4E2D      		mov r20,r14
 7695 3626 4150      		subi r20,lo8(-(-1))
 7696 3628 CD55      		subi r28,lo8(-163)
 7697 362a DF4F      		sbci r29,hi8(-163)
 7698 362c B881      		ld r27,Y
 7699 362e C35A      		subi r28,lo8(163)
 7700 3630 D040      		sbci r29,hi8(163)
 7701 3632 4B0F      		add r20,r27
 7702 3634 2C2D      		mov r18,r12
 7703 3636 2150      		subi r18,lo8(-(-1))
 7704 3638 CF55      		subi r28,lo8(-161)
 7705 363a DF4F      		sbci r29,hi8(-161)
 7706 363c E881      		ld r30,Y
 7707 363e C15A      		subi r28,lo8(161)
 7708 3640 D040      		sbci r29,hi8(161)
 7709 3642 2E0F      		add r18,r30
 7710 3644 8E2D      		mov r24,r14
 7711 3646 6C2D      		mov r22,r12
 7712 3648 0E94 0000 		call st7735_set_addr_win
 7713               	.LM832:
 7714 364c 80E0      		ldi r24,lo8(spiUSE)
 7715 364e 90E0      		ldi r25,hi8(spiUSE)
 7716 3650 0E94 0000 		call chSemSignal
 7717               	.LM833:
 7718 3654 CF55      		subi r28,lo8(-161)
 7719 3656 DF4F      		sbci r29,hi8(-161)
 7720 3658 2881      		ld r18,Y
 7721 365a 3981      		ldd r19,Y+1
 7722 365c C15A      		subi r28,lo8(161)
 7723 365e D040      		sbci r29,hi8(161)
 7724 3660 1216      		cp __zero_reg__,r18
 7725 3662 1306      		cpc __zero_reg__,r19
 7726 3664 04F0      		brlt .+2
 7727 3666 00C0      		rjmp .L339
 7728               	.LVL95:
 7729 3668 CB55      		subi r28,lo8(-165)
 7730 366a DF4F      		sbci r29,hi8(-165)
 7731 366c 8881      		ld r24,Y
 7732 366e 9981      		ldd r25,Y+1
 7733 3670 AA81      		ldd r26,Y+2
 7734 3672 BB81      		ldd r27,Y+3
 7735 3674 C55A      		subi r28,lo8(165)
 7736 3676 D040      		sbci r29,hi8(165)
 7737 3678 B095      		com r27
 7738 367a A095      		com r26
 7739 367c 9095      		com r25
 7740 367e 8195      		neg r24
 7741 3680 9F4F      		sbci r25,lo8(-1)
 7742 3682 AF4F      		sbci r26,lo8(-1)
 7743 3684 BF4F      		sbci r27,lo8(-1)
 7744 3686 C556      		subi r28,lo8(-155)
 7745 3688 DF4F      		sbci r29,hi8(-155)
 7746 368a 8883      		st Y,r24
 7747 368c 9983      		std Y+1,r25
 7748 368e AA83      		std Y+2,r26
 7749 3690 BB83      		std Y+3,r27
 7750 3692 CB59      		subi r28,lo8(155)
 7751 3694 D040      		sbci r29,hi8(155)
 7752 3696 0150      		subi r16,lo8(-(-1))
 7753 3698 1040      		sbci r17,hi8(-(-1))
 7754 369a 9801      		movw r18,r16
 7755 369c 4427      		clr r20
 7756 369e 37FD      		sbrc r19,7
 7757 36a0 4095      		com r20
 7758 36a2 542F      		mov r21,r20
 7759 36a4 CB55      		subi r28,lo8(-165)
 7760 36a6 DF4F      		sbci r29,hi8(-165)
 7761 36a8 6881      		ld r22,Y
 7762 36aa 7981      		ldd r23,Y+1
 7763 36ac 8A81      		ldd r24,Y+2
 7764 36ae 9B81      		ldd r25,Y+3
 7765 36b0 C55A      		subi r28,lo8(165)
 7766 36b2 D040      		sbci r29,hi8(165)
 7767 36b4 0E94 0000 		call __mulsi3
 7768 36b8 1B01      		movw r2,r22
 7769 36ba 2C01      		movw r4,r24
 7770               	.LVL96:
 7771 36bc C755      		subi r28,lo8(-169)
 7772 36be DF4F      		sbci r29,hi8(-169)
 7773 36c0 2881      		ld r18,Y
 7774 36c2 3981      		ldd r19,Y+1
 7775 36c4 4A81      		ldd r20,Y+2
 7776 36c6 5B81      		ldd r21,Y+3
 7777 36c8 C95A      		subi r28,lo8(169)
 7778 36ca D040      		sbci r29,hi8(169)
 7779 36cc 220E      		add r2,r18
 7780 36ce 331E      		adc r3,r19
 7781 36d0 441E      		adc r4,r20
 7782 36d2 551E      		adc r5,r21
 7783 36d4 C156      		subi r28,lo8(-159)
 7784 36d6 DF4F      		sbci r29,hi8(-159)
 7785 36d8 1982      		std Y+1,__zero_reg__
 7786 36da 1882      		st Y,__zero_reg__
 7787 36dc CF59      		subi r28,lo8(159)
 7788 36de D040      		sbci r29,hi8(159)
 7789               	.LVL97:
 7790 36e0 E3E2      		ldi r30,lo8(35)
 7791 36e2 6E2E      		mov r6,r30
 7792 36e4 712C      		mov r7,__zero_reg__
 7793 36e6 6C0E      		add r6,r28
 7794 36e8 7D1E      		adc r7,r29
 7795               	.LVL98:
 7796               	.L346:
 7797               	.LM834:
 7798 36ea 8820      		tst r8
 7799 36ec 01F4      		brne .+2
 7800 36ee 00C0      		rjmp .L340
 7801 36f0 C22C      		mov r12,r2
 7802               	.LVL99:
 7803 36f2 E32C      		mov r14,r3
 7804               	.LVL100:
 7805 36f4 8201      		movw r16,r4
 7806               	.LVL101:
 7807               	.L341:
 7808               	.LM835:
 7809 36f6 80E0      		ldi r24,lo8(spiUSE)
 7810 36f8 90E0      		ldi r25,hi8(spiUSE)
 7811 36fa 40E0      		ldi r20,lo8(0)
 7812 36fc 50E0      		ldi r21,hi8(0)
 7813 36fe 60E0      		ldi r22,hlo8(0)
 7814 3700 70E0      		ldi r23,hhi8(0)
 7815 3702 0E94 0000 		call chSemWaitTimeout
 7816               	.LM836:
 7817 3706 CE01      		movw r24,r28
 7818 3708 0396      		adiw r24,3
 7819 370a 4C2D      		mov r20,r12
 7820 370c 5E2D      		mov r21,r14
 7821 370e B801      		movw r22,r16
 7822               	.LVL102:
 7823 3710 0E94 0000 		call f_lseek
 7824               	.LM837:
 7825 3714 80E0      		ldi r24,lo8(spiUSE)
 7826 3716 90E0      		ldi r25,hi8(spiUSE)
 7827 3718 0E94 0000 		call chSemSignal
 7828               	.LM838:
 7829 371c CD55      		subi r28,lo8(-163)
 7830 371e DF4F      		sbci r29,hi8(-163)
 7831 3720 4881      		ld r20,Y
 7832 3722 5981      		ldd r21,Y+1
 7833 3724 C35A      		subi r28,lo8(163)
 7834 3726 D040      		sbci r29,hi8(163)
 7835 3728 1416      		cp __zero_reg__,r20
 7836 372a 1506      		cpc __zero_reg__,r21
 7837 372c 04F0      		brlt .+2
 7838 372e 00C0      		rjmp .L342
 7839 3730 78E7      		ldi r23,lo8(120)
 7840 3732 972E      		mov r9,r23
 7841 3734 AA24      		clr r10
 7842 3736 BB24      		clr r11
 7843               	.LVL103:
 7844 3738 00C0      		rjmp .L345
 7845               	.LVL104:
 7846               	.L352:
 7847               	.LM839:
 7848 373a 292D      		mov r18,r9
 7849 373c 30E0      		ldi r19,lo8(0)
 7850 373e 892D      		mov r24,r9
 7851 3740 8F5F      		subi r24,lo8(-(1))
 7852 3742 A82F      		mov r26,r24
 7853 3744 B0E0      		ldi r27,lo8(0)
 7854 3746 8F5F      		subi r24,lo8(-(1))
 7855 3748 482F      		mov r20,r24
 7856 374a 50E0      		ldi r21,lo8(0)
 7857 374c 982E      		mov r9,r24
 7858 374e 9394      		inc r9
 7859               	.L344:
 7860               	.LM840:
 7861 3750 260D      		add r18,r6
 7862 3752 371D      		adc r19,r7
 7863 3754 F901      		movw r30,r18
 7864 3756 C080      		ld r12,Z
 7865               	.LVL105:
 7866               	.LM841:
 7867 3758 A60D      		add r26,r6
 7868 375a B71D      		adc r27,r7
 7869 375c EC90      		ld r14,X
 7870               	.LVL106:
 7871               	.LM842:
 7872 375e 460D      		add r20,r6
 7873 3760 571D      		adc r21,r7
 7874 3762 DA01      		movw r26,r20
 7875 3764 0C91      		ld r16,X
 7876               	.LVL107:
 7877               	.LM843:
 7878 3766 80E0      		ldi r24,lo8(spiUSE)
 7879 3768 90E0      		ldi r25,hi8(spiUSE)
 7880 376a 40E0      		ldi r20,lo8(0)
 7881 376c 50E0      		ldi r21,hi8(0)
 7882 376e 60E0      		ldi r22,hlo8(0)
 7883 3770 70E0      		ldi r23,hhi8(0)
 7884 3772 0E94 0000 		call chSemWaitTimeout
 7885               	.LM844:
 7886 3776 10E0      		ldi r17,lo8(0)
 7887               	.LVL108:
 7888 3778 087F      		andi r16,lo8(248)
 7889 377a 1070      		andi r17,hi8(248)
 7890               	.LVL109:
 7891 377c 102F      		mov r17,r16
 7892 377e 0027      		clr r16
 7893               	.LVL110:
 7894 3780 FF24      		clr r15
 7895 3782 BCEF      		ldi r27,lo8(252)
 7896 3784 EB22      		and r14,r27
 7897 3786 FF24      		clr r15
 7898               	.LVL111:
 7899 3788 EE0C      		lsl r14
 7900 378a FF1C      		rol r15
 7901 378c EE0C      		lsl r14
 7902 378e FF1C      		rol r15
 7903 3790 EE0C      		lsl r14
 7904 3792 FF1C      		rol r15
 7905               	.LVL112:
 7906 3794 0E29      		or r16,r14
 7907 3796 1F29      		or r17,r15
 7908 3798 C694      		lsr r12
 7909 379a C694      		lsr r12
 7910 379c C694      		lsr r12
 7911 379e DD24      		clr r13
 7912 37a0 C801      		movw r24,r16
 7913 37a2 8C29      		or r24,r12
 7914 37a4 9D29      		or r25,r13
 7915               	.LVL113:
 7916 37a6 0E94 0000 		call st7735_write_self_color
 7917               	.LM845:
 7918 37aa 80E0      		ldi r24,lo8(spiUSE)
 7919 37ac 90E0      		ldi r25,hi8(spiUSE)
 7920 37ae 0E94 0000 		call chSemSignal
 7921               	.LM846:
 7922 37b2 0894      		sec
 7923 37b4 A11C      		adc r10,__zero_reg__
 7924 37b6 B11C      		adc r11,__zero_reg__
 7925 37b8 CD55      		subi r28,lo8(-163)
 7926 37ba DF4F      		sbci r29,hi8(-163)
 7927 37bc E881      		ld r30,Y
 7928 37be F981      		ldd r31,Y+1
 7929 37c0 C35A      		subi r28,lo8(163)
 7930 37c2 D040      		sbci r29,hi8(163)
 7931 37c4 AE16      		cp r10,r30
 7932 37c6 BF06      		cpc r11,r31
 7933 37c8 04F4      		brge .L342
 7934               	.LVL114:
 7935               	.L345:
 7936               	.LM847:
 7937 37ca 57E7      		ldi r21,lo8(119)
 7938 37cc 5915      		cp r21,r9
 7939 37ce 00F0      		brlo .+2
 7940 37d0 00C0      		rjmp .L352
 7941               	.LM848:
 7942 37d2 80E0      		ldi r24,lo8(spiUSE)
 7943 37d4 90E0      		ldi r25,hi8(spiUSE)
 7944 37d6 40E0      		ldi r20,lo8(0)
 7945 37d8 50E0      		ldi r21,hi8(0)
 7946 37da 60E0      		ldi r22,hlo8(0)
 7947 37dc 70E0      		ldi r23,hhi8(0)
 7948 37de 0E94 0000 		call chSemWaitTimeout
 7949               	.LM849:
 7950 37e2 CE01      		movw r24,r28
 7951 37e4 0396      		adiw r24,3
 7952 37e6 B301      		movw r22,r6
 7953 37e8 48E7      		ldi r20,lo8(120)
 7954 37ea 50E0      		ldi r21,hi8(120)
 7955 37ec 9E01      		movw r18,r28
 7956 37ee 2F5F      		subi r18,lo8(-(1))
 7957 37f0 3F4F      		sbci r19,hi8(-(1))
 7958 37f2 0E94 0000 		call f_read
 7959               	.LM850:
 7960 37f6 80E0      		ldi r24,lo8(spiUSE)
 7961 37f8 90E0      		ldi r25,hi8(spiUSE)
 7962 37fa 0E94 0000 		call chSemSignal
 7963 37fe 20E0      		ldi r18,lo8(0)
 7964 3800 30E0      		ldi r19,hi8(0)
 7965 3802 A1E0      		ldi r26,lo8(1)
 7966 3804 B0E0      		ldi r27,hi8(1)
 7967 3806 42E0      		ldi r20,lo8(2)
 7968 3808 50E0      		ldi r21,hi8(2)
 7969 380a 63E0      		ldi r22,lo8(3)
 7970 380c 962E      		mov r9,r22
 7971 380e 00C0      		rjmp .L344
 7972               	.LVL115:
 7973               	.L342:
 7974               	.LM851:
 7975 3810 C156      		subi r28,lo8(-159)
 7976 3812 DF4F      		sbci r29,hi8(-159)
 7977 3814 2881      		ld r18,Y
 7978 3816 3981      		ldd r19,Y+1
 7979 3818 CF59      		subi r28,lo8(159)
 7980 381a D040      		sbci r29,hi8(159)
 7981 381c 2F5F      		subi r18,lo8(-(1))
 7982 381e 3F4F      		sbci r19,hi8(-(1))
 7983 3820 C156      		subi r28,lo8(-159)
 7984 3822 DF4F      		sbci r29,hi8(-159)
 7985 3824 3983      		std Y+1,r19
 7986 3826 2883      		st Y,r18
 7987 3828 CF59      		subi r28,lo8(159)
 7988 382a D040      		sbci r29,hi8(159)
 7989               	.LVL116:
 7990 382c C556      		subi r28,lo8(-155)
 7991 382e DF4F      		sbci r29,hi8(-155)
 7992 3830 8881      		ld r24,Y
 7993 3832 9981      		ldd r25,Y+1
 7994 3834 AA81      		ldd r26,Y+2
 7995 3836 BB81      		ldd r27,Y+3
 7996 3838 CB59      		subi r28,lo8(155)
 7997 383a D040      		sbci r29,hi8(155)
 7998 383c 280E      		add r2,r24
 7999 383e 391E      		adc r3,r25
 8000 3840 4A1E      		adc r4,r26
 8001 3842 5B1E      		adc r5,r27
 8002 3844 C755      		subi r28,lo8(-169)
 8003 3846 DF4F      		sbci r29,hi8(-169)
 8004 3848 2881      		ld r18,Y
 8005 384a 3981      		ldd r19,Y+1
 8006 384c 4A81      		ldd r20,Y+2
 8007 384e 5B81      		ldd r21,Y+3
 8008 3850 C95A      		subi r28,lo8(169)
 8009 3852 D040      		sbci r29,hi8(169)
 8010 3854 CB55      		subi r28,lo8(-165)
 8011 3856 DF4F      		sbci r29,hi8(-165)
 8012 3858 8881      		ld r24,Y
 8013 385a 9981      		ldd r25,Y+1
 8014 385c AA81      		ldd r26,Y+2
 8015 385e BB81      		ldd r27,Y+3
 8016 3860 C55A      		subi r28,lo8(165)
 8017 3862 D040      		sbci r29,hi8(165)
 8018 3864 280F      		add r18,r24
 8019 3866 391F      		adc r19,r25
 8020 3868 4A1F      		adc r20,r26
 8021 386a 5B1F      		adc r21,r27
 8022 386c C755      		subi r28,lo8(-169)
 8023 386e DF4F      		sbci r29,hi8(-169)
 8024 3870 2883      		st Y,r18
 8025 3872 3983      		std Y+1,r19
 8026 3874 4A83      		std Y+2,r20
 8027 3876 5B83      		std Y+3,r21
 8028 3878 C95A      		subi r28,lo8(169)
 8029 387a D040      		sbci r29,hi8(169)
 8030               	.LVL117:
 8031 387c CF55      		subi r28,lo8(-161)
 8032 387e DF4F      		sbci r29,hi8(-161)
 8033 3880 A881      		ld r26,Y
 8034 3882 B981      		ldd r27,Y+1
 8035 3884 C15A      		subi r28,lo8(161)
 8036 3886 D040      		sbci r29,hi8(161)
 8037 3888 C156      		subi r28,lo8(-159)
 8038 388a DF4F      		sbci r29,hi8(-159)
 8039 388c E881      		ld r30,Y
 8040 388e F981      		ldd r31,Y+1
 8041 3890 CF59      		subi r28,lo8(159)
 8042 3892 D040      		sbci r29,hi8(159)
 8043 3894 EA17      		cp r30,r26
 8044 3896 FB07      		cpc r31,r27
 8045 3898 04F4      		brge .+2
 8046 389a 00C0      		rjmp .L346
 8047               	.LVL118:
 8048               	.L339:
 8049               	.LM852:
 8050 389c 80E0      		ldi r24,lo8(spiUSE)
 8051 389e 90E0      		ldi r25,hi8(spiUSE)
 8052 38a0 40E0      		ldi r20,lo8(0)
 8053 38a2 50E0      		ldi r21,hi8(0)
 8054 38a4 60E0      		ldi r22,hlo8(0)
 8055 38a6 70E0      		ldi r23,hhi8(0)
 8056 38a8 0E94 0000 		call chSemWaitTimeout
 8057               	.LM853:
 8058 38ac CE01      		movw r24,r28
 8059 38ae 0396      		adiw r24,3
 8060 38b0 0E94 0000 		call f_close
 8061               	.LM854:
 8062 38b4 80E0      		ldi r24,lo8(spiUSE)
 8063 38b6 90E0      		ldi r25,hi8(spiUSE)
 8064 38b8 0E94 0000 		call chSemSignal
 8065 38bc 00C0      		rjmp .L347
 8066               	.L340:
 8067               	.LM855:
 8068 38be C755      		subi r28,lo8(-169)
 8069 38c0 DF4F      		sbci r29,hi8(-169)
 8070 38c2 C880      		ld r12,Y
 8071 38c4 C95A      		subi r28,lo8(169)
 8072 38c6 D040      		sbci r29,hi8(169)
 8073               	.LVL119:
 8074 38c8 C655      		subi r28,lo8(-170)
 8075 38ca DF4F      		sbci r29,hi8(-170)
 8076 38cc E880      		ld r14,Y
 8077 38ce CA5A      		subi r28,lo8(170)
 8078 38d0 D040      		sbci r29,hi8(170)
 8079               	.LVL120:
 8080 38d2 C555      		subi r28,lo8(-171)
 8081 38d4 DF4F      		sbci r29,hi8(-171)
 8082 38d6 0881      		ld r16,Y
 8083 38d8 CB5A      		subi r28,lo8(171)
 8084 38da D040      		sbci r29,hi8(171)
 8085               	.LVL121:
 8086 38dc C455      		subi r28,lo8(-172)
 8087 38de DF4F      		sbci r29,hi8(-172)
 8088 38e0 1881      		ld r17,Y
 8089 38e2 CC5A      		subi r28,lo8(172)
 8090 38e4 D040      		sbci r29,hi8(172)
 8091               	.LVL122:
 8092 38e6 00C0      		rjmp .L341
 8093               	.LVL123:
 8094               	.L337:
 8095               	.LM856:
 8096 38e8 D901      		movw r26,r18
 8097 38ea A41B      		sub r26,r20
 8098 38ec B50B      		sbc r27,r21
 8099 38ee CF55      		subi r28,lo8(-161)
 8100 38f0 DF4F      		sbci r29,hi8(-161)
 8101 38f2 B983      		std Y+1,r27
 8102 38f4 A883      		st Y,r26
 8103 38f6 C15A      		subi r28,lo8(161)
 8104 38f8 D040      		sbci r29,hi8(161)
 8105               	.LVL124:
 8106 38fa 00C0      		rjmp .L338
 8107               	.LVL125:
 8108               	.L335:
 8109               	.LM857:
 8110 38fc C901      		movw r24,r18
 8111 38fe 841B      		sub r24,r20
 8112 3900 950B      		sbc r25,r21
 8113 3902 CD55      		subi r28,lo8(-163)
 8114 3904 DF4F      		sbci r29,hi8(-163)
 8115 3906 9983      		std Y+1,r25
 8116 3908 8883      		st Y,r24
 8117 390a C35A      		subi r28,lo8(163)
 8118 390c D040      		sbci r29,hi8(163)
 8119               	.LVL126:
 8120 390e 00C0      		rjmp .L336
 8121               	.LVL127:
 8122               	.L333:
 8123               	.LM858:
 8124 3910 1095      		com r17
 8125 3912 0195      		neg r16
 8126 3914 1F4F      		sbci r17,lo8(-1)
 8127 3916 8824      		clr r8
 8128               	.LVL128:
 8129 3918 00C0      		rjmp .L334
 8130               	.LVL129:
 8131               	.L351:
 8132               	.LM859:
 8133 391a 80E0      		ldi r24,lo8(__c.3475)
 8134 391c 90E0      		ldi r25,hi8(__c.3475)
 8135 391e 0E94 0000 		call xputs
 8136               	.LM860:
 8137 3922 80E0      		ldi r24,lo8(spiUSE)
 8138 3924 90E0      		ldi r25,hi8(spiUSE)
 8139 3926 0E94 0000 		call chSemSignal
 8140 392a 00C0      		rjmp .L347
 8141               	.LFE68:
 8143               		.data
 8144               	.LC20:
 8145 00ed 6872 6D5F 		.string	"hrm_data.bin"
 8145      6461 7461 
 8145      2E62 696E 
 8145      00
 8146               	.LC21:
 8147 00fa 4E65 7720 		.string	"New data\r\n"
 8147      6461 7461 
 8147      0D0A 00
 8148               	.LC22:
 8149 0105 696D 6730 		.string	"img00001.bmp"
 8149      3030 3031 
 8149      2E62 6D70 
 8149      00
 8150               		.text
 8151               	.global	Thread12
 8153               	Thread12:
 8154               	.LFB93:
 8155               	.LM861:
 8156               	.LVL130:
 8157 392c DF93      		push r29
 8158 392e CF93      		push r28
 8159 3930 CDB7      		in r28,__SP_L__
 8160 3932 DEB7      		in r29,__SP_H__
 8161 3934 C658      		subi r28,lo8(-(-134))
 8162 3936 D040      		sbci r29,hi8(-(-134))
 8163 3938 0FB6      		in __tmp_reg__,__SREG__
 8164 393a F894      		cli
 8165 393c DEBF      		out __SP_H__,r29
 8166 393e 0FBE      		out __SREG__,__tmp_reg__
 8167 3940 CDBF      		out __SP_L__,r28
 8168               	/* prologue: function */
 8169               	/* frame size = 134 */
 8170               	.LM862:
 8171 3942 8091 0000 		lds r24,nil
 8172 3946 9091 0000 		lds r25,(nil)+1
 8173               	.LVL131:
 8174 394a 9093 0000 		sts (tp+22)+1,r25
 8175 394e 8093 0000 		sts tp+22,r24
 8176               	.LM863:
 8177 3952 DE01      		movw r26,r28
 8178 3954 1396      		adiw r26,3
 8179 3956 E0E0      		ldi r30,lo8(C.104.4225)
 8180 3958 F0E0      		ldi r31,hi8(C.104.4225)
 8181 395a 8CE1      		ldi r24,lo8(28)
 8182               	.L354:
 8183 395c 0190      		ld r0,Z+
 8184 395e 0D92      		st X+,r0
 8185 3960 8150      		subi r24,lo8(-(-1))
 8186 3962 01F4      		brne .L354
 8187               	.LM864:
 8188 3964 1092 0000 		sts Red_HR_state,__zero_reg__
 8189               	.LM865:
 8190 3968 1092 0000 		sts Red_HR_state+1,__zero_reg__
 8191               	.LM866:
 8192 396c 1092 0000 		sts Red_HR_state+2,__zero_reg__
 8193               	.LM867:
 8194 3970 1092 0000 		sts Red_HR_state+3,__zero_reg__
 8195               	.LM868:
 8196 3974 1092 0000 		sts Red_HR_state+4,__zero_reg__
 8197               	.LM869:
 8198 3978 1092 0000 		sts Red_HR_state+5,__zero_reg__
 8199 397c 1092 0000 		sts (Red_HR_state+5)+1,__zero_reg__
 8200 3980 1092 0000 		sts (Red_HR_state+5)+2,__zero_reg__
 8201 3984 1092 0000 		sts (Red_HR_state+5)+3,__zero_reg__
 8202               	.LM870:
 8203 3988 1092 0000 		sts Red_HR_state+9,__zero_reg__
 8204 398c 1092 0000 		sts (Red_HR_state+9)+1,__zero_reg__
 8205 3990 1092 0000 		sts (Red_HR_state+9)+2,__zero_reg__
 8206 3994 1092 0000 		sts (Red_HR_state+9)+3,__zero_reg__
 8207               	.LM871:
 8208 3998 1092 0000 		sts Red_HR_state+13,__zero_reg__
 8209               	.LM872:
 8210 399c 1092 0000 		sts Red_HR_state+14,__zero_reg__
 8211 39a0 A0E0      		ldi r26,lo8(Red_HR_state+15)
 8212 39a2 B0E0      		ldi r27,hi8(Red_HR_state+15)
 8213 39a4 80E0      		ldi r24,lo8(0)
 8214 39a6 90E0      		ldi r25,hi8(0)
 8215               	.L357:
 8216               	.LM873:
 8217 39a8 8430      		cpi r24,lo8(4)
 8218 39aa 00F4      		brsh .L356
 8219               	.LM874:
 8220 39ac 1D92      		st X+,__zero_reg__
 8221 39ae 1D92      		st X+,__zero_reg__
 8222 39b0 1D92      		st X+,__zero_reg__
 8223 39b2 1C92      		st X,__zero_reg__
 8224 39b4 1397      		sbiw r26,3
 8225               	.LM875:
 8226 39b6 A058      		subi r26,lo8(-(128))
 8227 39b8 BF4F      		sbci r27,hi8(-(128))
 8228 39ba 1D92      		st X+,__zero_reg__
 8229 39bc 1D92      		st X+,__zero_reg__
 8230 39be 1D92      		st X+,__zero_reg__
 8231 39c0 1C92      		st X,__zero_reg__
 8232 39c2 1397      		sbiw r26,3
 8233 39c4 A058      		subi r26,lo8(-(-128))
 8234 39c6 B040      		sbci r27,hi8(-(-128))
 8235               	.L356:
 8236               	.LM876:
 8237 39c8 FC01      		movw r30,r24
 8238 39ca EE0F      		lsl r30
 8239 39cc FF1F      		rol r31
 8240 39ce EE0F      		lsl r30
 8241 39d0 FF1F      		rol r31
 8242 39d2 E050      		subi r30,lo8(-(Red_HR_state+271))
 8243 39d4 F040      		sbci r31,hi8(-(Red_HR_state+271))
 8244 39d6 1082      		st Z,__zero_reg__
 8245 39d8 1182      		std Z+1,__zero_reg__
 8246 39da 1282      		std Z+2,__zero_reg__
 8247 39dc 1382      		std Z+3,__zero_reg__
 8248 39de 0196      		adiw r24,1
 8249 39e0 1496      		adiw r26,4
 8250               	.LM877:
 8251 39e2 8032      		cpi r24,32
 8252 39e4 9105      		cpc r25,__zero_reg__
 8253 39e6 01F4      		brne .L357
 8254               	.LM878:
 8255 39e8 1092 0000 		sts IR_HR_state,__zero_reg__
 8256               	.LM879:
 8257 39ec 1092 0000 		sts IR_HR_state+1,__zero_reg__
 8258               	.LM880:
 8259 39f0 1092 0000 		sts IR_HR_state+2,__zero_reg__
 8260               	.LM881:
 8261 39f4 1092 0000 		sts IR_HR_state+3,__zero_reg__
 8262               	.LM882:
 8263 39f8 1092 0000 		sts IR_HR_state+4,__zero_reg__
 8264               	.LM883:
 8265 39fc 1092 0000 		sts IR_HR_state+5,__zero_reg__
 8266 3a00 1092 0000 		sts (IR_HR_state+5)+1,__zero_reg__
 8267 3a04 1092 0000 		sts (IR_HR_state+5)+2,__zero_reg__
 8268 3a08 1092 0000 		sts (IR_HR_state+5)+3,__zero_reg__
 8269               	.LM884:
 8270 3a0c 1092 0000 		sts IR_HR_state+9,__zero_reg__
 8271 3a10 1092 0000 		sts (IR_HR_state+9)+1,__zero_reg__
 8272 3a14 1092 0000 		sts (IR_HR_state+9)+2,__zero_reg__
 8273 3a18 1092 0000 		sts (IR_HR_state+9)+3,__zero_reg__
 8274               	.LM885:
 8275 3a1c 1092 0000 		sts IR_HR_state+13,__zero_reg__
 8276               	.LM886:
 8277 3a20 1092 0000 		sts IR_HR_state+14,__zero_reg__
 8278 3a24 A0E0      		ldi r26,lo8(IR_HR_state+15)
 8279 3a26 B0E0      		ldi r27,hi8(IR_HR_state+15)
 8280 3a28 80E0      		ldi r24,lo8(0)
 8281 3a2a 90E0      		ldi r25,hi8(0)
 8282               	.L360:
 8283               	.LM887:
 8284 3a2c 8430      		cpi r24,lo8(4)
 8285 3a2e 00F4      		brsh .L359
 8286               	.LM888:
 8287 3a30 1D92      		st X+,__zero_reg__
 8288 3a32 1D92      		st X+,__zero_reg__
 8289 3a34 1D92      		st X+,__zero_reg__
 8290 3a36 1C92      		st X,__zero_reg__
 8291 3a38 1397      		sbiw r26,3
 8292               	.LM889:
 8293 3a3a A058      		subi r26,lo8(-(128))
 8294 3a3c BF4F      		sbci r27,hi8(-(128))
 8295 3a3e 1D92      		st X+,__zero_reg__
 8296 3a40 1D92      		st X+,__zero_reg__
 8297 3a42 1D92      		st X+,__zero_reg__
 8298 3a44 1C92      		st X,__zero_reg__
 8299 3a46 1397      		sbiw r26,3
 8300 3a48 A058      		subi r26,lo8(-(-128))
 8301 3a4a B040      		sbci r27,hi8(-(-128))
 8302               	.L359:
 8303               	.LM890:
 8304 3a4c FC01      		movw r30,r24
 8305 3a4e EE0F      		lsl r30
 8306 3a50 FF1F      		rol r31
 8307 3a52 EE0F      		lsl r30
 8308 3a54 FF1F      		rol r31
 8309 3a56 E050      		subi r30,lo8(-(IR_HR_state+271))
 8310 3a58 F040      		sbci r31,hi8(-(IR_HR_state+271))
 8311 3a5a 1082      		st Z,__zero_reg__
 8312 3a5c 1182      		std Z+1,__zero_reg__
 8313 3a5e 1282      		std Z+2,__zero_reg__
 8314 3a60 1382      		std Z+3,__zero_reg__
 8315 3a62 0196      		adiw r24,1
 8316 3a64 1496      		adiw r26,4
 8317               	.LM891:
 8318 3a66 8032      		cpi r24,32
 8319 3a68 9105      		cpc r25,__zero_reg__
 8320 3a6a 01F4      		brne .L360
 8321               	.LM892:
 8322 3a6c 60E7      		ldi r22,lo8(6000)
 8323 3a6e 77E1      		ldi r23,hi8(6000)
 8324 3a70 80E0      		ldi r24,hlo8(6000)
 8325 3a72 90E0      		ldi r25,hhi8(6000)
 8326 3a74 0E94 0000 		call chThdSleep
 8327               	.LM893:
 8328 3a78 80E0      		ldi r24,lo8(i2cUSE)
 8329 3a7a 90E0      		ldi r25,hi8(i2cUSE)
 8330 3a7c 40E0      		ldi r20,lo8(0)
 8331 3a7e 50E0      		ldi r21,hi8(0)
 8332 3a80 60E0      		ldi r22,hlo8(0)
 8333 3a82 70E0      		ldi r23,hhi8(0)
 8334 3a84 0E94 0000 		call chSemWaitTimeout
 8335               	.LM894:
 8336 3a88 0E94 0000 		call i2c_init
 8337               	.LM895:
 8338 3a8c 0E94 0000 		call MAX30105_init
 8339 3a90 8823      		tst r24
 8340 3a92 01F4      		brne .+4
 8341 3a94 0C94 0000 		jmp .L402
 8342 3a98 B0E0      		ldi r27,lo8(usart_out)
 8343 3a9a CB2E      		mov r12,r27
 8344 3a9c B0E0      		ldi r27,hi8(usart_out)
 8345 3a9e DB2E      		mov r13,r27
 8346               	.L361:
 8347               	.LM896:
 8348 3aa0 8091 0000 		lds r24,USART_HB_LOGGING_ON
 8349 3aa4 8130      		cpi r24,lo8(1)
 8350 3aa6 01F4      		brne .+2
 8351 3aa8 00C0      		rjmp .L405
 8352               	.LM897:
 8353 3aaa 8FE3      		ldi r24,lo8(63)
 8354 3aac 64E0      		ldi r22,lo8(4)
 8355               	.L403:
 8356 3aae 42E0      		ldi r20,lo8(2)
 8357 3ab0 20E9      		ldi r18,lo8(400)
 8358 3ab2 31E0      		ldi r19,hi8(400)
 8359 3ab4 0BE9      		ldi r16,lo8(411)
 8360 3ab6 11E0      		ldi r17,hi8(411)
 8361 3ab8 E12C      		mov r14,__zero_reg__
 8362 3aba F0E1      		ldi r31,hi8(4096)
 8363 3abc FF2E      		mov r15,r31
 8364 3abe 0E94 0000 		call MAX30105_setup
 8365               	.LM898:
 8366 3ac2 80E0      		ldi r24,lo8(i2cUSE)
 8367 3ac4 90E0      		ldi r25,hi8(i2cUSE)
 8368 3ac6 0E94 0000 		call chSemSignal
 8369               	.LM899:
 8370 3aca 80E0      		ldi r24,lo8(usartUSE)
 8371 3acc 90E0      		ldi r25,hi8(usartUSE)
 8372 3ace 40E0      		ldi r20,lo8(0)
 8373 3ad0 50E0      		ldi r21,hi8(0)
 8374 3ad2 60E0      		ldi r22,hlo8(0)
 8375 3ad4 70E0      		ldi r23,hhi8(0)
 8376 3ad6 0E94 0000 		call chSemWaitTimeout
 8377               	.LM900:
 8378 3ada 00D0      		rcall .
 8379 3adc 00D0      		rcall .
 8380 3ade EDB7      		in r30,__SP_L__
 8381 3ae0 FEB7      		in r31,__SP_H__
 8382 3ae2 D282      		std Z+2,r13
 8383 3ae4 C182      		std Z+1,r12
 8384 3ae6 80E0      		ldi r24,lo8(__c.4185)
 8385 3ae8 90E0      		ldi r25,hi8(__c.4185)
 8386 3aea 9483      		std Z+4,r25
 8387 3aec 8383      		std Z+3,r24
 8388 3aee 0E94 0000 		call fprintf_P
 8389               	.LM901:
 8390 3af2 0F90      		pop __tmp_reg__
 8391 3af4 0F90      		pop __tmp_reg__
 8392 3af6 0F90      		pop __tmp_reg__
 8393 3af8 0F90      		pop __tmp_reg__
 8394 3afa 80E0      		ldi r24,lo8(usartUSE)
 8395 3afc 90E0      		ldi r25,hi8(usartUSE)
 8396 3afe 0E94 0000 		call chSemSignal
 8397               	.LM902:
 8398 3b02 60E1      		ldi r22,lo8(10000)
 8399 3b04 77E2      		ldi r23,hi8(10000)
 8400 3b06 80E0      		ldi r24,hlo8(10000)
 8401 3b08 90E0      		ldi r25,hhi8(10000)
 8402 3b0a 0E94 0000 		call chThdSleep
 8403               	.LM903:
 8404 3b0e 80E0      		ldi r24,lo8(sdUSE)
 8405 3b10 90E0      		ldi r25,hi8(sdUSE)
 8406 3b12 40E0      		ldi r20,lo8(0)
 8407 3b14 50E0      		ldi r21,hi8(0)
 8408 3b16 60E0      		ldi r22,hlo8(0)
 8409 3b18 70E0      		ldi r23,hhi8(0)
 8410 3b1a 0E94 0000 		call chSemWaitTimeout
 8411               	.LM904:
 8412 3b1e 80E0      		ldi r24,lo8(spiUSE)
 8413 3b20 90E0      		ldi r25,hi8(spiUSE)
 8414 3b22 40E0      		ldi r20,lo8(0)
 8415 3b24 50E0      		ldi r21,hi8(0)
 8416 3b26 60E0      		ldi r22,hlo8(0)
 8417 3b28 70E0      		ldi r23,hhi8(0)
 8418 3b2a 0E94 0000 		call chSemWaitTimeout
 8419               	.LM905:
 8420 3b2e 80E0      		ldi r24,lo8(0)
 8421 3b30 0E94 0000 		call disk_initialize
 8422 3b34 182F      		mov r17,r24
 8423               	.LVL132:
 8424               	.LM906:
 8425 3b36 80E0      		ldi r24,lo8(spiUSE)
 8426 3b38 90E0      		ldi r25,hi8(spiUSE)
 8427 3b3a 0E94 0000 		call chSemSignal
 8428               	.LM907:
 8429 3b3e 60E1      		ldi r22,lo8(10000)
 8430 3b40 77E2      		ldi r23,hi8(10000)
 8431 3b42 80E0      		ldi r24,hlo8(10000)
 8432 3b44 90E0      		ldi r25,hhi8(10000)
 8433 3b46 0E94 0000 		call chThdSleep
 8434               	.LM908:
 8435 3b4a 80E0      		ldi r24,lo8(usartUSE)
 8436 3b4c 90E0      		ldi r25,hi8(usartUSE)
 8437 3b4e 40E0      		ldi r20,lo8(0)
 8438 3b50 50E0      		ldi r21,hi8(0)
 8439 3b52 60E0      		ldi r22,hlo8(0)
 8440 3b54 70E0      		ldi r23,hhi8(0)
 8441 3b56 0E94 0000 		call chSemWaitTimeout
 8442               	.LM909:
 8443 3b5a 00D0      		rcall .
 8444 3b5c 00D0      		rcall .
 8445 3b5e 00D0      		rcall .
 8446 3b60 EDB7      		in r30,__SP_L__
 8447 3b62 FEB7      		in r31,__SP_H__
 8448 3b64 3196      		adiw r30,1
 8449 3b66 ADB7      		in r26,__SP_L__
 8450 3b68 BEB7      		in r27,__SP_H__
 8451 3b6a 1296      		adiw r26,1+1
 8452 3b6c DC92      		st X,r13
 8453 3b6e CE92      		st -X,r12
 8454 3b70 1197      		sbiw r26,1
 8455 3b72 80E0      		ldi r24,lo8(__c.4187)
 8456 3b74 90E0      		ldi r25,hi8(__c.4187)
 8457 3b76 9383      		std Z+3,r25
 8458 3b78 8283      		std Z+2,r24
 8459 3b7a 1483      		std Z+4,r17
 8460 3b7c 1582      		std Z+5,__zero_reg__
 8461 3b7e 0E94 0000 		call fprintf_P
 8462               	.LM910:
 8463 3b82 EDB7      		in r30,__SP_L__
 8464 3b84 FEB7      		in r31,__SP_H__
 8465 3b86 3696      		adiw r30,6
 8466 3b88 0FB6      		in __tmp_reg__,__SREG__
 8467 3b8a F894      		cli
 8468 3b8c FEBF      		out __SP_H__,r31
 8469 3b8e 0FBE      		out __SREG__,__tmp_reg__
 8470 3b90 EDBF      		out __SP_L__,r30
 8471 3b92 80E0      		ldi r24,lo8(usartUSE)
 8472 3b94 90E0      		ldi r25,hi8(usartUSE)
 8473 3b96 0E94 0000 		call chSemSignal
 8474               	.LM911:
 8475 3b9a 80E0      		ldi r24,lo8(spiUSE)
 8476 3b9c 90E0      		ldi r25,hi8(spiUSE)
 8477 3b9e 40E0      		ldi r20,lo8(0)
 8478 3ba0 50E0      		ldi r21,hi8(0)
 8479 3ba2 60E0      		ldi r22,hlo8(0)
 8480 3ba4 70E0      		ldi r23,hhi8(0)
 8481 3ba6 0E94 0000 		call chSemWaitTimeout
 8482               	.LM912:
 8483 3baa 80E0      		ldi r24,lo8(0)
 8484 3bac 60E0      		ldi r22,lo8(Fatfs)
 8485 3bae 70E0      		ldi r23,hi8(Fatfs)
 8486 3bb0 0E94 0000 		call f_mount
 8487 3bb4 182F      		mov r17,r24
 8488               	.LVL133:
 8489               	.LM913:
 8490 3bb6 80E0      		ldi r24,lo8(spiUSE)
 8491 3bb8 90E0      		ldi r25,hi8(spiUSE)
 8492 3bba 0E94 0000 		call chSemSignal
 8493               	.LM914:
 8494 3bbe 60E1      		ldi r22,lo8(10000)
 8495 3bc0 77E2      		ldi r23,hi8(10000)
 8496 3bc2 80E0      		ldi r24,hlo8(10000)
 8497 3bc4 90E0      		ldi r25,hhi8(10000)
 8498 3bc6 0E94 0000 		call chThdSleep
 8499               	.LM915:
 8500 3bca 80E0      		ldi r24,lo8(usartUSE)
 8501 3bcc 90E0      		ldi r25,hi8(usartUSE)
 8502 3bce 40E0      		ldi r20,lo8(0)
 8503 3bd0 50E0      		ldi r21,hi8(0)
 8504 3bd2 60E0      		ldi r22,hlo8(0)
 8505 3bd4 70E0      		ldi r23,hhi8(0)
 8506 3bd6 0E94 0000 		call chSemWaitTimeout
 8507               	.LM916:
 8508 3bda 00D0      		rcall .
 8509 3bdc 00D0      		rcall .
 8510 3bde 00D0      		rcall .
 8511 3be0 EDB7      		in r30,__SP_L__
 8512 3be2 FEB7      		in r31,__SP_H__
 8513 3be4 3196      		adiw r30,1
 8514 3be6 ADB7      		in r26,__SP_L__
 8515 3be8 BEB7      		in r27,__SP_H__
 8516 3bea 1296      		adiw r26,1+1
 8517 3bec DC92      		st X,r13
 8518 3bee CE92      		st -X,r12
 8519 3bf0 1197      		sbiw r26,1
 8520 3bf2 80E0      		ldi r24,lo8(__c.4189)
 8521 3bf4 90E0      		ldi r25,hi8(__c.4189)
 8522 3bf6 9383      		std Z+3,r25
 8523 3bf8 8283      		std Z+2,r24
 8524 3bfa 1483      		std Z+4,r17
 8525 3bfc 1582      		std Z+5,__zero_reg__
 8526 3bfe 0E94 0000 		call fprintf_P
 8527               	.LM917:
 8528 3c02 EDB7      		in r30,__SP_L__
 8529 3c04 FEB7      		in r31,__SP_H__
 8530 3c06 3696      		adiw r30,6
 8531 3c08 0FB6      		in __tmp_reg__,__SREG__
 8532 3c0a F894      		cli
 8533 3c0c FEBF      		out __SP_H__,r31
 8534 3c0e 0FBE      		out __SREG__,__tmp_reg__
 8535 3c10 EDBF      		out __SP_L__,r30
 8536 3c12 80E0      		ldi r24,lo8(usartUSE)
 8537 3c14 90E0      		ldi r25,hi8(usartUSE)
 8538 3c16 0E94 0000 		call chSemSignal
 8539               	.LM918:
 8540 3c1a 80E0      		ldi r24,lo8(spiUSE)
 8541 3c1c 90E0      		ldi r25,hi8(spiUSE)
 8542 3c1e 40E0      		ldi r20,lo8(0)
 8543 3c20 50E0      		ldi r21,hi8(0)
 8544 3c22 60E0      		ldi r22,hlo8(0)
 8545 3c24 70E0      		ldi r23,hhi8(0)
 8546 3c26 0E94 0000 		call chSemWaitTimeout
 8547               	.LM919:
 8548 3c2a 8E01      		movw r16,r28
 8549 3c2c 015E      		subi r16,lo8(-(31))
 8550 3c2e 1F4F      		sbci r17,hi8(-(31))
 8551 3c30 CB57      		subi r28,lo8(-133)
 8552 3c32 DF4F      		sbci r29,hi8(-133)
 8553 3c34 1983      		std Y+1,r17
 8554 3c36 0883      		st Y,r16
 8555 3c38 C558      		subi r28,lo8(133)
 8556 3c3a D040      		sbci r29,hi8(133)
 8557 3c3c C801      		movw r24,r16
 8558 3c3e 60E0      		ldi r22,lo8(.LC20)
 8559 3c40 70E0      		ldi r23,hi8(.LC20)
 8560 3c42 42E1      		ldi r20,lo8(18)
 8561 3c44 0E94 0000 		call f_open
 8562 3c48 182F      		mov r17,r24
 8563               	.LVL134:
 8564               	.LM920:
 8565 3c4a 80E0      		ldi r24,lo8(spiUSE)
 8566 3c4c 90E0      		ldi r25,hi8(spiUSE)
 8567 3c4e 0E94 0000 		call chSemSignal
 8568               	.LM921:
 8569 3c52 60E1      		ldi r22,lo8(10000)
 8570 3c54 77E2      		ldi r23,hi8(10000)
 8571 3c56 80E0      		ldi r24,hlo8(10000)
 8572 3c58 90E0      		ldi r25,hhi8(10000)
 8573 3c5a 0E94 0000 		call chThdSleep
 8574               	.LM922:
 8575 3c5e 80E0      		ldi r24,lo8(usartUSE)
 8576 3c60 90E0      		ldi r25,hi8(usartUSE)
 8577 3c62 40E0      		ldi r20,lo8(0)
 8578 3c64 50E0      		ldi r21,hi8(0)
 8579 3c66 60E0      		ldi r22,hlo8(0)
 8580 3c68 70E0      		ldi r23,hhi8(0)
 8581 3c6a 0E94 0000 		call chSemWaitTimeout
 8582               	.LM923:
 8583 3c6e 00D0      		rcall .
 8584 3c70 00D0      		rcall .
 8585 3c72 00D0      		rcall .
 8586 3c74 EDB7      		in r30,__SP_L__
 8587 3c76 FEB7      		in r31,__SP_H__
 8588 3c78 3196      		adiw r30,1
 8589 3c7a ADB7      		in r26,__SP_L__
 8590 3c7c BEB7      		in r27,__SP_H__
 8591 3c7e 1296      		adiw r26,1+1
 8592 3c80 DC92      		st X,r13
 8593 3c82 CE92      		st -X,r12
 8594 3c84 1197      		sbiw r26,1
 8595 3c86 80E0      		ldi r24,lo8(__c.4191)
 8596 3c88 90E0      		ldi r25,hi8(__c.4191)
 8597 3c8a 9383      		std Z+3,r25
 8598 3c8c 8283      		std Z+2,r24
 8599 3c8e 1483      		std Z+4,r17
 8600 3c90 1582      		std Z+5,__zero_reg__
 8601 3c92 0E94 0000 		call fprintf_P
 8602               	.LM924:
 8603 3c96 EDB7      		in r30,__SP_L__
 8604 3c98 FEB7      		in r31,__SP_H__
 8605 3c9a 3696      		adiw r30,6
 8606 3c9c 0FB6      		in __tmp_reg__,__SREG__
 8607 3c9e F894      		cli
 8608 3ca0 FEBF      		out __SP_H__,r31
 8609 3ca2 0FBE      		out __SREG__,__tmp_reg__
 8610 3ca4 EDBF      		out __SP_L__,r30
 8611 3ca6 80E0      		ldi r24,lo8(usartUSE)
 8612 3ca8 90E0      		ldi r25,hi8(usartUSE)
 8613 3caa 0E94 0000 		call chSemSignal
 8614               	.LM925:
 8615 3cae 80E0      		ldi r24,lo8(spiUSE)
 8616 3cb0 90E0      		ldi r25,hi8(spiUSE)
 8617 3cb2 40E0      		ldi r20,lo8(0)
 8618 3cb4 50E0      		ldi r21,hi8(0)
 8619 3cb6 60E0      		ldi r22,hlo8(0)
 8620 3cb8 70E0      		ldi r23,hhi8(0)
 8621 3cba 0E94 0000 		call chSemWaitTimeout
 8622               	.LM926:
 8623 3cbe 49A5      		ldd r20,Y+41
 8624 3cc0 5AA5      		ldd r21,Y+42
 8625 3cc2 6BA5      		ldd r22,Y+43
 8626 3cc4 7CA5      		ldd r23,Y+44
 8627 3cc6 CE01      		movw r24,r28
 8628 3cc8 4F96      		adiw r24,31
 8629 3cca 0E94 0000 		call f_lseek
 8630 3cce 182F      		mov r17,r24
 8631               	.LVL135:
 8632               	.LM927:
 8633 3cd0 80E0      		ldi r24,lo8(spiUSE)
 8634 3cd2 90E0      		ldi r25,hi8(spiUSE)
 8635 3cd4 0E94 0000 		call chSemSignal
 8636               	.LM928:
 8637 3cd8 60E1      		ldi r22,lo8(10000)
 8638 3cda 77E2      		ldi r23,hi8(10000)
 8639 3cdc 80E0      		ldi r24,hlo8(10000)
 8640 3cde 90E0      		ldi r25,hhi8(10000)
 8641 3ce0 0E94 0000 		call chThdSleep
 8642               	.LM929:
 8643 3ce4 80E0      		ldi r24,lo8(usartUSE)
 8644 3ce6 90E0      		ldi r25,hi8(usartUSE)
 8645 3ce8 40E0      		ldi r20,lo8(0)
 8646 3cea 50E0      		ldi r21,hi8(0)
 8647 3cec 60E0      		ldi r22,hlo8(0)
 8648 3cee 70E0      		ldi r23,hhi8(0)
 8649 3cf0 0E94 0000 		call chSemWaitTimeout
 8650               	.LM930:
 8651 3cf4 00D0      		rcall .
 8652 3cf6 00D0      		rcall .
 8653 3cf8 00D0      		rcall .
 8654 3cfa EDB7      		in r30,__SP_L__
 8655 3cfc FEB7      		in r31,__SP_H__
 8656 3cfe 3196      		adiw r30,1
 8657 3d00 ADB7      		in r26,__SP_L__
 8658 3d02 BEB7      		in r27,__SP_H__
 8659 3d04 1296      		adiw r26,1+1
 8660 3d06 DC92      		st X,r13
 8661 3d08 CE92      		st -X,r12
 8662 3d0a 1197      		sbiw r26,1
 8663 3d0c 80E0      		ldi r24,lo8(__c.4193)
 8664 3d0e 90E0      		ldi r25,hi8(__c.4193)
 8665 3d10 9383      		std Z+3,r25
 8666 3d12 8283      		std Z+2,r24
 8667 3d14 1483      		std Z+4,r17
 8668 3d16 1582      		std Z+5,__zero_reg__
 8669 3d18 0E94 0000 		call fprintf_P
 8670               	.LM931:
 8671 3d1c EDB7      		in r30,__SP_L__
 8672 3d1e FEB7      		in r31,__SP_H__
 8673 3d20 3696      		adiw r30,6
 8674 3d22 0FB6      		in __tmp_reg__,__SREG__
 8675 3d24 F894      		cli
 8676 3d26 FEBF      		out __SP_H__,r31
 8677 3d28 0FBE      		out __SREG__,__tmp_reg__
 8678 3d2a EDBF      		out __SP_L__,r30
 8679 3d2c 80E0      		ldi r24,lo8(usartUSE)
 8680 3d2e 90E0      		ldi r25,hi8(usartUSE)
 8681 3d30 0E94 0000 		call chSemSignal
 8682               	.LM932:
 8683 3d34 80E0      		ldi r24,lo8(spiUSE)
 8684 3d36 90E0      		ldi r25,hi8(spiUSE)
 8685 3d38 40E0      		ldi r20,lo8(0)
 8686 3d3a 50E0      		ldi r21,hi8(0)
 8687 3d3c 60E0      		ldi r22,hlo8(0)
 8688 3d3e 70E0      		ldi r23,hhi8(0)
 8689 3d40 0E94 0000 		call chSemWaitTimeout
 8690               	.LM933:
 8691 3d44 CE01      		movw r24,r28
 8692 3d46 4F96      		adiw r24,31
 8693 3d48 60E0      		ldi r22,lo8(.LC21)
 8694 3d4a 70E0      		ldi r23,hi8(.LC21)
 8695 3d4c 4AE0      		ldi r20,lo8(10)
 8696 3d4e 50E0      		ldi r21,hi8(10)
 8697 3d50 9E01      		movw r18,r28
 8698 3d52 2F5F      		subi r18,lo8(-(1))
 8699 3d54 3F4F      		sbci r19,hi8(-(1))
 8700 3d56 0E94 0000 		call f_write
 8701 3d5a 182F      		mov r17,r24
 8702               	.LVL136:
 8703               	.LM934:
 8704 3d5c 80E0      		ldi r24,lo8(spiUSE)
 8705 3d5e 90E0      		ldi r25,hi8(spiUSE)
 8706 3d60 0E94 0000 		call chSemSignal
 8707               	.LM935:
 8708 3d64 60E1      		ldi r22,lo8(10000)
 8709 3d66 77E2      		ldi r23,hi8(10000)
 8710 3d68 80E0      		ldi r24,hlo8(10000)
 8711 3d6a 90E0      		ldi r25,hhi8(10000)
 8712 3d6c 0E94 0000 		call chThdSleep
 8713               	.LM936:
 8714 3d70 80E0      		ldi r24,lo8(usartUSE)
 8715 3d72 90E0      		ldi r25,hi8(usartUSE)
 8716 3d74 40E0      		ldi r20,lo8(0)
 8717 3d76 50E0      		ldi r21,hi8(0)
 8718 3d78 60E0      		ldi r22,hlo8(0)
 8719 3d7a 70E0      		ldi r23,hhi8(0)
 8720 3d7c 0E94 0000 		call chSemWaitTimeout
 8721               	.LM937:
 8722 3d80 00D0      		rcall .
 8723 3d82 00D0      		rcall .
 8724 3d84 00D0      		rcall .
 8725 3d86 EDB7      		in r30,__SP_L__
 8726 3d88 FEB7      		in r31,__SP_H__
 8727 3d8a 3196      		adiw r30,1
 8728 3d8c ADB7      		in r26,__SP_L__
 8729 3d8e BEB7      		in r27,__SP_H__
 8730 3d90 1296      		adiw r26,1+1
 8731 3d92 DC92      		st X,r13
 8732 3d94 CE92      		st -X,r12
 8733 3d96 1197      		sbiw r26,1
 8734 3d98 80E0      		ldi r24,lo8(__c.4195)
 8735 3d9a 90E0      		ldi r25,hi8(__c.4195)
 8736 3d9c 9383      		std Z+3,r25
 8737 3d9e 8283      		std Z+2,r24
 8738 3da0 1483      		std Z+4,r17
 8739 3da2 1582      		std Z+5,__zero_reg__
 8740 3da4 0E94 0000 		call fprintf_P
 8741               	.LM938:
 8742 3da8 EDB7      		in r30,__SP_L__
 8743 3daa FEB7      		in r31,__SP_H__
 8744 3dac 3696      		adiw r30,6
 8745 3dae 0FB6      		in __tmp_reg__,__SREG__
 8746 3db0 F894      		cli
 8747 3db2 FEBF      		out __SP_H__,r31
 8748 3db4 0FBE      		out __SREG__,__tmp_reg__
 8749 3db6 EDBF      		out __SP_L__,r30
 8750 3db8 80E0      		ldi r24,lo8(usartUSE)
 8751 3dba 90E0      		ldi r25,hi8(usartUSE)
 8752 3dbc 0E94 0000 		call chSemSignal
 8753               	.LM939:
 8754 3dc0 CE01      		movw r24,r28
 8755 3dc2 4F96      		adiw r24,31
 8756 3dc4 0E94 0000 		call f_sync
 8757               	.LM940:
 8758 3dc8 60E1      		ldi r22,lo8(10000)
 8759 3dca 77E2      		ldi r23,hi8(10000)
 8760 3dcc 80E0      		ldi r24,hlo8(10000)
 8761 3dce 90E0      		ldi r25,hhi8(10000)
 8762 3dd0 0E94 0000 		call chThdSleep
 8763               	.LM941:
 8764 3dd4 80E0      		ldi r24,lo8(sdUSE)
 8765 3dd6 90E0      		ldi r25,hi8(sdUSE)
 8766 3dd8 0E94 0000 		call chSemSignal
 8767               	.LM942:
 8768 3ddc 80E0      		ldi r24,lo8(gs(usart_putchar_printf))
 8769 3dde 90E0      		ldi r25,hi8(gs(usart_putchar_printf))
 8770 3de0 9093 0000 		sts (xfunc_out)+1,r25
 8771 3de4 8093 0000 		sts xfunc_out,r24
 8772               	.LM943:
 8773 3de8 2090 0000 		lds r2,nil+4
 8774 3dec 3090 0000 		lds r3,(nil+4)+1
 8775 3df0 4090 0000 		lds r4,(nil+4)+2
 8776 3df4 5090 0000 		lds r5,(nil+4)+3
 8777               	.LVL137:
 8778 3df8 CC57      		subi r28,lo8(-132)
 8779 3dfa DF4F      		sbci r29,hi8(-132)
 8780 3dfc 1882      		st Y,__zero_reg__
 8781 3dfe C458      		subi r28,lo8(132)
 8782 3e00 D040      		sbci r29,hi8(132)
 8783               	.LVL138:
 8784 3e02 E5E5      		ldi r30,lo8(85)
 8785 3e04 6E2E      		mov r6,r30
 8786 3e06 712C      		mov r7,__zero_reg__
 8787 3e08 812C      		mov r8,__zero_reg__
 8788 3e0a 912C      		mov r9,__zero_reg__
 8789               	.LVL139:
 8790 3e0c C058      		subi r28,lo8(-128)
 8791 3e0e DF4F      		sbci r29,hi8(-128)
 8792 3e10 1882      		st Y,__zero_reg__
 8793 3e12 1982      		std Y+1,__zero_reg__
 8794 3e14 1A82      		std Y+2,__zero_reg__
 8795 3e16 1B82      		std Y+3,__zero_reg__
 8796 3e18 C058      		subi r28,lo8(128)
 8797 3e1a D040      		sbci r29,hi8(128)
 8798               	.LVL140:
 8799 3e1c C158      		subi r28,lo8(-127)
 8800 3e1e DF4F      		sbci r29,hi8(-127)
 8801 3e20 1882      		st Y,__zero_reg__
 8802 3e22 CF57      		subi r28,lo8(127)
 8803 3e24 D040      		sbci r29,hi8(127)
 8804               	.LVL141:
 8805 3e26 EF96      		adiw r28,126-63
 8806 3e28 1FAE      		std Y+63,__zero_reg__
 8807 3e2a EF97      		sbiw r28,126-63
 8808 3e2c EE96      		adiw r28,122-60
 8809 3e2e 1CAE      		std Y+60,__zero_reg__
 8810 3e30 1DAE      		std Y+61,__zero_reg__
 8811 3e32 1EAE      		std Y+62,__zero_reg__
 8812 3e34 1FAE      		std Y+63,__zero_reg__
 8813 3e36 EE97      		sbiw r28,122-60
 8814 3e38 EA96      		adiw r28,118-60
 8815 3e3a 1CAE      		std Y+60,__zero_reg__
 8816 3e3c 1DAE      		std Y+61,__zero_reg__
 8817 3e3e 1EAE      		std Y+62,__zero_reg__
 8818 3e40 1FAE      		std Y+63,__zero_reg__
 8819 3e42 EA97      		sbiw r28,118-60
 8820 3e44 00C0      		rjmp .L395
 8821               	.LVL142:
 8822               	.L367:
 8823               	.LM944:
 8824 3e46 80E0      		ldi r24,lo8(i2cUSE)
 8825 3e48 90E0      		ldi r25,hi8(i2cUSE)
 8826 3e4a 40E0      		ldi r20,lo8(0)
 8827 3e4c 50E0      		ldi r21,hi8(0)
 8828 3e4e 60E0      		ldi r22,hlo8(0)
 8829 3e50 70E0      		ldi r23,hhi8(0)
 8830 3e52 0E94 0000 		call chSemWaitTimeout
 8831               	.LM945:
 8832 3e56 80E0      		ldi r24,lo8(LED_data_vector)
 8833 3e58 90E0      		ldi r25,hi8(LED_data_vector)
 8834 3e5a 0E94 0000 		call MAX30105_getRedIR
 8835 3e5e 6093 0000 		sts p1,r22
 8836 3e62 7093 0000 		sts (p1)+1,r23
 8837 3e66 8093 0000 		sts (p1)+2,r24
 8838 3e6a 9093 0000 		sts (p1)+3,r25
 8839               	.LM946:
 8840 3e6e 80E0      		ldi r24,lo8(i2cUSE)
 8841 3e70 90E0      		ldi r25,hi8(i2cUSE)
 8842 3e72 0E94 0000 		call chSemSignal
 8843               	.LM947:
 8844 3e76 8091 0000 		lds r24,p1
 8845 3e7a 9091 0000 		lds r25,(p1)+1
 8846 3e7e A091 0000 		lds r26,(p1)+2
 8847 3e82 B091 0000 		lds r27,(p1)+3
 8848 3e86 0097      		sbiw r24,0
 8849 3e88 A105      		cpc r26,__zero_reg__
 8850 3e8a B105      		cpc r27,__zero_reg__
 8851 3e8c 01F4      		brne .L368
 8852 3e8e 6401      		movw r12,r8
 8853 3e90 5301      		movw r10,r6
 8854               	.LVL143:
 8855               	.L369:
 8856               	.LM948:
 8857 3e92 68E2      		ldi r22,lo8(40)
 8858 3e94 70E0      		ldi r23,hi8(40)
 8859 3e96 80E0      		ldi r24,hlo8(40)
 8860 3e98 90E0      		ldi r25,hhi8(40)
 8861 3e9a 0E94 0000 		call chThdSleep
 8862 3e9e 3501      		movw r6,r10
 8863 3ea0 4601      		movw r8,r12
 8864               	.LVL144:
 8865               	.L395:
 8866               	.LM949:
 8867 3ea2 81E0      		ldi r24,lo8(1)
 8868 3ea4 4FEF      		ldi r20,lo8(-1)
 8869 3ea6 5FEF      		ldi r21,hi8(-1)
 8870 3ea8 6FEF      		ldi r22,hlo8(-1)
 8871 3eaa 7FEF      		ldi r23,hhi8(-1)
 8872 3eac 0E94 0000 		call chEvtWaitAnyTimeout
 8873 3eb0 8130      		cpi r24,lo8(1)
 8874 3eb2 01F4      		brne .+2
 8875 3eb4 00C0      		rjmp .L406
 8876               	.L365:
 8877               	.LM950:
 8878 3eb6 82E0      		ldi r24,lo8(2)
 8879 3eb8 4FEF      		ldi r20,lo8(-1)
 8880 3eba 5FEF      		ldi r21,hi8(-1)
 8881 3ebc 6FEF      		ldi r22,hlo8(-1)
 8882 3ebe 7FEF      		ldi r23,hhi8(-1)
 8883 3ec0 0E94 0000 		call chEvtWaitAnyTimeout
 8884 3ec4 8230      		cpi r24,lo8(2)
 8885 3ec6 01F4      		brne .+2
 8886 3ec8 00C0      		rjmp .L407
 8887               	.L366:
 8888               	.LM951:
 8889 3eca 84E0      		ldi r24,lo8(4)
 8890 3ecc 4FEF      		ldi r20,lo8(-1)
 8891 3ece 5FEF      		ldi r21,hi8(-1)
 8892 3ed0 6FEF      		ldi r22,hlo8(-1)
 8893 3ed2 7FEF      		ldi r23,hhi8(-1)
 8894 3ed4 0E94 0000 		call chEvtWaitAnyTimeout
 8895 3ed8 8430      		cpi r24,lo8(4)
 8896 3eda 01F0      		breq .+2
 8897 3edc 00C0      		rjmp .L367
 8898 3ede 11E0      		ldi r17,lo8(1)
 8899               	.LVL145:
 8900 3ee0 CC57      		subi r28,lo8(-132)
 8901 3ee2 DF4F      		sbci r29,hi8(-132)
 8902 3ee4 1883      		st Y,r17
 8903 3ee6 C458      		subi r28,lo8(132)
 8904 3ee8 D040      		sbci r29,hi8(132)
 8905               	.LVL146:
 8906 3eea 00C0      		rjmp .L367
 8907               	.LVL147:
 8908               	.L368:
 8909               	.LM952:
 8910 3eec 2091 0000 		lds r18,LED_data_vector+4
 8911 3ef0 3091 0000 		lds r19,(LED_data_vector+4)+1
 8912 3ef4 4091 0000 		lds r20,(LED_data_vector+4)+2
 8913 3ef8 5091 0000 		lds r21,(LED_data_vector+4)+3
 8914 3efc 80E0      		ldi r24,lo8(IR_LED_output)
 8915 3efe 90E0      		ldi r25,hi8(IR_LED_output)
 8916 3f00 60E0      		ldi r22,lo8(IR_dc_avg)
 8917 3f02 70E0      		ldi r23,hi8(IR_dc_avg)
 8918 3f04 00E0      		ldi r16,lo8(IR_HR_state)
 8919 3f06 10E0      		ldi r17,hi8(IR_HR_state)
 8920 3f08 0E94 0000 		call checkForBeat
 8921 3f0c 8093 0000 		sts IR_result,r24
 8922               	.LM953:
 8923 3f10 8091 0000 		lds r24,lcd_context_count+11
 8924 3f14 8230      		cpi r24,lo8(2)
 8925 3f16 01F4      		brne .+2
 8926 3f18 00C0      		rjmp .L408
 8927               	.L370:
 8928               	.LM954:
 8929 3f1a 8091 0000 		lds r24,USART_HB_LOGGING_ON
 8930 3f1e 8130      		cpi r24,lo8(1)
 8931 3f20 01F4      		brne .+2
 8932 3f22 00C0      		rjmp .L371
 8933 3f24 8091 0000 		lds r24,SD_HB_LOGGING_ON
 8934 3f28 8130      		cpi r24,lo8(1)
 8935 3f2a 01F4      		brne .+2
 8936 3f2c 00C0      		rjmp .L371
 8937               	.L372:
 8938               	.LM955:
 8939 3f2e 8091 0000 		lds r24,IR_result
 8940 3f32 8130      		cpi r24,lo8(1)
 8941 3f34 01F4      		brne .+2
 8942 3f36 00C0      		rjmp .L409
 8943               	.L374:
 8944               	.LM956:
 8945 3f38 8091 0000 		lds r24,ms_old_beat
 8946 3f3c 9091 0000 		lds r25,(ms_old_beat)+1
 8947 3f40 A091 0000 		lds r26,(ms_old_beat)+2
 8948 3f44 B091 0000 		lds r27,(ms_old_beat)+3
 8949 3f48 51E0      		ldi r21,lo8(1)
 8950 3f4a E52E      		mov r14,r21
 8951 3f4c F12C      		mov r15,__zero_reg__
 8952 3f4e 012D      		mov r16,__zero_reg__
 8953 3f50 112D      		mov r17,__zero_reg__
 8954 3f52 E81A      		sub r14,r24
 8955 3f54 F90A      		sbc r15,r25
 8956 3f56 0A0B      		sbc r16,r26
 8957 3f58 1B0B      		sbc r17,r27
 8958 3f5a 6091 0000 		lds r22,nil+4
 8959 3f5e 7091 0000 		lds r23,(nil+4)+1
 8960 3f62 8091 0000 		lds r24,(nil+4)+2
 8961 3f66 9091 0000 		lds r25,(nil+4)+3
 8962 3f6a 6150      		subi r22,lo8(-(-1))
 8963 3f6c 7040      		sbci r23,hi8(-(-1))
 8964 3f6e 8040      		sbci r24,hlo8(-(-1))
 8965 3f70 9040      		sbci r25,hhi8(-(-1))
 8966 3f72 6219      		sub r22,r2
 8967 3f74 7309      		sbc r23,r3
 8968 3f76 8409      		sbc r24,r4
 8969 3f78 9509      		sbc r25,r5
 8970 3f7a 24E1      		ldi r18,lo8(20)
 8971 3f7c 30E0      		ldi r19,hi8(20)
 8972 3f7e 40E0      		ldi r20,hlo8(20)
 8973 3f80 50E0      		ldi r21,hhi8(20)
 8974 3f82 0E94 0000 		call __udivmodsi4
 8975 3f86 E20E      		add r14,r18
 8976 3f88 F31E      		adc r15,r19
 8977 3f8a 041F      		adc r16,r20
 8978 3f8c 151F      		adc r17,r21
 8979 3f8e E092 0000 		sts ms_elapsed_since_last_right_now,r14
 8980 3f92 F092 0000 		sts (ms_elapsed_since_last_right_now)+1,r15
 8981 3f96 0093 0000 		sts (ms_elapsed_since_last_right_now)+2,r16
 8982 3f9a 1093 0000 		sts (ms_elapsed_since_last_right_now)+3,r17
 8983               	.LM957:
 8984 3f9e 8091 0000 		lds r24,HB_ON
 8985 3fa2 8130      		cpi r24,lo8(1)
 8986 3fa4 01F4      		brne .+2
 8987 3fa6 00C0      		rjmp .L410
 8988               	.L391:
 8989               	.LM958:
 8990 3fa8 6401      		movw r12,r8
 8991 3faa 5301      		movw r10,r6
 8992               	.LVL148:
 8993               	.L379:
 8994               	.LM959:
 8995 3fac 8091 0000 		lds r24,lcd_context_count+11
 8996 3fb0 8230      		cpi r24,lo8(2)
 8997 3fb2 01F0      		breq .+2
 8998 3fb4 00C0      		rjmp .L369
 8999 3fb6 EF96      		adiw r28,126-63
 9000 3fb8 0FAD      		ldd r16,Y+63
 9001 3fba EF97      		sbiw r28,126-63
 9002 3fbc 0130      		cpi r16,lo8(1)
 9003 3fbe 01F0      		breq .+2
 9004 3fc0 00C0      		rjmp .L369
 9005 3fc2 8091 0000 		lds r24,Red_result
 9006 3fc6 8130      		cpi r24,lo8(1)
 9007 3fc8 01F0      		breq .+2
 9008 3fca 00C0      		rjmp .L369
 9009               	.LM960:
 9010 3fcc EA96      		adiw r28,118-60
 9011 3fce 6CAD      		ldd r22,Y+60
 9012 3fd0 7DAD      		ldd r23,Y+61
 9013 3fd2 8EAD      		ldd r24,Y+62
 9014 3fd4 9FAD      		ldd r25,Y+63
 9015 3fd6 EA97      		sbiw r28,118-60
 9016 3fd8 24E6      		ldi r18,lo8(100)
 9017 3fda 30E0      		ldi r19,hi8(100)
 9018 3fdc 40E0      		ldi r20,hlo8(100)
 9019 3fde 50E0      		ldi r21,hhi8(100)
 9020 3fe0 0E94 0000 		call __mulsi3
 9021 3fe4 2091 0000 		lds r18,Red_dc_avg
 9022 3fe8 3091 0000 		lds r19,(Red_dc_avg)+1
 9023 3fec 4091 0000 		lds r20,(Red_dc_avg)+2
 9024 3ff0 5091 0000 		lds r21,(Red_dc_avg)+3
 9025 3ff4 0E94 0000 		call __divmodsi4
 9026 3ff8 7901      		movw r14,r18
 9027 3ffa 8A01      		movw r16,r20
 9028 3ffc 6091 0000 		lds r22,Red_HR_state+9
 9029 4000 7091 0000 		lds r23,(Red_HR_state+9)+1
 9030 4004 8091 0000 		lds r24,(Red_HR_state+9)+2
 9031 4008 9091 0000 		lds r25,(Red_HR_state+9)+3
 9032 400c 2091 0000 		lds r18,Red_HR_state+5
 9033 4010 3091 0000 		lds r19,(Red_HR_state+5)+1
 9034 4014 4091 0000 		lds r20,(Red_HR_state+5)+2
 9035 4018 5091 0000 		lds r21,(Red_HR_state+5)+3
 9036 401c 621B      		sub r22,r18
 9037 401e 730B      		sbc r23,r19
 9038 4020 840B      		sbc r24,r20
 9039 4022 950B      		sbc r25,r21
 9040 4024 24E6      		ldi r18,lo8(100)
 9041 4026 30E0      		ldi r19,hi8(100)
 9042 4028 40E0      		ldi r20,hlo8(100)
 9043 402a 50E0      		ldi r21,hhi8(100)
 9044 402c 0E94 0000 		call __mulsi3
 9045 4030 EE96      		adiw r28,122-60
 9046 4032 2CAD      		ldd r18,Y+60
 9047 4034 3DAD      		ldd r19,Y+61
 9048 4036 4EAD      		ldd r20,Y+62
 9049 4038 5FAD      		ldd r21,Y+63
 9050 403a EE97      		sbiw r28,122-60
 9051 403c 0E94 0000 		call __divmodsi4
 9052 4040 C801      		movw r24,r16
 9053 4042 B701      		movw r22,r14
 9054 4044 0E94 0000 		call __mulsi3
 9055 4048 2AE0      		ldi r18,lo8(10)
 9056 404a 30E0      		ldi r19,hi8(10)
 9057 404c 40E0      		ldi r20,hlo8(10)
 9058 404e 50E0      		ldi r21,hhi8(10)
 9059 4050 0E94 0000 		call __divmodsi4
 9060 4054 7901      		movw r14,r18
 9061 4056 8A01      		movw r16,r20
 9062               	.LM961:
 9063 4058 D801      		movw r26,r16
 9064 405a C701      		movw r24,r14
 9065               	.LVL149:
 9066 405c 8D52      		subi r24,lo8(-(-301))
 9067 405e 9140      		sbci r25,hi8(-(-301))
 9068 4060 A040      		sbci r26,hlo8(-(-301))
 9069 4062 B040      		sbci r27,hhi8(-(-301))
 9070 4064 8F5C      		subi r24,lo8(1999)
 9071 4066 9740      		sbci r25,hi8(1999)
 9072 4068 A040      		sbci r26,hlo8(1999)
 9073 406a B040      		sbci r27,hhi8(1999)
 9074 406c 00F4      		brsh .L392
 9075               	.LM962:
 9076 406e C801      		movw r24,r16
 9077 4070 B701      		movw r22,r14
 9078 4072 27EE      		ldi r18,lo8(-25)
 9079 4074 3FEF      		ldi r19,hi8(-25)
 9080 4076 4FEF      		ldi r20,hlo8(-25)
 9081 4078 5FEF      		ldi r21,hhi8(-25)
 9082 407a 0E94 0000 		call __mulsi3
 9083 407e 6055      		subi r22,lo8(-(110000))
 9084 4080 7245      		sbci r23,hi8(-(110000))
 9085 4082 8E4F      		sbci r24,hlo8(-(110000))
 9086 4084 9F4F      		sbci r25,hhi8(-(110000))
 9087               	.LM963:
 9088 4086 C158      		subi r28,lo8(-127)
 9089 4088 DF4F      		sbci r29,hi8(-127)
 9090 408a 3881      		ld r19,Y
 9091 408c CF57      		subi r28,lo8(127)
 9092 408e D040      		sbci r29,hi8(127)
 9093 4090 032F      		mov r16,r19
 9094               	.LVL150:
 9095 4092 10E0      		ldi r17,lo8(0)
 9096               	.LVL151:
 9097 4094 000F      		lsl r16
 9098 4096 111F      		rol r17
 9099 4098 000F      		lsl r16
 9100 409a 111F      		rol r17
 9101               	.LVL152:
 9102 409c 41E0      		ldi r20,lo8(1)
 9103 409e 50E0      		ldi r21,hi8(1)
 9104 40a0 4C0F      		add r20,r28
 9105 40a2 5D1F      		adc r21,r29
 9106 40a4 040F      		add r16,r20
 9107 40a6 151F      		adc r17,r21
 9108               	.LVL153:
 9109 40a8 28EE      		ldi r18,lo8(1000)
 9110 40aa 33E0      		ldi r19,hi8(1000)
 9111 40ac 40E0      		ldi r20,hlo8(1000)
 9112 40ae 50E0      		ldi r21,hhi8(1000)
 9113 40b0 0E94 0000 		call __divmodsi4
 9114 40b4 D801      		movw r26,r16
 9115 40b6 1296      		adiw r26,2
 9116 40b8 2D93      		st X+,r18
 9117 40ba 3D93      		st X+,r19
 9118 40bc 4D93      		st X+,r20
 9119 40be 5C93      		st X,r21
 9120 40c0 1597      		sbiw r26,2+3
 9121               	.LM964:
 9122 40c2 C158      		subi r28,lo8(-127)
 9123 40c4 DF4F      		sbci r29,hi8(-127)
 9124 40c6 8881      		ld r24,Y
 9125 40c8 CF57      		subi r28,lo8(127)
 9126 40ca D040      		sbci r29,hi8(127)
 9127 40cc 8F5F      		subi r24,lo8(-(1))
 9128 40ce 67E0      		ldi r22,lo8(7)
 9129 40d0 0E94 0000 		call __udivmodqi4
 9130 40d4 C158      		subi r28,lo8(-127)
 9131 40d6 DF4F      		sbci r29,hi8(-127)
 9132 40d8 9883      		st Y,r25
 9133 40da CF57      		subi r28,lo8(127)
 9134 40dc D040      		sbci r29,hi8(127)
 9135               	.LVL154:
 9136               	.L392:
 9137 40de FE01      		movw r30,r28
 9138 40e0 3396      		adiw r30,3
 9139 40e2 6624      		clr r6
 9140 40e4 7724      		clr r7
 9141 40e6 4301      		movw r8,r6
 9142               	.LVL155:
 9143               	.L393:
 9144               	.LM965:
 9145 40e8 8191      		ld r24,Z+
 9146 40ea 9191      		ld r25,Z+
 9147 40ec A191      		ld r26,Z+
 9148 40ee B191      		ld r27,Z+
 9149 40f0 680E      		add r6,r24
 9150 40f2 791E      		adc r7,r25
 9151 40f4 8A1E      		adc r8,r26
 9152 40f6 9B1E      		adc r9,r27
 9153               	.LM966:
 9154 40f8 CB57      		subi r28,lo8(-133)
 9155 40fa DF4F      		sbci r29,hi8(-133)
 9156 40fc E880      		ld r14,Y
 9157 40fe F980      		ldd r15,Y+1
 9158 4100 C558      		subi r28,lo8(133)
 9159 4102 D040      		sbci r29,hi8(133)
 9160               	.LVL156:
 9161 4104 EE15      		cp r30,r14
 9162 4106 FF05      		cpc r31,r15
 9163 4108 01F4      		brne .L393
 9164               	.LM967:
 9165 410a 8091 0000 		lds r24,lcd_context
 9166 410e 8C30      		cpi r24,lo8(12)
 9167 4110 01F4      		brne .+2
 9168 4112 00C0      		rjmp .L394
 9169               	.L404:
 9170               	.LM968:
 9171 4114 EF96      		adiw r28,126-63
 9172 4116 1FAE      		std Y+63,__zero_reg__
 9173 4118 EF97      		sbiw r28,126-63
 9174 411a 00C0      		rjmp .L369
 9175               	.LVL157:
 9176               	.L407:
 9177               	.LM969:
 9178 411c 81E0      		ldi r24,lo8(1)
 9179 411e 0E94 0000 		call st7735_setTextSize
 9180               	.LM970:
 9181 4122 81E0      		ldi r24,lo8(1)
 9182 4124 8093 0000 		sts lcd_context_count+11,r24
 9183               	.LM971:
 9184 4128 80E0      		ldi r24,lo8(lcdUSE)
 9185 412a 90E0      		ldi r25,hi8(lcdUSE)
 9186 412c 0E94 0000 		call chSemSignal
 9187 4130 00C0      		rjmp .L366
 9188               	.L406:
 9189               	.LM972:
 9190 4132 80E0      		ldi r24,lo8(lcdUSE)
 9191 4134 90E0      		ldi r25,hi8(lcdUSE)
 9192 4136 40E0      		ldi r20,lo8(0)
 9193 4138 50E0      		ldi r21,hi8(0)
 9194 413a 60E0      		ldi r22,hlo8(0)
 9195 413c 70E0      		ldi r23,hhi8(0)
 9196 413e 0E94 0000 		call chSemWaitTimeout
 9197               	.LM973:
 9198 4142 FCE0      		ldi r31,lo8(12)
 9199 4144 F093 0000 		sts lcd_context,r31
 9200               	.LM974:
 9201 4148 80E0      		ldi r24,lo8(spiUSE)
 9202 414a 90E0      		ldi r25,hi8(spiUSE)
 9203 414c 40E0      		ldi r20,lo8(0)
 9204 414e 50E0      		ldi r21,hi8(0)
 9205 4150 60E0      		ldi r22,hlo8(0)
 9206 4152 70E0      		ldi r23,hhi8(0)
 9207 4154 0E94 0000 		call chSemWaitTimeout
 9208               	.LM975:
 9209 4158 80E0      		ldi r24,lo8(0)
 9210 415a 60E0      		ldi r22,lo8(0)
 9211 415c 40EA      		ldi r20,lo8(-96)
 9212 415e 20E8      		ldi r18,lo8(-128)
 9213 4160 00E0      		ldi r16,lo8(0)
 9214 4162 10E0      		ldi r17,hi8(0)
 9215 4164 0E94 0000 		call st7735_fill_rect
 9216               	.LM976:
 9217 4168 85E0      		ldi r24,lo8(5)
 9218 416a 90E0      		ldi r25,hi8(5)
 9219 416c 6AE0      		ldi r22,lo8(10)
 9220 416e 70E0      		ldi r23,hi8(10)
 9221 4170 0E94 0000 		call st7735_setCursor
 9222               	.LM977:
 9223 4174 80E0      		ldi r24,lo8(spiUSE)
 9224 4176 90E0      		ldi r25,hi8(spiUSE)
 9225 4178 0E94 0000 		call chSemSignal
 9226               	.LM978:
 9227 417c 80E0      		ldi r24,lo8(sdUSE)
 9228 417e 90E0      		ldi r25,hi8(sdUSE)
 9229 4180 40E0      		ldi r20,lo8(0)
 9230 4182 50E0      		ldi r21,hi8(0)
 9231 4184 60E0      		ldi r22,hlo8(0)
 9232 4186 70E0      		ldi r23,hhi8(0)
 9233 4188 0E94 0000 		call chSemWaitTimeout
 9234               	.LM979:
 9235 418c 80E0      		ldi r24,lo8(.LC22)
 9236 418e 90E0      		ldi r25,hi8(.LC22)
 9237 4190 60E0      		ldi r22,lo8(0)
 9238 4192 40E0      		ldi r20,lo8(0)
 9239 4194 0E94 0000 		call bmpDraw
 9240               	.LM980:
 9241 4198 80E0      		ldi r24,lo8(sdUSE)
 9242 419a 90E0      		ldi r25,hi8(sdUSE)
 9243 419c 0E94 0000 		call chSemSignal
 9244 41a0 01E0      		ldi r16,lo8(1)
 9245 41a2 CC57      		subi r28,lo8(-132)
 9246 41a4 DF4F      		sbci r29,hi8(-132)
 9247 41a6 0883      		st Y,r16
 9248 41a8 C458      		subi r28,lo8(132)
 9249 41aa D040      		sbci r29,hi8(132)
 9250               	.LVL158:
 9251 41ac 00C0      		rjmp .L365
 9252               	.L371:
 9253               	.LM981:
 9254 41ae 2DB7      		in r18,__SP_L__
 9255 41b0 3EB7      		in r19,__SP_H__
 9256 41b2 2A51      		subi r18,lo8(-(-26))
 9257 41b4 3040      		sbci r19,hi8(-(-26))
 9258 41b6 0FB6      		in __tmp_reg__,__SREG__
 9259 41b8 F894      		cli
 9260 41ba 3EBF      		out __SP_H__,r19
 9261 41bc 0FBE      		out __SREG__,__tmp_reg__
 9262 41be 2DBF      		out __SP_L__,r18
 9263 41c0 0DB7      		in r16,__SP_L__
 9264 41c2 1EB7      		in r17,__SP_H__
 9265 41c4 0F5F      		subi r16,lo8(-(1))
 9266 41c6 1F4F      		sbci r17,hi8(-(1))
 9267 41c8 EFE3      		ldi r30,lo8(63)
 9268 41ca F0E0      		ldi r31,hi8(63)
 9269 41cc EC0F      		add r30,r28
 9270 41ce FD1F      		adc r31,r29
 9271 41d0 ADB7      		in r26,__SP_L__
 9272 41d2 BEB7      		in r27,__SP_H__
 9273 41d4 1296      		adiw r26,1+1
 9274 41d6 FC93      		st X,r31
 9275 41d8 EE93      		st -X,r30
 9276 41da 1197      		sbiw r26,1
 9277 41dc E0E0      		ldi r30,lo8(__c.4198)
 9278 41de F0E0      		ldi r31,hi8(__c.4198)
 9279 41e0 D801      		movw r26,r16
 9280 41e2 1396      		adiw r26,2+1
 9281 41e4 FC93      		st X,r31
 9282 41e6 EE93      		st -X,r30
 9283 41e8 1297      		sbiw r26,2
 9284 41ea 6091 0000 		lds r22,nil+4
 9285 41ee 7091 0000 		lds r23,(nil+4)+1
 9286 41f2 8091 0000 		lds r24,(nil+4)+2
 9287 41f6 9091 0000 		lds r25,(nil+4)+3
 9288 41fa 6150      		subi r22,lo8(-(-1))
 9289 41fc 7040      		sbci r23,hi8(-(-1))
 9290 41fe 8040      		sbci r24,hlo8(-(-1))
 9291 4200 9040      		sbci r25,hhi8(-(-1))
 9292 4202 6219      		sub r22,r2
 9293 4204 7309      		sbc r23,r3
 9294 4206 8409      		sbc r24,r4
 9295 4208 9509      		sbc r25,r5
 9296 420a 24E1      		ldi r18,lo8(20)
 9297 420c 30E0      		ldi r19,hi8(20)
 9298 420e 40E0      		ldi r20,hlo8(20)
 9299 4210 50E0      		ldi r21,hhi8(20)
 9300 4212 0E94 0000 		call __udivmodsi4
 9301 4216 2F5F      		subi r18,lo8(-(1))
 9302 4218 3F4F      		sbci r19,hi8(-(1))
 9303 421a 4F4F      		sbci r20,hlo8(-(1))
 9304 421c 5F4F      		sbci r21,hhi8(-(1))
 9305 421e D801      		movw r26,r16
 9306 4220 1496      		adiw r26,4
 9307 4222 2D93      		st X+,r18
 9308 4224 3D93      		st X+,r19
 9309 4226 4D93      		st X+,r20
 9310 4228 5C93      		st X,r21
 9311 422a 1797      		sbiw r26,4+3
 9312 422c 8091 0000 		lds r24,LED_data_vector+4
 9313 4230 9091 0000 		lds r25,(LED_data_vector+4)+1
 9314 4234 A091 0000 		lds r26,(LED_data_vector+4)+2
 9315 4238 B091 0000 		lds r27,(LED_data_vector+4)+3
 9316 423c F801      		movw r30,r16
 9317 423e 8087      		std Z+8,r24
 9318 4240 9187      		std Z+9,r25
 9319 4242 A287      		std Z+10,r26
 9320 4244 B387      		std Z+11,r27
 9321 4246 8091 0000 		lds r24,IR_dc_avg
 9322 424a 9091 0000 		lds r25,(IR_dc_avg)+1
 9323 424e A091 0000 		lds r26,(IR_dc_avg)+2
 9324 4252 B091 0000 		lds r27,(IR_dc_avg)+3
 9325 4256 8487      		std Z+12,r24
 9326 4258 9587      		std Z+13,r25
 9327 425a A687      		std Z+14,r26
 9328 425c B787      		std Z+15,r27
 9329 425e 8091 0000 		lds r24,IR_LED_output
 9330 4262 9091 0000 		lds r25,(IR_LED_output)+1
 9331 4266 A091 0000 		lds r26,(IR_LED_output)+2
 9332 426a B091 0000 		lds r27,(IR_LED_output)+3
 9333 426e 808B      		std Z+16,r24
 9334 4270 918B      		std Z+17,r25
 9335 4272 A28B      		std Z+18,r26
 9336 4274 B38B      		std Z+19,r27
 9337 4276 8091 0000 		lds r24,IR_result
 9338 427a 848B      		std Z+20,r24
 9339 427c 158A      		std Z+21,__zero_reg__
 9340 427e C058      		subi r28,lo8(-128)
 9341 4280 DF4F      		sbci r29,hi8(-128)
 9342 4282 2881      		ld r18,Y
 9343 4284 3981      		ldd r19,Y+1
 9344 4286 4A81      		ldd r20,Y+2
 9345 4288 5B81      		ldd r21,Y+3
 9346 428a C058      		subi r28,lo8(128)
 9347 428c D040      		sbci r29,hi8(128)
 9348 428e D801      		movw r26,r16
 9349 4290 5696      		adiw r26,22
 9350 4292 2D93      		st X+,r18
 9351 4294 3D93      		st X+,r19
 9352 4296 4D93      		st X+,r20
 9353 4298 5C93      		st X,r21
 9354 429a 5997      		sbiw r26,22+3
 9355 429c 0E94 0000 		call xsprintf_P
 9356               	.LM982:
 9357 42a0 EDB7      		in r30,__SP_L__
 9358 42a2 FEB7      		in r31,__SP_H__
 9359 42a4 7A96      		adiw r30,26
 9360 42a6 0FB6      		in __tmp_reg__,__SREG__
 9361 42a8 F894      		cli
 9362 42aa FEBF      		out __SP_H__,r31
 9363 42ac 0FBE      		out __SREG__,__tmp_reg__
 9364 42ae EDBF      		out __SP_L__,r30
 9365 42b0 8091 0000 		lds r24,USART_HB_LOGGING_ON
 9366 42b4 8130      		cpi r24,lo8(1)
 9367 42b6 01F4      		brne .L373
 9368               	.LM983:
 9369 42b8 80E0      		ldi r24,lo8(usartUSE)
 9370 42ba 90E0      		ldi r25,hi8(usartUSE)
 9371 42bc 40E0      		ldi r20,lo8(0)
 9372 42be 50E0      		ldi r21,hi8(0)
 9373 42c0 60E0      		ldi r22,hlo8(0)
 9374 42c2 70E0      		ldi r23,hhi8(0)
 9375 42c4 0E94 0000 		call chSemWaitTimeout
 9376               	.LM984:
 9377 42c8 00D0      		rcall .
 9378 42ca 00D0      		rcall .
 9379 42cc 00D0      		rcall .
 9380 42ce EDB7      		in r30,__SP_L__
 9381 42d0 FEB7      		in r31,__SP_H__
 9382 42d2 3196      		adiw r30,1
 9383 42d4 8091 0000 		lds r24,xfunc_out
 9384 42d8 9091 0000 		lds r25,(xfunc_out)+1
 9385 42dc ADB7      		in r26,__SP_L__
 9386 42de BEB7      		in r27,__SP_H__
 9387 42e0 1296      		adiw r26,1+1
 9388 42e2 9C93      		st X,r25
 9389 42e4 8E93      		st -X,r24
 9390 42e6 1197      		sbiw r26,1
 9391 42e8 70E0      		ldi r23,lo8(__c.4200)
 9392 42ea E72E      		mov r14,r23
 9393 42ec 70E0      		ldi r23,hi8(__c.4200)
 9394 42ee F72E      		mov r15,r23
 9395 42f0 F382      		std Z+3,r15
 9396 42f2 E282      		std Z+2,r14
 9397 42f4 0FE3      		ldi r16,lo8(63)
 9398 42f6 10E0      		ldi r17,hi8(63)
 9399 42f8 0C0F      		add r16,r28
 9400 42fa 1D1F      		adc r17,r29
 9401 42fc 1583      		std Z+5,r17
 9402 42fe 0483      		std Z+4,r16
 9403 4300 0E94 0000 		call xfprintf_P
 9404               	.LM985:
 9405 4304 2DB7      		in r18,__SP_L__
 9406 4306 3EB7      		in r19,__SP_H__
 9407 4308 2A5F      		subi r18,lo8(-(6))
 9408 430a 3F4F      		sbci r19,hi8(-(6))
 9409 430c 0FB6      		in __tmp_reg__,__SREG__
 9410 430e F894      		cli
 9411 4310 3EBF      		out __SP_H__,r19
 9412 4312 0FBE      		out __SREG__,__tmp_reg__
 9413 4314 2DBF      		out __SP_L__,r18
 9414 4316 80E0      		ldi r24,lo8(usartUSE)
 9415 4318 90E0      		ldi r25,hi8(usartUSE)
 9416 431a 0E94 0000 		call chSemSignal
 9417               	.LVL159:
 9418               	.L373:
 9419               	.LM986:
 9420 431e 8091 0000 		lds r24,SD_HB_LOGGING_ON
 9421 4322 8130      		cpi r24,lo8(1)
 9422 4324 01F0      		breq .+2
 9423 4326 00C0      		rjmp .L372
 9424               	.LM987:
 9425 4328 80E0      		ldi r24,lo8(sdUSE)
 9426 432a 90E0      		ldi r25,hi8(sdUSE)
 9427 432c 40E0      		ldi r20,lo8(0)
 9428 432e 50E0      		ldi r21,hi8(0)
 9429 4330 60E0      		ldi r22,hlo8(0)
 9430 4332 70E0      		ldi r23,hhi8(0)
 9431 4334 0E94 0000 		call chSemWaitTimeout
 9432               	.LM988:
 9433 4338 80E0      		ldi r24,lo8(spiUSE)
 9434 433a 90E0      		ldi r25,hi8(spiUSE)
 9435 433c 40E0      		ldi r20,lo8(0)
 9436 433e 50E0      		ldi r21,hi8(0)
 9437 4340 60E0      		ldi r22,hlo8(0)
 9438 4342 70E0      		ldi r23,hhi8(0)
 9439 4344 0E94 0000 		call chSemWaitTimeout
 9440               	.LM989:
 9441 4348 CE01      		movw r24,r28
 9442 434a 4F96      		adiw r24,31
 9443 434c BE01      		movw r22,r28
 9444 434e 615C      		subi r22,lo8(-(63))
 9445 4350 7F4F      		sbci r23,hi8(-(63))
 9446 4352 46E3      		ldi r20,lo8(54)
 9447 4354 50E0      		ldi r21,hi8(54)
 9448 4356 9E01      		movw r18,r28
 9449 4358 2F5F      		subi r18,lo8(-(1))
 9450 435a 3F4F      		sbci r19,hi8(-(1))
 9451 435c 0E94 0000 		call f_write
 9452               	.LM990:
 9453 4360 CE01      		movw r24,r28
 9454 4362 4F96      		adiw r24,31
 9455 4364 0E94 0000 		call f_sync
 9456               	.LM991:
 9457 4368 80E0      		ldi r24,lo8(spiUSE)
 9458 436a 90E0      		ldi r25,hi8(spiUSE)
 9459 436c 0E94 0000 		call chSemSignal
 9460               	.LM992:
 9461 4370 80E0      		ldi r24,lo8(sdUSE)
 9462 4372 90E0      		ldi r25,hi8(sdUSE)
 9463 4374 0E94 0000 		call chSemSignal
 9464               	.LM993:
 9465 4378 8091 0000 		lds r24,IR_result
 9466 437c 8130      		cpi r24,lo8(1)
 9467 437e 01F0      		breq .+2
 9468 4380 00C0      		rjmp .L374
 9469               	.L409:
 9470               	.LM994:
 9471 4382 6091 0000 		lds r22,nil+4
 9472 4386 7091 0000 		lds r23,(nil+4)+1
 9473 438a 8091 0000 		lds r24,(nil+4)+2
 9474 438e 9091 0000 		lds r25,(nil+4)+3
 9475 4392 6150      		subi r22,lo8(-(-1))
 9476 4394 7040      		sbci r23,hi8(-(-1))
 9477 4396 8040      		sbci r24,hlo8(-(-1))
 9478 4398 9040      		sbci r25,hhi8(-(-1))
 9479 439a 6219      		sub r22,r2
 9480 439c 7309      		sbc r23,r3
 9481 439e 8409      		sbc r24,r4
 9482 43a0 9509      		sbc r25,r5
 9483 43a2 24E1      		ldi r18,lo8(20)
 9484 43a4 30E0      		ldi r19,hi8(20)
 9485 43a6 40E0      		ldi r20,hlo8(20)
 9486 43a8 50E0      		ldi r21,hhi8(20)
 9487 43aa 0E94 0000 		call __udivmodsi4
 9488 43ae 2F5F      		subi r18,lo8(-(1))
 9489 43b0 3F4F      		sbci r19,hi8(-(1))
 9490 43b2 4F4F      		sbci r20,hlo8(-(1))
 9491 43b4 5F4F      		sbci r21,hhi8(-(1))
 9492 43b6 2093 0000 		sts ms_current_beat,r18
 9493 43ba 3093 0000 		sts (ms_current_beat)+1,r19
 9494 43be 4093 0000 		sts (ms_current_beat)+2,r20
 9495 43c2 5093 0000 		sts (ms_current_beat)+3,r21
 9496               	.LM995:
 9497 43c6 8091 0000 		lds r24,ms_old_beat
 9498 43ca 9091 0000 		lds r25,(ms_old_beat)+1
 9499 43ce A091 0000 		lds r26,(ms_old_beat)+2
 9500 43d2 B091 0000 		lds r27,(ms_old_beat)+3
 9501 43d6 7901      		movw r14,r18
 9502 43d8 8A01      		movw r16,r20
 9503 43da E81A      		sub r14,r24
 9504 43dc F90A      		sbc r15,r25
 9505 43de 0A0B      		sbc r16,r26
 9506 43e0 1B0B      		sbc r17,r27
 9507 43e2 E092 0000 		sts ms_elapsed_since_last,r14
 9508 43e6 F092 0000 		sts (ms_elapsed_since_last)+1,r15
 9509 43ea 0093 0000 		sts (ms_elapsed_since_last)+2,r16
 9510 43ee 1093 0000 		sts (ms_elapsed_since_last)+3,r17
 9511               	.LM996:
 9512 43f2 2093 0000 		sts ms_old_beat,r18
 9513 43f6 3093 0000 		sts (ms_old_beat)+1,r19
 9514 43fa 4093 0000 		sts (ms_old_beat)+2,r20
 9515 43fe 5093 0000 		sts (ms_old_beat)+3,r21
 9516               	.LM997:
 9517 4402 CC57      		subi r28,lo8(-132)
 9518 4404 DF4F      		sbci r29,hi8(-132)
 9519 4406 0881      		ld r16,Y
 9520 4408 C458      		subi r28,lo8(132)
 9521 440a D040      		sbci r29,hi8(132)
 9522 440c 0130      		cpi r16,lo8(1)
 9523 440e 01F4      		brne .+2
 9524 4410 00C0      		rjmp .L411
 9525               	.L375:
 9526               	.LM998:
 9527 4412 2091 0000 		lds r18,ms_elapsed_since_last
 9528 4416 3091 0000 		lds r19,(ms_elapsed_since_last)+1
 9529 441a 4091 0000 		lds r20,(ms_elapsed_since_last)+2
 9530 441e 5091 0000 		lds r21,(ms_elapsed_since_last)+3
 9531 4422 8091 0000 		lds r24,blanking_time
 9532 4426 9091 0000 		lds r25,(blanking_time)+1
 9533 442a A091 0000 		lds r26,(blanking_time)+2
 9534 442e B091 0000 		lds r27,(blanking_time)+3
 9535 4432 8217      		cp r24,r18
 9536 4434 9307      		cpc r25,r19
 9537 4436 A407      		cpc r26,r20
 9538 4438 B507      		cpc r27,r21
 9539 443a 00F4      		brsh .+2
 9540 443c 00C0      		rjmp .L378
 9541 443e 6401      		movw r12,r8
 9542 4440 5301      		movw r10,r6
 9543 4442 CC57      		subi r28,lo8(-132)
 9544 4444 DF4F      		sbci r29,hi8(-132)
 9545 4446 1882      		st Y,__zero_reg__
 9546 4448 C458      		subi r28,lo8(132)
 9547 444a D040      		sbci r29,hi8(132)
 9548               	.LVL160:
 9549 444c 00C0      		rjmp .L379
 9550               	.L410:
 9551               	.LM999:
 9552 444e 8091 0000 		lds r24,ms_elapsed_since_last
 9553 4452 9091 0000 		lds r25,(ms_elapsed_since_last)+1
 9554 4456 A091 0000 		lds r26,(ms_elapsed_since_last)+2
 9555 445a B091 0000 		lds r27,(ms_elapsed_since_last)+3
 9556 445e B695      		lsr r27
 9557 4460 A795      		ror r26
 9558 4462 9795      		ror r25
 9559 4464 8795      		ror r24
 9560 4466 B695      		lsr r27
 9561 4468 A795      		ror r26
 9562 446a 9795      		ror r25
 9563 446c 8795      		ror r24
 9564 446e 8E15      		cp r24,r14
 9565 4470 9F05      		cpc r25,r15
 9566 4472 A007      		cpc r26,r16
 9567 4474 B107      		cpc r27,r17
 9568 4476 00F0      		brlo .+2
 9569 4478 00C0      		rjmp .L391
 9570               	.LM1000:
 9571 447a 1092 0000 		sts HB_ON,__zero_reg__
 9572               	.LM1001:
 9573 447e 8091 0000 		lds r24,lcd_context
 9574 4482 8C30      		cpi r24,lo8(12)
 9575 4484 01F0      		breq .+2
 9576 4486 00C0      		rjmp .L391
 9577               	.LM1002:
 9578 4488 8091 0000 		lds r24,lcd_context_count+11
 9579 448c 8130      		cpi r24,lo8(1)
 9580 448e 01F0      		breq .+2
 9581 4490 00C0      		rjmp .L391
 9582               	.LM1003:
 9583 4492 80E0      		ldi r24,lo8(spiUSE)
 9584 4494 90E0      		ldi r25,hi8(spiUSE)
 9585 4496 40E0      		ldi r20,lo8(0)
 9586 4498 50E0      		ldi r21,hi8(0)
 9587 449a 60E0      		ldi r22,hlo8(0)
 9588 449c 70E0      		ldi r23,hhi8(0)
 9589 449e 0E94 0000 		call chSemWaitTimeout
 9590               	.LM1004:
 9591 44a2 83E2      		ldi r24,lo8(35)
 9592 44a4 90E0      		ldi r25,hi8(35)
 9593 44a6 66E5      		ldi r22,lo8(86)
 9594 44a8 70E0      		ldi r23,hi8(86)
 9595 44aa 0E94 0000 		call st7735_setCursor
 9596               	.LM1005:
 9597 44ae 82E0      		ldi r24,lo8(2)
 9598 44b0 0E94 0000 		call st7735_setTextSize
 9599               	.LM1006:
 9600 44b4 00D0      		rcall .
 9601 44b6 00D0      		rcall .
 9602 44b8 E0E0      		ldi r30,lo8(st7735_out)
 9603 44ba F0E0      		ldi r31,hi8(st7735_out)
 9604 44bc ADB7      		in r26,__SP_L__
 9605 44be BEB7      		in r27,__SP_H__
 9606 44c0 1296      		adiw r26,1+1
 9607 44c2 FC93      		st X,r31
 9608 44c4 EE93      		st -X,r30
 9609 44c6 1197      		sbiw r26,1
 9610 44c8 30E0      		ldi r19,lo8(__c.4214)
 9611 44ca E32E      		mov r14,r19
 9612 44cc 30E0      		ldi r19,hi8(__c.4214)
 9613 44ce F32E      		mov r15,r19
 9614 44d0 1496      		adiw r26,3+1
 9615 44d2 FC92      		st X,r15
 9616 44d4 EE92      		st -X,r14
 9617 44d6 1397      		sbiw r26,3
 9618 44d8 0E94 0000 		call fprintf_P
 9619               	.LM1007:
 9620 44dc 0F90      		pop __tmp_reg__
 9621 44de 0F90      		pop __tmp_reg__
 9622 44e0 0F90      		pop __tmp_reg__
 9623 44e2 0F90      		pop __tmp_reg__
 9624 44e4 80E0      		ldi r24,lo8(spiUSE)
 9625 44e6 90E0      		ldi r25,hi8(spiUSE)
 9626 44e8 0E94 0000 		call chSemSignal
 9627 44ec 6401      		movw r12,r8
 9628 44ee 5301      		movw r10,r6
 9629 44f0 00C0      		rjmp .L379
 9630               	.LVL161:
 9631               	.L408:
 9632               	.LM1008:
 9633 44f2 2091 0000 		lds r18,LED_data_vector
 9634 44f6 3091 0000 		lds r19,(LED_data_vector)+1
 9635 44fa 4091 0000 		lds r20,(LED_data_vector)+2
 9636 44fe 5091 0000 		lds r21,(LED_data_vector)+3
 9637 4502 80E0      		ldi r24,lo8(Red_LED_output)
 9638 4504 90E0      		ldi r25,hi8(Red_LED_output)
 9639 4506 60E0      		ldi r22,lo8(Red_dc_avg)
 9640 4508 70E0      		ldi r23,hi8(Red_dc_avg)
 9641 450a 00E0      		ldi r16,lo8(Red_HR_state)
 9642 450c 10E0      		ldi r17,hi8(Red_HR_state)
 9643 450e 0E94 0000 		call checkForBeat
 9644 4512 8093 0000 		sts Red_result,r24
 9645 4516 00C0      		rjmp .L370
 9646               	.LVL162:
 9647               	.L378:
 9648               	.LM1009:
 9649 4518 60E6      		ldi r22,lo8(60000)
 9650 451a 7AEE      		ldi r23,hi8(60000)
 9651 451c 80E0      		ldi r24,hlo8(60000)
 9652 451e 90E0      		ldi r25,hhi8(60000)
 9653 4520 0E94 0000 		call __divmodsi4
 9654 4524 7901      		movw r14,r18
 9655 4526 8A01      		movw r16,r20
 9656 4528 C058      		subi r28,lo8(-128)
 9657 452a DF4F      		sbci r29,hi8(-128)
 9658 452c E882      		st Y,r14
 9659 452e F982      		std Y+1,r15
 9660 4530 0A83      		std Y+2,r16
 9661 4532 1B83      		std Y+3,r17
 9662 4534 C058      		subi r28,lo8(128)
 9663 4536 D040      		sbci r29,hi8(128)
 9664               	.LM1010:
 9665 4538 D801      		movw r26,r16
 9666 453a C701      		movw r24,r14
 9667 453c 4497      		sbiw r24,20
 9668 453e A109      		sbc r26,__zero_reg__
 9669 4540 B109      		sbc r27,__zero_reg__
 9670 4542 833D      		cpi r24,lo8(211)
 9671 4544 9105      		cpc r25,__zero_reg__
 9672 4546 A105      		cpc r26,__zero_reg__
 9673 4548 B105      		cpc r27,__zero_reg__
 9674 454a 00F0      		brlo .L380
 9675               	.LVL163:
 9676 454c 6401      		movw r12,r8
 9677 454e 5301      		movw r10,r6
 9678               	.LVL164:
 9679               	.L381:
 9680               	.LM1011:
 9681 4550 8091 0000 		lds r24,lcd_context
 9682               	.LVL165:
 9683 4554 8C30      		cpi r24,lo8(12)
 9684 4556 01F4      		brne .+2
 9685 4558 00C0      		rjmp .L412
 9686               	.L389:
 9687               	.LM1012:
 9688 455a CC57      		subi r28,lo8(-132)
 9689 455c DF4F      		sbci r29,hi8(-132)
 9690 455e 1882      		st Y,__zero_reg__
 9691 4560 C458      		subi r28,lo8(132)
 9692 4562 D040      		sbci r29,hi8(132)
 9693               	.LVL166:
 9694 4564 00C0      		rjmp .L379
 9695               	.LVL167:
 9696               	.L411:
 9697               	.LM1013:
 9698 4566 8091 0000 		lds r24,lcd_context
 9699 456a 8C30      		cpi r24,lo8(12)
 9700 456c 01F4      		brne .+2
 9701 456e 00C0      		rjmp .L413
 9702               	.L376:
 9703               	.LM1014:
 9704 4570 1092 0000 		sts blanking_time,__zero_reg__
 9705 4574 1092 0000 		sts (blanking_time)+1,__zero_reg__
 9706 4578 1092 0000 		sts (blanking_time)+2,__zero_reg__
 9707 457c 1092 0000 		sts (blanking_time)+3,__zero_reg__
 9708 4580 00C0      		rjmp .L375
 9709               	.LVL168:
 9710               	.L380:
 9711               	.LM1015:
 9712 4582 81E0      		ldi r24,lo8(1)
 9713 4584 8093 0000 		sts HB_ON,r24
 9714               	.LM1016:
 9715 4588 D401      		movw r26,r8
 9716 458a C301      		movw r24,r6
 9717 458c B595      		asr r27
 9718 458e A795      		ror r26
 9719 4590 9795      		ror r25
 9720 4592 8795      		ror r24
 9721 4594 B595      		asr r27
 9722 4596 A795      		ror r26
 9723 4598 9795      		ror r25
 9724 459a 8795      		ror r24
 9725 459c C058      		subi r28,lo8(-128)
 9726 459e DF4F      		sbci r29,hi8(-128)
 9727 45a0 2881      		ld r18,Y
 9728 45a2 3981      		ldd r19,Y+1
 9729 45a4 4A81      		ldd r20,Y+2
 9730 45a6 5B81      		ldd r21,Y+3
 9731 45a8 C058      		subi r28,lo8(128)
 9732 45aa D040      		sbci r29,hi8(128)
 9733 45ac 8217      		cp r24,r18
 9734 45ae 9307      		cpc r25,r19
 9735 45b0 A407      		cpc r26,r20
 9736 45b2 B507      		cpc r27,r21
 9737 45b4 04F0      		brlt .+2
 9738 45b6 00C0      		rjmp .L382
 9739               	.LVL169:
 9740 45b8 D401      		movw r26,r8
 9741 45ba C301      		movw r24,r6
 9742 45bc 880F      		lsl r24
 9743 45be 991F      		rol r25
 9744 45c0 AA1F      		rol r26
 9745 45c2 BB1F      		rol r27
 9746 45c4 880F      		lsl r24
 9747 45c6 991F      		rol r25
 9748 45c8 AA1F      		rol r26
 9749 45ca BB1F      		rol r27
 9750 45cc 2817      		cp r18,r24
 9751 45ce 3907      		cpc r19,r25
 9752 45d0 4A07      		cpc r20,r26
 9753 45d2 5B07      		cpc r21,r27
 9754 45d4 04F0      		brlt .+2
 9755 45d6 00C0      		rjmp .L382
 9756               	.LM1017:
 9757 45d8 9C01      		movw r18,r24
 9758 45da AD01      		movw r20,r26
 9759 45dc 220F      		lsl r18
 9760 45de 331F      		rol r19
 9761 45e0 441F      		rol r20
 9762 45e2 551F      		rol r21
 9763 45e4 68E4      		ldi r22,lo8(16200)
 9764 45e6 7FE3      		ldi r23,hi8(16200)
 9765 45e8 80E0      		ldi r24,hlo8(16200)
 9766 45ea 90E0      		ldi r25,hhi8(16200)
 9767 45ec 0E94 0000 		call __divmodsi4
 9768 45f0 C901      		movw r24,r18
 9769 45f2 DA01      		movw r26,r20
 9770 45f4 BC01      		movw r22,r24
 9771 45f6 CD01      		movw r24,r26
 9772               	.LVL170:
 9773 45f8 6432      		cpi r22,lo8(36)
 9774 45fa 7105      		cpc r23,__zero_reg__
 9775 45fc 8105      		cpc r24,__zero_reg__
 9776 45fe 9105      		cpc r25,__zero_reg__
 9777 4600 04F0      		brlt .L384
 9778               	.LVL171:
 9779 4602 63E2      		ldi r22,lo8(35)
 9780 4604 70E0      		ldi r23,hi8(35)
 9781 4606 80E0      		ldi r24,hlo8(35)
 9782 4608 90E0      		ldi r25,hhi8(35)
 9783               	.LVL172:
 9784               	.L384:
 9785               	.LM1018:
 9786 460a E614      		cp r14,r6
 9787 460c F704      		cpc r15,r7
 9788 460e 0805      		cpc r16,r8
 9789 4610 1905      		cpc r17,r9
 9790 4612 04F0      		brlt .+2
 9791 4614 00C0      		rjmp .L385
 9792               	.LVL173:
 9793               	.L416:
 9794               	.LM1019:
 9795 4616 A401      		movw r20,r8
 9796 4618 9301      		movw r18,r6
 9797 461a 2E19      		sub r18,r14
 9798 461c 3F09      		sbc r19,r15
 9799 461e 400B      		sbc r20,r16
 9800 4620 510B      		sbc r21,r17
 9801 4622 7901      		movw r14,r18
 9802 4624 8A01      		movw r16,r20
 9803               	.LVL174:
 9804               	.LM1020:
 9805 4626 0E94 0000 		call __mulsi3
 9806               	.LVL175:
 9807 462a 2CE9      		ldi r18,lo8(-100)
 9808 462c 3FEF      		ldi r19,hi8(-100)
 9809 462e 4FEF      		ldi r20,hlo8(-100)
 9810 4630 5FEF      		ldi r21,hhi8(-100)
 9811 4632 0E94 0000 		call __divmodsi4
 9812 4636 5901      		movw r10,r18
 9813 4638 6A01      		movw r12,r20
 9814               	.LVL176:
 9815 463a A60C      		add r10,r6
 9816 463c B71C      		adc r11,r7
 9817 463e C81C      		adc r12,r8
 9818 4640 D91C      		adc r13,r9
 9819               	.LM1021:
 9820 4642 1A14      		cp __zero_reg__,r10
 9821 4644 1B04      		cpc __zero_reg__,r11
 9822 4646 1C04      		cpc __zero_reg__,r12
 9823 4648 1D04      		cpc __zero_reg__,r13
 9824 464a 04F0      		brlt .+2
 9825 464c 00C0      		rjmp .L414
 9826               	.LVL177:
 9827               	.L387:
 9828               	.LM1022:
 9829 464e 60E3      		ldi r22,lo8(30000)
 9830 4650 75E7      		ldi r23,hi8(30000)
 9831 4652 80E0      		ldi r24,hlo8(30000)
 9832 4654 90E0      		ldi r25,hhi8(30000)
 9833 4656 A601      		movw r20,r12
 9834 4658 9501      		movw r18,r10
 9835 465a 0E94 0000 		call __udivmodsi4
 9836 465e 2093 0000 		sts blanking_time,r18
 9837 4662 3093 0000 		sts (blanking_time)+1,r19
 9838 4666 4093 0000 		sts (blanking_time)+2,r20
 9839 466a 5093 0000 		sts (blanking_time)+3,r21
 9840               	.LM1023:
 9841 466e C801      		movw r24,r16
 9842 4670 B701      		movw r22,r14
 9843 4672 24E6      		ldi r18,lo8(100)
 9844 4674 30E0      		ldi r19,hi8(100)
 9845 4676 40E0      		ldi r20,hlo8(100)
 9846 4678 50E0      		ldi r21,hhi8(100)
 9847 467a 0E94 0000 		call __mulsi3
 9848 467e 7B01      		movw r14,r22
 9849 4680 8C01      		movw r16,r24
 9850               	.LVL178:
 9851 4682 C401      		movw r24,r8
 9852 4684 B301      		movw r22,r6
 9853 4686 2AE0      		ldi r18,lo8(10)
 9854 4688 30E0      		ldi r19,hi8(10)
 9855 468a 40E0      		ldi r20,hlo8(10)
 9856 468c 50E0      		ldi r21,hhi8(10)
 9857 468e 0E94 0000 		call __mulsi3
 9858 4692 E616      		cp r14,r22
 9859 4694 F706      		cpc r15,r23
 9860 4696 0807      		cpc r16,r24
 9861 4698 1907      		cpc r17,r25
 9862 469a 04F0      		brlt .+2
 9863 469c 00C0      		rjmp .L388
 9864               	.LVL179:
 9865               	.LM1024:
 9866 469e 81E0      		ldi r24,lo8(1)
 9867               	.LVL180:
 9868 46a0 8093 0000 		sts HB_locked,r24
 9869               	.LM1025:
 9870 46a4 8091 0000 		lds r24,lcd_context
 9871 46a8 8C30      		cpi r24,lo8(12)
 9872 46aa 01F0      		breq .+2
 9873 46ac 00C0      		rjmp .L389
 9874               	.LVL181:
 9875               	.L412:
 9876               	.LM1026:
 9877 46ae 8091 0000 		lds r24,lcd_context_count+11
 9878 46b2 8130      		cpi r24,lo8(1)
 9879 46b4 01F4      		brne .+2
 9880 46b6 00C0      		rjmp .L415
 9881               	.L390:
 9882               	.LM1027:
 9883 46b8 8091 0000 		lds r24,lcd_context_count+11
 9884 46bc 8230      		cpi r24,lo8(2)
 9885 46be 01F0      		breq .+2
 9886 46c0 00C0      		rjmp .L389
 9887 46c2 8091 0000 		lds r24,HB_locked
 9888 46c6 8130      		cpi r24,lo8(1)
 9889 46c8 01F0      		breq .+2
 9890 46ca 00C0      		rjmp .L389
 9891               	.LM1028:
 9892 46cc 8091 0000 		lds r24,IR_dc_avg
 9893 46d0 9091 0000 		lds r25,(IR_dc_avg)+1
 9894 46d4 A091 0000 		lds r26,(IR_dc_avg)+2
 9895 46d8 B091 0000 		lds r27,(IR_dc_avg)+3
 9896 46dc EA96      		adiw r28,118-60
 9897 46de 8CAF      		std Y+60,r24
 9898 46e0 9DAF      		std Y+61,r25
 9899 46e2 AEAF      		std Y+62,r26
 9900 46e4 BFAF      		std Y+63,r27
 9901 46e6 EA97      		sbiw r28,118-60
 9902               	.LM1029:
 9903 46e8 E090 0000 		lds r14,IR_HR_state+9
 9904 46ec F090 0000 		lds r15,(IR_HR_state+9)+1
 9905 46f0 0091 0000 		lds r16,(IR_HR_state+9)+2
 9906 46f4 1091 0000 		lds r17,(IR_HR_state+9)+3
 9907 46f8 8091 0000 		lds r24,IR_HR_state+5
 9908 46fc 9091 0000 		lds r25,(IR_HR_state+5)+1
 9909 4700 A091 0000 		lds r26,(IR_HR_state+5)+2
 9910 4704 B091 0000 		lds r27,(IR_HR_state+5)+3
 9911 4708 E81A      		sub r14,r24
 9912 470a F90A      		sbc r15,r25
 9913 470c 0A0B      		sbc r16,r26
 9914 470e 1B0B      		sbc r17,r27
 9915 4710 EE96      		adiw r28,122-60
 9916 4712 ECAE      		std Y+60,r14
 9917 4714 FDAE      		std Y+61,r15
 9918 4716 0EAF      		std Y+62,r16
 9919 4718 1FAF      		std Y+63,r17
 9920 471a EE97      		sbiw r28,122-60
 9921 471c CC57      		subi r28,lo8(-132)
 9922 471e DF4F      		sbci r29,hi8(-132)
 9923 4720 1882      		st Y,__zero_reg__
 9924 4722 C458      		subi r28,lo8(132)
 9925 4724 D040      		sbci r29,hi8(132)
 9926               	.LVL182:
 9927 4726 01E0      		ldi r16,lo8(1)
 9928 4728 EF96      		adiw r28,126-63
 9929 472a 0FAF      		std Y+63,r16
 9930 472c EF97      		sbiw r28,126-63
 9931 472e 00C0      		rjmp .L379
 9932               	.LVL183:
 9933               	.L382:
 9934               	.LM1030:
 9935 4730 65E0      		ldi r22,lo8(5)
 9936 4732 70E0      		ldi r23,hi8(5)
 9937 4734 80E0      		ldi r24,hlo8(5)
 9938 4736 90E0      		ldi r25,hhi8(5)
 9939               	.LVL184:
 9940               	.LM1031:
 9941 4738 E614      		cp r14,r6
 9942 473a F704      		cpc r15,r7
 9943 473c 0805      		cpc r16,r8
 9944 473e 1905      		cpc r17,r9
 9945 4740 04F4      		brge .+2
 9946 4742 00C0      		rjmp .L416
 9947               	.LVL185:
 9948               	.L385:
 9949               	.LM1032:
 9950 4744 E618      		sub r14,r6
 9951 4746 F708      		sbc r15,r7
 9952 4748 0809      		sbc r16,r8
 9953 474a 1909      		sbc r17,r9
 9954               	.LVL186:
 9955               	.LM1033:
 9956 474c A801      		movw r20,r16
 9957 474e 9701      		movw r18,r14
 9958 4750 0E94 0000 		call __mulsi3
 9959               	.LVL187:
 9960 4754 24E6      		ldi r18,lo8(100)
 9961 4756 30E0      		ldi r19,hi8(100)
 9962 4758 40E0      		ldi r20,hlo8(100)
 9963 475a 50E0      		ldi r21,hhi8(100)
 9964 475c 0E94 0000 		call __divmodsi4
 9965 4760 5901      		movw r10,r18
 9966 4762 6A01      		movw r12,r20
 9967               	.LVL188:
 9968 4764 A60C      		add r10,r6
 9969 4766 B71C      		adc r11,r7
 9970 4768 C81C      		adc r12,r8
 9971 476a D91C      		adc r13,r9
 9972               	.LM1034:
 9973 476c 1A14      		cp __zero_reg__,r10
 9974 476e 1B04      		cpc __zero_reg__,r11
 9975 4770 1C04      		cpc __zero_reg__,r12
 9976 4772 1D04      		cpc __zero_reg__,r13
 9977 4774 04F4      		brge .+2
 9978 4776 00C0      		rjmp .L387
 9979               	.L414:
 9980 4778 6401      		movw r12,r8
 9981 477a 5301      		movw r10,r6
 9982 477c 00C0      		rjmp .L387
 9983               	.LVL189:
 9984               	.L388:
 9985               	.LM1035:
 9986 477e 1092 0000 		sts HB_locked,__zero_reg__
 9987 4782 00C0      		rjmp .L381
 9988               	.LVL190:
 9989               	.L413:
 9990               	.LM1036:
 9991 4784 8091 0000 		lds r24,lcd_context_count+11
 9992 4788 8130      		cpi r24,lo8(1)
 9993 478a 01F4      		brne .+2
 9994 478c 00C0      		rjmp .L417
 9995               	.L377:
 9996               	.LM1037:
 9997 478e 8091 0000 		lds r24,lcd_context_count+11
 9998 4792 8230      		cpi r24,lo8(2)
 9999 4794 01F0      		breq .+2
 10000 4796 00C0      		rjmp .L376
 10001               	.LM1038:
 10002 4798 80E0      		ldi r24,lo8(spiUSE)
 10003 479a 90E0      		ldi r25,hi8(spiUSE)
 10004 479c 40E0      		ldi r20,lo8(0)
 10005 479e 50E0      		ldi r21,hi8(0)
 10006 47a0 60E0      		ldi r22,hlo8(0)
 10007 47a2 70E0      		ldi r23,hhi8(0)
 10008 47a4 0E94 0000 		call chSemWaitTimeout
 10009               	.LM1039:
 10010 47a8 80E2      		ldi r24,lo8(32)
 10011 47aa 63E5      		ldi r22,lo8(83)
 10012 47ac 40E6      		ldi r20,lo8(96)
 10013 47ae 2EE1      		ldi r18,lo8(30)
 10014 47b0 00E0      		ldi r16,lo8(0)
 10015 47b2 10E0      		ldi r17,hi8(0)
 10016 47b4 0E94 0000 		call st7735_fill_rect
 10017               	.LM1040:
 10018 47b8 82E3      		ldi r24,lo8(50)
 10019 47ba 90E0      		ldi r25,hi8(50)
 10020 47bc 66E5      		ldi r22,lo8(86)
 10021 47be 70E0      		ldi r23,hi8(86)
 10022 47c0 0E94 0000 		call st7735_setCursor
 10023               	.LM1041:
 10024 47c4 83E0      		ldi r24,lo8(3)
 10025 47c6 0E94 0000 		call st7735_setTextSize
 10026               	.LM1042:
 10027 47ca 00D0      		rcall .
 10028 47cc 00D0      		rcall .
 10029 47ce E0E0      		ldi r30,lo8(st7735_out)
 10030 47d0 F0E0      		ldi r31,hi8(st7735_out)
 10031 47d2 ADB7      		in r26,__SP_L__
 10032 47d4 BEB7      		in r27,__SP_H__
 10033 47d6 1296      		adiw r26,1+1
 10034 47d8 FC93      		st X,r31
 10035 47da EE93      		st -X,r30
 10036 47dc 1197      		sbiw r26,1
 10037 47de 50E0      		ldi r21,lo8(__c.4204)
 10038 47e0 E52E      		mov r14,r21
 10039 47e2 50E0      		ldi r21,hi8(__c.4204)
 10040 47e4 F52E      		mov r15,r21
 10041 47e6 1496      		adiw r26,3+1
 10042 47e8 FC92      		st X,r15
 10043 47ea EE92      		st -X,r14
 10044 47ec 1397      		sbiw r26,3
 10045 47ee 0E94 0000 		call fprintf_P
 10046               	.LM1043:
 10047 47f2 0F90      		pop __tmp_reg__
 10048 47f4 0F90      		pop __tmp_reg__
 10049 47f6 0F90      		pop __tmp_reg__
 10050 47f8 0F90      		pop __tmp_reg__
 10051 47fa 8BE6      		ldi r24,lo8(107)
 10052 47fc 90E0      		ldi r25,hi8(107)
 10053 47fe 66E5      		ldi r22,lo8(86)
 10054 4800 70E0      		ldi r23,hi8(86)
 10055 4802 0E94 0000 		call st7735_setCursor
 10056               	.LM1044:
 10057 4806 81E0      		ldi r24,lo8(1)
 10058 4808 0E94 0000 		call st7735_setTextSize
 10059               	.LM1045:
 10060 480c 00D0      		rcall .
 10061 480e 00D0      		rcall .
 10062 4810 E0E0      		ldi r30,lo8(st7735_out)
 10063 4812 F0E0      		ldi r31,hi8(st7735_out)
 10064 4814 ADB7      		in r26,__SP_L__
 10065 4816 BEB7      		in r27,__SP_H__
 10066 4818 1296      		adiw r26,1+1
 10067 481a FC93      		st X,r31
 10068 481c EE93      		st -X,r30
 10069 481e 1197      		sbiw r26,1
 10070 4820 40E0      		ldi r20,lo8(__c.4206)
 10071 4822 E42E      		mov r14,r20
 10072 4824 40E0      		ldi r20,hi8(__c.4206)
 10073 4826 F42E      		mov r15,r20
 10074 4828 1496      		adiw r26,3+1
 10075 482a FC92      		st X,r15
 10076 482c EE92      		st -X,r14
 10077 482e 1397      		sbiw r26,3
 10078 4830 0E94 0000 		call fprintf_P
 10079               	.LM1046:
 10080 4834 0F90      		pop __tmp_reg__
 10081 4836 0F90      		pop __tmp_reg__
 10082 4838 0F90      		pop __tmp_reg__
 10083 483a 0F90      		pop __tmp_reg__
 10084 483c 87E7      		ldi r24,lo8(119)
 10085 483e 90E0      		ldi r25,hi8(119)
 10086 4840 6AE5      		ldi r22,lo8(90)
 10087 4842 70E0      		ldi r23,hi8(90)
 10088 4844 0E94 0000 		call st7735_setCursor
 10089               	.LM1047:
 10090 4848 00D0      		rcall .
 10091 484a 00D0      		rcall .
 10092 484c E0E0      		ldi r30,lo8(st7735_out)
 10093 484e F0E0      		ldi r31,hi8(st7735_out)
 10094 4850 ADB7      		in r26,__SP_L__
 10095 4852 BEB7      		in r27,__SP_H__
 10096 4854 1296      		adiw r26,1+1
 10097 4856 FC93      		st X,r31
 10098 4858 EE93      		st -X,r30
 10099 485a 1197      		sbiw r26,1
 10100 485c 30E0      		ldi r19,lo8(__c.4208)
 10101 485e E32E      		mov r14,r19
 10102 4860 30E0      		ldi r19,hi8(__c.4208)
 10103 4862 F32E      		mov r15,r19
 10104 4864 1496      		adiw r26,3+1
 10105 4866 FC92      		st X,r15
 10106 4868 EE92      		st -X,r14
 10107 486a 1397      		sbiw r26,3
 10108 486c 0E94 0000 		call fprintf_P
 10109               	.LM1048:
 10110 4870 0F90      		pop __tmp_reg__
 10111 4872 0F90      		pop __tmp_reg__
 10112 4874 0F90      		pop __tmp_reg__
 10113 4876 0F90      		pop __tmp_reg__
 10114 4878 80E0      		ldi r24,lo8(spiUSE)
 10115 487a 90E0      		ldi r25,hi8(spiUSE)
 10116 487c 0E94 0000 		call chSemSignal
 10117 4880 00C0      		rjmp .L376
 10118               	.LVL191:
 10119               	.L415:
 10120               	.LM1049:
 10121 4882 80E0      		ldi r24,lo8(spiUSE)
 10122 4884 90E0      		ldi r25,hi8(spiUSE)
 10123 4886 40E0      		ldi r20,lo8(0)
 10124 4888 50E0      		ldi r21,hi8(0)
 10125 488a 60E0      		ldi r22,hlo8(0)
 10126 488c 70E0      		ldi r23,hhi8(0)
 10127 488e 0E94 0000 		call chSemWaitTimeout
 10128               	.LM1050:
 10129 4892 82E3      		ldi r24,lo8(50)
 10130 4894 90E0      		ldi r25,hi8(50)
 10131 4896 66E5      		ldi r22,lo8(86)
 10132 4898 70E0      		ldi r23,hi8(86)
 10133 489a 0E94 0000 		call st7735_setCursor
 10134               	.LM1051:
 10135 489e 83E0      		ldi r24,lo8(3)
 10136 48a0 0E94 0000 		call st7735_setTextSize
 10137               	.LM1052:
 10138 48a4 4DB7      		in r20,__SP_L__
 10139 48a6 5EB7      		in r21,__SP_H__
 10140 48a8 4850      		subi r20,lo8(-(-8))
 10141 48aa 5040      		sbci r21,hi8(-(-8))
 10142 48ac 0FB6      		in __tmp_reg__,__SREG__
 10143 48ae F894      		cli
 10144 48b0 5EBF      		out __SP_H__,r21
 10145 48b2 0FBE      		out __SREG__,__tmp_reg__
 10146 48b4 4DBF      		out __SP_L__,r20
 10147 48b6 EDB7      		in r30,__SP_L__
 10148 48b8 FEB7      		in r31,__SP_H__
 10149 48ba 3196      		adiw r30,1
 10150 48bc 70E0      		ldi r23,lo8(st7735_out)
 10151 48be E72E      		mov r14,r23
 10152 48c0 70E0      		ldi r23,hi8(st7735_out)
 10153 48c2 F72E      		mov r15,r23
 10154 48c4 ADB7      		in r26,__SP_L__
 10155 48c6 BEB7      		in r27,__SP_H__
 10156 48c8 1296      		adiw r26,1+1
 10157 48ca FC92      		st X,r15
 10158 48cc EE92      		st -X,r14
 10159 48ce 1197      		sbiw r26,1
 10160 48d0 00E0      		ldi r16,lo8(__c.4210)
 10161 48d2 10E0      		ldi r17,hi8(__c.4210)
 10162 48d4 1383      		std Z+3,r17
 10163 48d6 0283      		std Z+2,r16
 10164 48d8 A482      		std Z+4,r10
 10165 48da B582      		std Z+5,r11
 10166 48dc C682      		std Z+6,r12
 10167 48de D782      		std Z+7,r13
 10168 48e0 0E94 0000 		call fprintf_P
 10169               	.LM1053:
 10170 48e4 2DB7      		in r18,__SP_L__
 10171 48e6 3EB7      		in r19,__SP_H__
 10172 48e8 285F      		subi r18,lo8(-(8))
 10173 48ea 3F4F      		sbci r19,hi8(-(8))
 10174 48ec 0FB6      		in __tmp_reg__,__SREG__
 10175 48ee F894      		cli
 10176 48f0 3EBF      		out __SP_H__,r19
 10177 48f2 0FBE      		out __SREG__,__tmp_reg__
 10178 48f4 2DBF      		out __SP_L__,r18
 10179 48f6 83E2      		ldi r24,lo8(35)
 10180 48f8 90E0      		ldi r25,hi8(35)
 10181 48fa 66E5      		ldi r22,lo8(86)
 10182 48fc 70E0      		ldi r23,hi8(86)
 10183 48fe 0E94 0000 		call st7735_setCursor
 10184               	.LM1054:
 10185 4902 82E0      		ldi r24,lo8(2)
 10186 4904 0E94 0000 		call st7735_setTextSize
 10187               	.LM1055:
 10188 4908 00D0      		rcall .
 10189 490a 00D0      		rcall .
 10190 490c 00D0      		rcall .
 10191 490e EDB7      		in r30,__SP_L__
 10192 4910 FEB7      		in r31,__SP_H__
 10193 4912 3196      		adiw r30,1
 10194 4914 ADB7      		in r26,__SP_L__
 10195 4916 BEB7      		in r27,__SP_H__
 10196 4918 1296      		adiw r26,1+1
 10197 491a FC92      		st X,r15
 10198 491c EE92      		st -X,r14
 10199 491e 1197      		sbiw r26,1
 10200 4920 60E0      		ldi r22,lo8(__c.4212)
 10201 4922 E62E      		mov r14,r22
 10202 4924 60E0      		ldi r22,hi8(__c.4212)
 10203 4926 F62E      		mov r15,r22
 10204 4928 F382      		std Z+3,r15
 10205 492a E282      		std Z+2,r14
 10206 492c 03E0      		ldi r16,lo8(3)
 10207 492e 10E0      		ldi r17,hi8(3)
 10208 4930 1583      		std Z+5,r17
 10209 4932 0483      		std Z+4,r16
 10210 4934 0E94 0000 		call fprintf_P
 10211               	.LM1056:
 10212 4938 2DB7      		in r18,__SP_L__
 10213 493a 3EB7      		in r19,__SP_H__
 10214 493c 2A5F      		subi r18,lo8(-(6))
 10215 493e 3F4F      		sbci r19,hi8(-(6))
 10216 4940 0FB6      		in __tmp_reg__,__SREG__
 10217 4942 F894      		cli
 10218 4944 3EBF      		out __SP_H__,r19
 10219 4946 0FBE      		out __SREG__,__tmp_reg__
 10220 4948 2DBF      		out __SP_L__,r18
 10221 494a 80E0      		ldi r24,lo8(spiUSE)
 10222 494c 90E0      		ldi r25,hi8(spiUSE)
 10223 494e 0E94 0000 		call chSemSignal
 10224 4952 00C0      		rjmp .L390
 10225               	.LVL192:
 10226               	.L417:
 10227               	.LM1057:
 10228 4954 80E0      		ldi r24,lo8(spiUSE)
 10229 4956 90E0      		ldi r25,hi8(spiUSE)
 10230 4958 40E0      		ldi r20,lo8(0)
 10231 495a 50E0      		ldi r21,hi8(0)
 10232 495c 60E0      		ldi r22,hlo8(0)
 10233 495e 70E0      		ldi r23,hhi8(0)
 10234 4960 0E94 0000 		call chSemWaitTimeout
 10235               	.LM1058:
 10236 4964 80E2      		ldi r24,lo8(32)
 10237 4966 63E5      		ldi r22,lo8(83)
 10238 4968 40E6      		ldi r20,lo8(96)
 10239 496a 2EE1      		ldi r18,lo8(30)
 10240 496c 00E0      		ldi r16,lo8(0)
 10241 496e 10E0      		ldi r17,hi8(0)
 10242 4970 0E94 0000 		call st7735_fill_rect
 10243               	.LM1059:
 10244 4974 8BE6      		ldi r24,lo8(107)
 10245 4976 90E0      		ldi r25,hi8(107)
 10246 4978 66E5      		ldi r22,lo8(86)
 10247 497a 70E0      		ldi r23,hi8(86)
 10248 497c 0E94 0000 		call st7735_setCursor
 10249               	.LM1060:
 10250 4980 81E0      		ldi r24,lo8(1)
 10251 4982 0E94 0000 		call st7735_setTextSize
 10252               	.LM1061:
 10253 4986 00D0      		rcall .
 10254 4988 00D0      		rcall .
 10255 498a E0E0      		ldi r30,lo8(st7735_out)
 10256 498c F0E0      		ldi r31,hi8(st7735_out)
 10257 498e ADB7      		in r26,__SP_L__
 10258 4990 BEB7      		in r27,__SP_H__
 10259 4992 1296      		adiw r26,1+1
 10260 4994 FC93      		st X,r31
 10261 4996 EE93      		st -X,r30
 10262 4998 1197      		sbiw r26,1
 10263 499a 60E0      		ldi r22,lo8(__c.4202)
 10264 499c E62E      		mov r14,r22
 10265 499e 60E0      		ldi r22,hi8(__c.4202)
 10266 49a0 F62E      		mov r15,r22
 10267 49a2 1496      		adiw r26,3+1
 10268 49a4 FC92      		st X,r15
 10269 49a6 EE92      		st -X,r14
 10270 49a8 1397      		sbiw r26,3
 10271 49aa 0E94 0000 		call fprintf_P
 10272               	.LM1062:
 10273 49ae 0F90      		pop __tmp_reg__
 10274 49b0 0F90      		pop __tmp_reg__
 10275 49b2 0F90      		pop __tmp_reg__
 10276 49b4 0F90      		pop __tmp_reg__
 10277 49b6 80E0      		ldi r24,lo8(spiUSE)
 10278 49b8 90E0      		ldi r25,hi8(spiUSE)
 10279 49ba 0E94 0000 		call chSemSignal
 10280 49be 00C0      		rjmp .L377
 10281               	.LVL193:
 10282               	.L394:
 10283               	.LM1063:
 10284 49c0 80E0      		ldi r24,lo8(spiUSE)
 10285 49c2 90E0      		ldi r25,hi8(spiUSE)
 10286 49c4 40E0      		ldi r20,lo8(0)
 10287 49c6 50E0      		ldi r21,hi8(0)
 10288 49c8 60E0      		ldi r22,hlo8(0)
 10289 49ca 70E0      		ldi r23,hhi8(0)
 10290 49cc 0E94 0000 		call chSemWaitTimeout
 10291               	.LM1064:
 10292 49d0 83E2      		ldi r24,lo8(35)
 10293 49d2 90E0      		ldi r25,hi8(35)
 10294 49d4 66E5      		ldi r22,lo8(86)
 10295 49d6 70E0      		ldi r23,hi8(86)
 10296 49d8 0E94 0000 		call st7735_setCursor
 10297               	.LM1065:
 10298 49dc 82E0      		ldi r24,lo8(2)
 10299 49de 0E94 0000 		call st7735_setTextSize
 10300               	.LM1066:
 10301 49e2 00D0      		rcall .
 10302 49e4 00D0      		rcall .
 10303 49e6 E0E0      		ldi r30,lo8(st7735_out)
 10304 49e8 F0E0      		ldi r31,hi8(st7735_out)
 10305 49ea ADB7      		in r26,__SP_L__
 10306 49ec BEB7      		in r27,__SP_H__
 10307 49ee 1296      		adiw r26,1+1
 10308 49f0 FC93      		st X,r31
 10309 49f2 EE93      		st -X,r30
 10310 49f4 1197      		sbiw r26,1
 10311 49f6 10E0      		ldi r17,lo8(__c.4219)
 10312 49f8 E12E      		mov r14,r17
 10313 49fa 10E0      		ldi r17,hi8(__c.4219)
 10314 49fc F12E      		mov r15,r17
 10315               	.LVL194:
 10316 49fe 1496      		adiw r26,3+1
 10317 4a00 FC92      		st X,r15
 10318 4a02 EE92      		st -X,r14
 10319 4a04 1397      		sbiw r26,3
 10320 4a06 0E94 0000 		call fprintf_P
 10321               	.LM1067:
 10322 4a0a 0F90      		pop __tmp_reg__
 10323 4a0c 0F90      		pop __tmp_reg__
 10324 4a0e 0F90      		pop __tmp_reg__
 10325 4a10 0F90      		pop __tmp_reg__
 10326 4a12 82E3      		ldi r24,lo8(50)
 10327 4a14 90E0      		ldi r25,hi8(50)
 10328 4a16 66E5      		ldi r22,lo8(86)
 10329 4a18 70E0      		ldi r23,hi8(86)
 10330 4a1a 0E94 0000 		call st7735_setCursor
 10331               	.LM1068:
 10332 4a1e 83E0      		ldi r24,lo8(3)
 10333 4a20 0E94 0000 		call st7735_setTextSize
 10334               	.LM1069:
 10335 4a24 0DB7      		in r16,__SP_L__
 10336 4a26 1EB7      		in r17,__SP_H__
 10337 4a28 0850      		subi r16,lo8(-(-8))
 10338 4a2a 1040      		sbci r17,hi8(-(-8))
 10339 4a2c 0FB6      		in __tmp_reg__,__SREG__
 10340 4a2e F894      		cli
 10341 4a30 1EBF      		out __SP_H__,r17
 10342 4a32 0FBE      		out __SREG__,__tmp_reg__
 10343 4a34 0DBF      		out __SP_L__,r16
 10344 4a36 0F5F      		subi r16,lo8(-(1))
 10345 4a38 1F4F      		sbci r17,hi8(-(1))
 10346 4a3a E0E0      		ldi r30,lo8(st7735_out)
 10347 4a3c F0E0      		ldi r31,hi8(st7735_out)
 10348 4a3e ADB7      		in r26,__SP_L__
 10349 4a40 BEB7      		in r27,__SP_H__
 10350 4a42 1296      		adiw r26,1+1
 10351 4a44 FC93      		st X,r31
 10352 4a46 EE93      		st -X,r30
 10353 4a48 1197      		sbiw r26,1
 10354 4a4a E0E0      		ldi r30,lo8(__c.4221)
 10355 4a4c F0E0      		ldi r31,hi8(__c.4221)
 10356 4a4e D801      		movw r26,r16
 10357 4a50 1396      		adiw r26,2+1
 10358 4a52 FC93      		st X,r31
 10359 4a54 EE93      		st -X,r30
 10360 4a56 1297      		sbiw r26,2
 10361 4a58 C401      		movw r24,r8
 10362 4a5a B301      		movw r22,r6
 10363 4a5c 27E0      		ldi r18,lo8(7)
 10364 4a5e 30E0      		ldi r19,hi8(7)
 10365 4a60 40E0      		ldi r20,hlo8(7)
 10366 4a62 50E0      		ldi r21,hhi8(7)
 10367 4a64 0E94 0000 		call __divmodsi4
 10368 4a68 D801      		movw r26,r16
 10369 4a6a 1496      		adiw r26,4
 10370 4a6c 2D93      		st X+,r18
 10371 4a6e 3D93      		st X+,r19
 10372 4a70 4D93      		st X+,r20
 10373 4a72 5C93      		st X,r21
 10374 4a74 1797      		sbiw r26,4+3
 10375 4a76 0E94 0000 		call fprintf_P
 10376               	.LM1070:
 10377 4a7a EDB7      		in r30,__SP_L__
 10378 4a7c FEB7      		in r31,__SP_H__
 10379 4a7e 3896      		adiw r30,8
 10380 4a80 0FB6      		in __tmp_reg__,__SREG__
 10381 4a82 F894      		cli
 10382 4a84 FEBF      		out __SP_H__,r31
 10383 4a86 0FBE      		out __SREG__,__tmp_reg__
 10384 4a88 EDBF      		out __SP_L__,r30
 10385 4a8a 80E0      		ldi r24,lo8(spiUSE)
 10386 4a8c 90E0      		ldi r25,hi8(spiUSE)
 10387 4a8e 0E94 0000 		call chSemSignal
 10388 4a92 00C0      		rjmp .L404
 10389               	.LVL195:
 10390               	.L405:
 10391               	.LM1071:
 10392 4a94 8FE3      		ldi r24,lo8(63)
 10393 4a96 68E0      		ldi r22,lo8(8)
 10394 4a98 00C0      		rjmp .L403
 10395               	.L402:
 10396               	.LM1072:
 10397 4a9a 80E0      		ldi r24,lo8(usartUSE)
 10398 4a9c 90E0      		ldi r25,hi8(usartUSE)
 10399 4a9e 40E0      		ldi r20,lo8(0)
 10400 4aa0 50E0      		ldi r21,hi8(0)
 10401 4aa2 60E0      		ldi r22,hlo8(0)
 10402 4aa4 70E0      		ldi r23,hhi8(0)
 10403 4aa6 0E94 0000 		call chSemWaitTimeout
 10404               	.LM1073:
 10405 4aaa 00D0      		rcall .
 10406 4aac 00D0      		rcall .
 10407 4aae A0E0      		ldi r26,lo8(usart_out)
 10408 4ab0 CA2E      		mov r12,r26
 10409 4ab2 A0E0      		ldi r26,hi8(usart_out)
 10410 4ab4 DA2E      		mov r13,r26
 10411 4ab6 ADB7      		in r26,__SP_L__
 10412 4ab8 BEB7      		in r27,__SP_H__
 10413 4aba 1296      		adiw r26,1+1
 10414 4abc DC92      		st X,r13
 10415 4abe CE92      		st -X,r12
 10416 4ac0 1197      		sbiw r26,1
 10417 4ac2 80E0      		ldi r24,lo8(__c.4183)
 10418 4ac4 90E0      		ldi r25,hi8(__c.4183)
 10419 4ac6 1496      		adiw r26,3+1
 10420 4ac8 9C93      		st X,r25
 10421 4aca 8E93      		st -X,r24
 10422 4acc 1397      		sbiw r26,3
 10423 4ace 0E94 0000 		call fprintf_P
 10424               	.LM1074:
 10425 4ad2 0F90      		pop __tmp_reg__
 10426 4ad4 0F90      		pop __tmp_reg__
 10427 4ad6 0F90      		pop __tmp_reg__
 10428 4ad8 0F90      		pop __tmp_reg__
 10429 4ada 80E0      		ldi r24,lo8(usartUSE)
 10430 4adc 90E0      		ldi r25,hi8(usartUSE)
 10431 4ade 0E94 0000 		call chSemSignal
 10432 4ae2 0C94 0000 		jmp .L361
 10433               	.LFE93:
 10435               		.data
 10436               	.LC23:
 10437 0112 696D 6730 		.string	"img00002.bmp"
 10437      3030 3032 
 10437      2E62 6D70 
 10437      00
 10438               		.text
 10439               	.global	Thread3
 10441               	Thread3:
 10442               	.LFB84:
 10443               	.LM1075:
 10444               	.LVL196:
 10445               	/* prologue: function */
 10446               	/* frame size = 0 */
 10447               	.LM1076:
 10448 4ae6 8091 0000 		lds r24,nil
 10449 4aea 9091 0000 		lds r25,(nil)+1
 10450               	.LVL197:
 10451 4aee 9093 0000 		sts (tp+4)+1,r25
 10452 4af2 8093 0000 		sts tp+4,r24
 10453 4af6 C0E0      		ldi r28,lo8(st7735_out)
 10454 4af8 D0E0      		ldi r29,hi8(st7735_out)
 10455 4afa 90E0      		ldi r25,lo8(__c.3851)
 10456 4afc C92E      		mov r12,r25
 10457 4afe 90E0      		ldi r25,hi8(__c.3851)
 10458 4b00 D92E      		mov r13,r25
 10459               	.LM1077:
 10460 4b02 83E0      		ldi r24,lo8(3)
 10461 4b04 B82E      		mov r11,r24
 10462               	.LVL198:
 10463               	.L420:
 10464               	.LBB245:
 10465               	.LBB246:
 10466               	.LM1078:
 10467               	/* #APP */
 10468               	 ;  319 ".//os/nil/ports/AVR/nilcore.h" 1
 10469 4b06 F894      		cli
 10470               	 ;  0 "" 2
 10471               	/* #NOAPP */
 10472               	.LBE246:
 10473               	.LBE245:
 10474               	.LM1079:
 10475 4b08 80E0      		ldi r24,lo8(trp+4)
 10476 4b0a 90E0      		ldi r25,hi8(trp+4)
 10477 4b0c 40E0      		ldi r20,lo8(0)
 10478 4b0e 50E0      		ldi r21,hi8(0)
 10479 4b10 60E0      		ldi r22,hlo8(0)
 10480 4b12 70E0      		ldi r23,hhi8(0)
 10481 4b14 0E94 0000 		call chThdSuspendTimeoutS
 10482 4b18 E82E      		mov r14,r24
 10483               	.LBB247:
 10484               	.LBB248:
 10485               	.LM1080:
 10486               	/* #APP */
 10487               	 ;  327 ".//os/nil/ports/AVR/nilcore.h" 1
 10488 4b1a 7894      		sei
 10489               	 ;  0 "" 2
 10490               	/* #NOAPP */
 10491               	.LBE248:
 10492               	.LBE247:
 10493               	.LM1081:
 10494 4b1c 80E0      		ldi r24,lo8(lcdUSE)
 10495 4b1e 90E0      		ldi r25,hi8(lcdUSE)
 10496 4b20 40E0      		ldi r20,lo8(0)
 10497 4b22 50E0      		ldi r21,hi8(0)
 10498 4b24 60E0      		ldi r22,hlo8(0)
 10499 4b26 70E0      		ldi r23,hhi8(0)
 10500 4b28 0E94 0000 		call chSemWaitTimeout
 10501               	.LM1082:
 10502 4b2c B092 0000 		sts lcd_context,r11
 10503               	.LM1083:
 10504 4b30 80E0      		ldi r24,lo8(spiUSE)
 10505 4b32 90E0      		ldi r25,hi8(spiUSE)
 10506 4b34 40E0      		ldi r20,lo8(0)
 10507 4b36 50E0      		ldi r21,hi8(0)
 10508 4b38 60E0      		ldi r22,hlo8(0)
 10509 4b3a 70E0      		ldi r23,hhi8(0)
 10510 4b3c 0E94 0000 		call chSemWaitTimeout
 10511               	.LM1084:
 10512 4b40 80E0      		ldi r24,lo8(0)
 10513 4b42 60E0      		ldi r22,lo8(0)
 10514 4b44 40EA      		ldi r20,lo8(-96)
 10515 4b46 20E8      		ldi r18,lo8(-128)
 10516 4b48 00E0      		ldi r16,lo8(0)
 10517 4b4a 10E0      		ldi r17,hi8(0)
 10518               	.LVL199:
 10519 4b4c 0E94 0000 		call st7735_fill_rect
 10520               	.LM1085:
 10521 4b50 85E0      		ldi r24,lo8(5)
 10522 4b52 90E0      		ldi r25,hi8(5)
 10523 4b54 6AE0      		ldi r22,lo8(10)
 10524 4b56 70E0      		ldi r23,hi8(10)
 10525 4b58 0E94 0000 		call st7735_setCursor
 10526               	.LM1086:
 10527 4b5c 80E0      		ldi r24,lo8(spiUSE)
 10528 4b5e 90E0      		ldi r25,hi8(spiUSE)
 10529 4b60 0E94 0000 		call chSemSignal
 10530               	.LM1087:
 10531 4b64 80E0      		ldi r24,lo8(sdUSE)
 10532 4b66 90E0      		ldi r25,hi8(sdUSE)
 10533 4b68 40E0      		ldi r20,lo8(0)
 10534 4b6a 50E0      		ldi r21,hi8(0)
 10535 4b6c 60E0      		ldi r22,hlo8(0)
 10536 4b6e 70E0      		ldi r23,hhi8(0)
 10537 4b70 0E94 0000 		call chSemWaitTimeout
 10538               	.LM1088:
 10539 4b74 80E0      		ldi r24,lo8(spiUSE)
 10540 4b76 90E0      		ldi r25,hi8(spiUSE)
 10541 4b78 40E0      		ldi r20,lo8(0)
 10542 4b7a 50E0      		ldi r21,hi8(0)
 10543 4b7c 60E0      		ldi r22,hlo8(0)
 10544 4b7e 70E0      		ldi r23,hhi8(0)
 10545 4b80 0E94 0000 		call chSemWaitTimeout
 10546               	.LM1089:
 10547 4b84 80E0      		ldi r24,lo8(0)
 10548 4b86 0E94 0000 		call disk_initialize
 10549 4b8a 082F      		mov r16,r24
 10550               	.LVL200:
 10551               	.LM1090:
 10552 4b8c 80E0      		ldi r24,lo8(spiUSE)
 10553 4b8e 90E0      		ldi r25,hi8(spiUSE)
 10554 4b90 0E94 0000 		call chSemSignal
 10555               	.LM1091:
 10556 4b94 80E0      		ldi r24,lo8(sdUSE)
 10557 4b96 90E0      		ldi r25,hi8(sdUSE)
 10558 4b98 0E94 0000 		call chSemSignal
 10559               	.LM1092:
 10560 4b9c 60E1      		ldi r22,lo8(10000)
 10561 4b9e 77E2      		ldi r23,hi8(10000)
 10562 4ba0 80E0      		ldi r24,hlo8(10000)
 10563 4ba2 90E0      		ldi r25,hhi8(10000)
 10564 4ba4 0E94 0000 		call chThdSleep
 10565               	.LM1093:
 10566 4ba8 80E0      		ldi r24,lo8(sdUSE)
 10567 4baa 90E0      		ldi r25,hi8(sdUSE)
 10568 4bac 40E0      		ldi r20,lo8(0)
 10569 4bae 50E0      		ldi r21,hi8(0)
 10570 4bb0 60E0      		ldi r22,hlo8(0)
 10571 4bb2 70E0      		ldi r23,hhi8(0)
 10572 4bb4 0E94 0000 		call chSemWaitTimeout
 10573               	.LM1094:
 10574 4bb8 80E0      		ldi r24,lo8(spiUSE)
 10575 4bba 90E0      		ldi r25,hi8(spiUSE)
 10576 4bbc 40E0      		ldi r20,lo8(0)
 10577 4bbe 50E0      		ldi r21,hi8(0)
 10578 4bc0 60E0      		ldi r22,hlo8(0)
 10579 4bc2 70E0      		ldi r23,hhi8(0)
 10580 4bc4 0E94 0000 		call chSemWaitTimeout
 10581               	.LM1095:
 10582 4bc8 80E0      		ldi r24,lo8(0)
 10583 4bca 60E0      		ldi r22,lo8(Fatfs)
 10584 4bcc 70E0      		ldi r23,hi8(Fatfs)
 10585 4bce 0E94 0000 		call f_mount
 10586 4bd2 F82E      		mov r15,r24
 10587               	.LM1096:
 10588 4bd4 80E0      		ldi r24,lo8(spiUSE)
 10589 4bd6 90E0      		ldi r25,hi8(spiUSE)
 10590 4bd8 0E94 0000 		call chSemSignal
 10591               	.LM1097:
 10592 4bdc 80E0      		ldi r24,lo8(sdUSE)
 10593 4bde 90E0      		ldi r25,hi8(sdUSE)
 10594 4be0 0E94 0000 		call chSemSignal
 10595               	.LM1098:
 10596 4be4 60E1      		ldi r22,lo8(10000)
 10597 4be6 77E2      		ldi r23,hi8(10000)
 10598 4be8 80E0      		ldi r24,hlo8(10000)
 10599 4bea 90E0      		ldi r25,hhi8(10000)
 10600 4bec 0E94 0000 		call chThdSleep
 10601 4bf0 10E0      		ldi r17,lo8(0)
 10602               	.L425:
 10603               	.LM1099:
 10604 4bf2 82E0      		ldi r24,lo8(2)
 10605 4bf4 4FEF      		ldi r20,lo8(-1)
 10606 4bf6 5FEF      		ldi r21,hi8(-1)
 10607 4bf8 6FEF      		ldi r22,hlo8(-1)
 10608 4bfa 7FEF      		ldi r23,hhi8(-1)
 10609 4bfc 0E94 0000 		call chEvtWaitAnyTimeout
 10610 4c00 8230      		cpi r24,lo8(2)
 10611 4c02 01F4      		brne .+2
 10612 4c04 00C0      		rjmp .L428
 10613               	.LM1100:
 10614 4c06 0023      		tst r16
 10615 4c08 01F4      		brne .L421
 10616 4c0a FF20      		tst r15
 10617 4c0c 01F4      		brne .L421
 10618 4c0e 1123      		tst r17
 10619 4c10 01F4      		brne .L422
 10620               	.LM1101:
 10621 4c12 81E0      		ldi r24,lo8(1)
 10622 4c14 E816      		cp r14,r24
 10623 4c16 01F4      		brne .+2
 10624 4c18 00C0      		rjmp .L429
 10625               	.LM1102:
 10626 4c1a E2E0      		ldi r30,lo8(2)
 10627 4c1c EE16      		cp r14,r30
 10628 4c1e 01F0      		breq .L430
 10629               	.L422:
 10630               	.LM1103:
 10631 4c20 11E0      		ldi r17,lo8(1)
 10632               	.L424:
 10633               	.LM1104:
 10634 4c22 60E7      		ldi r22,lo8(6000)
 10635 4c24 77E1      		ldi r23,hi8(6000)
 10636 4c26 80E0      		ldi r24,hlo8(6000)
 10637 4c28 90E0      		ldi r25,hhi8(6000)
 10638 4c2a 0E94 0000 		call chThdSleep
 10639 4c2e 00C0      		rjmp .L425
 10640               	.L430:
 10641               	.LM1105:
 10642 4c30 80E0      		ldi r24,lo8(sdUSE)
 10643 4c32 90E0      		ldi r25,hi8(sdUSE)
 10644 4c34 40E0      		ldi r20,lo8(0)
 10645 4c36 50E0      		ldi r21,hi8(0)
 10646 4c38 60E0      		ldi r22,hlo8(0)
 10647 4c3a 70E0      		ldi r23,hhi8(0)
 10648 4c3c 0E94 0000 		call chSemWaitTimeout
 10649               	.LM1106:
 10650 4c40 80E0      		ldi r24,lo8(.LC23)
 10651 4c42 90E0      		ldi r25,hi8(.LC23)
 10652               	.L427:
 10653 4c44 60E0      		ldi r22,lo8(0)
 10654 4c46 40E0      		ldi r20,lo8(0)
 10655 4c48 0E94 0000 		call bmpDraw
 10656               	.LM1107:
 10657 4c4c 80E0      		ldi r24,lo8(sdUSE)
 10658 4c4e 90E0      		ldi r25,hi8(sdUSE)
 10659 4c50 0E94 0000 		call chSemSignal
 10660 4c54 11E0      		ldi r17,lo8(1)
 10661 4c56 00C0      		rjmp .L424
 10662               	.L421:
 10663               	.LM1108:
 10664 4c58 1123      		tst r17
 10665 4c5a 01F4      		brne .L422
 10666               	.LM1109:
 10667 4c5c 80E0      		ldi r24,lo8(spiUSE)
 10668 4c5e 90E0      		ldi r25,hi8(spiUSE)
 10669 4c60 40E0      		ldi r20,lo8(0)
 10670 4c62 50E0      		ldi r21,hi8(0)
 10671 4c64 60E0      		ldi r22,hlo8(0)
 10672 4c66 70E0      		ldi r23,hhi8(0)
 10673 4c68 0E94 0000 		call chSemWaitTimeout
 10674               	.LM1110:
 10675 4c6c 00D0      		rcall .
 10676 4c6e 00D0      		rcall .
 10677 4c70 EDB7      		in r30,__SP_L__
 10678 4c72 FEB7      		in r31,__SP_H__
 10679 4c74 D283      		std Z+2,r29
 10680 4c76 C183      		std Z+1,r28
 10681 4c78 D482      		std Z+4,r13
 10682 4c7a C382      		std Z+3,r12
 10683 4c7c 0E94 0000 		call fprintf_P
 10684               	.LM1111:
 10685 4c80 0F90      		pop __tmp_reg__
 10686 4c82 0F90      		pop __tmp_reg__
 10687 4c84 0F90      		pop __tmp_reg__
 10688 4c86 0F90      		pop __tmp_reg__
 10689 4c88 80E0      		ldi r24,lo8(spiUSE)
 10690 4c8a 90E0      		ldi r25,hi8(spiUSE)
 10691 4c8c 0E94 0000 		call chSemSignal
 10692 4c90 00C0      		rjmp .L424
 10693               	.L428:
 10694               	.LM1112:
 10695 4c92 80E0      		ldi r24,lo8(lcdUSE)
 10696 4c94 90E0      		ldi r25,hi8(lcdUSE)
 10697 4c96 0E94 0000 		call chSemSignal
 10698 4c9a 00C0      		rjmp .L420
 10699               	.L429:
 10700               	.LM1113:
 10701 4c9c 80E0      		ldi r24,lo8(sdUSE)
 10702 4c9e 90E0      		ldi r25,hi8(sdUSE)
 10703 4ca0 40E0      		ldi r20,lo8(0)
 10704 4ca2 50E0      		ldi r21,hi8(0)
 10705 4ca4 60E0      		ldi r22,hlo8(0)
 10706 4ca6 70E0      		ldi r23,hhi8(0)
 10707 4ca8 0E94 0000 		call chSemWaitTimeout
 10708               	.LM1114:
 10709 4cac 80E0      		ldi r24,lo8(.LC22)
 10710 4cae 90E0      		ldi r25,hi8(.LC22)
 10711 4cb0 00C0      		rjmp .L427
 10712               	.LFE84:
 10714               	.global	LCD_PWM_SET
 10715               		.data
 10718               	LCD_PWM_SET:
 10719 011f 0A        		.byte	10
 10720               	.global	triggered
 10721               	.global	triggered
 10722               		.section .bss
 10725               	triggered:
 10726 0000 00        		.skip 1,0
 10727               	.global	lcd_context
 10728               		.data
 10731               	lcd_context:
 10732 0120 01        		.byte	1
 10733               	.global	lcd_context_count
 10736               	lcd_context_count:
 10737 0121 01        		.byte	1
 10738 0122 01        		.byte	1
 10739 0123 01        		.byte	1
 10740 0124 01        		.byte	1
 10741 0125 01        		.byte	1
 10742 0126 01        		.byte	1
 10743 0127 01        		.byte	1
 10744 0128 01        		.byte	1
 10745 0129 01        		.byte	1
 10746 012a 01        		.byte	1
 10747 012b 01        		.byte	1
 10748 012c 01        		.byte	1
 10749 012d 01        		.byte	1
 10750 012e 01        		.byte	1
 10751               	.global	lcd_context_count_MAX
 10754               	lcd_context_count_MAX:
 10755 012f 01        		.byte	1
 10756 0130 01        		.byte	1
 10757 0131 01        		.byte	1
 10758 0132 01        		.byte	1
 10759 0133 03        		.byte	3
 10760 0134 01        		.byte	1
 10761 0135 01        		.byte	1
 10762 0136 01        		.byte	1
 10763 0137 01        		.byte	1
 10764 0138 01        		.byte	1
 10765 0139 01        		.byte	1
 10766 013a 02        		.byte	2
 10767 013b 01        		.byte	1
 10768 013c 04        		.byte	4
 10769               	.global	thread_internal_started
 10770               	.global	thread_internal_started
 10771               		.section .bss
 10774               	thread_internal_started:
 10775 0001 0000 0000 		.skip 9,0
 10775      0000 0000 
 10775      00
 10776               	.global	USART_HB_LOGGING_ON
 10777               		.data
 10780               	USART_HB_LOGGING_ON:
 10781 013d 01        		.byte	1
 10782               	.global	SD_HB_LOGGING_ON
 10783               	.global	SD_HB_LOGGING_ON
 10784               		.section .bss
 10787               	SD_HB_LOGGING_ON:
 10788 000a 00        		.skip 1,0
 10789               	.global	curMenu
 10790               	.global	curMenu
 10793               	curMenu:
 10794 000b 0000      		.skip 2,0
 10795               	.global	curItem
 10796               	.global	curItem
 10799               	curItem:
 10800 000d 0000      		.skip 2,0
 10801               	.global	updateFlag
 10802               	.global	updateFlag
 10805               	updateFlag:
 10806 000f 0000      		.skip 2,0
 10807               	.global	cursorCount
 10808               	.global	cursorCount
 10811               	cursorCount:
 10812 0011 0000      		.skip 2,0
 10813               	.global	menuCount
 10814               	.global	menuCount
 10817               	menuCount:
 10818 0013 0000      		.skip 2,0
 10819               	.global	pageScroll
 10820               	.global	pageScroll
 10823               	pageScroll:
 10824 0015 0000      		.skip 2,0
 10825               	.global	menuprintloop
 10826               	.global	menuprintloop
 10829               	menuprintloop:
 10830 0017 0000      		.skip 2,0
 10831               	.global	switchtype
 10832               	.global	switchtype
 10835               	switchtype:
 10836 0019 00        		.skip 1,0
 10837               	.global	elapsed_hours
 10838               	.global	elapsed_hours
 10841               	elapsed_hours:
 10842 001a 00        		.skip 1,0
 10843               	.global	elapsed_mins
 10844               	.global	elapsed_mins
 10847               	elapsed_mins:
 10848 001b 00        		.skip 1,0
 10849               	.global	elapsed_secs
 10850               	.global	elapsed_secs
 10853               	elapsed_secs:
 10854 001c 00        		.skip 1,0
 10855               	.global	battery_average
 10856               	.global	battery_average
 10859               	battery_average:
 10860 001d 0000 0000 		.skip 4,0
 10861               	.global	s
 10862               	.global	s
 10865               	s:
 10866 0021 00        		.skip 1,0
 10867               	.global	min
 10868               		.data
 10871               	min:
 10872 013e 25        		.byte	37
 10873               	.global	hr
 10876               	hr:
 10877 013f 08        		.byte	8
 10878               	.global	dy
 10881               	dy:
 10882 0140 03        		.byte	3
 10883               	.global	dt
 10886               	dt:
 10887 0141 18        		.byte	24
 10888               	.global	mt
 10891               	mt:
 10892 0142 04        		.byte	4
 10893               	.global	yr
 10896               	yr:
 10897 0143 12        		.byte	18
 10898               	.global	hr_format
 10901               	hr_format:
 10902 0144 0100      		.word	1
 10903               	.global	am_pm
 10904               	.global	am_pm
 10905               		.section .bss
 10908               	am_pm:
 10909 0022 0000      		.skip 2,0
 10910               	.global	DAY_NAME
 10911               		.data
 10912               	.LC24:
 10913 0146 5355 4E00 		.string	"SUN"
 10914               	.LC25:
 10915 014a 4D4F 4E00 		.string	"MON"
 10916               	.LC26:
 10917 014e 5455 4500 		.string	"TUE"
 10918               	.LC27:
 10919 0152 5745 4400 		.string	"WED"
 10920               	.LC28:
 10921 0156 5448 5500 		.string	"THU"
 10922               	.LC29:
 10923 015a 4652 4900 		.string	"FRI"
 10924               	.LC30:
 10925 015e 5341 5400 		.string	"SAT"
 10928               	DAY_NAME:
 10929 0162 0000      		.word	.LC24
 10930 0164 0000      		.word	.LC25
 10931 0166 0000      		.word	.LC26
 10932 0168 0000      		.word	.LC27
 10933 016a 0000      		.word	.LC28
 10934 016c 0000      		.word	.LC29
 10935 016e 0000      		.word	.LC30
 10936               	.global	Red_LED_output
 10937               	.global	Red_LED_output
 10938               		.section .bss
 10941               	Red_LED_output:
 10942 0024 0000 0000 		.skip 16,0
 10942      0000 0000 
 10942      0000 0000 
 10942      0000 0000 
 10943               	.global	IR_LED_output
 10944               	.global	IR_LED_output
 10947               	IR_LED_output:
 10948 0034 0000 0000 		.skip 16,0
 10948      0000 0000 
 10948      0000 0000 
 10948      0000 0000 
 10949               	.global	Red_dc_avg
 10950               	.global	Red_dc_avg
 10953               	Red_dc_avg:
 10954 0044 0000 0000 		.skip 4,0
 10955               	.global	IR_dc_avg
 10956               	.global	IR_dc_avg
 10959               	IR_dc_avg:
 10960 0048 0000 0000 		.skip 4,0
 10961               	.global	Red_result
 10962               	.global	Red_result
 10965               	Red_result:
 10966 004c 00        		.skip 1,0
 10967               	.global	IR_result
 10968               	.global	IR_result
 10971               	IR_result:
 10972 004d 00        		.skip 1,0
 10973               	.global	LED_data_vector
 10974               	.global	LED_data_vector
 10977               	LED_data_vector:
 10978 004e 0000 0000 		.skip 8,0
 10978      0000 0000 
 10979               	.global	p1
 10980               	.global	p1
 10983               	p1:
 10984 0056 0000 0000 		.skip 4,0
 10985               	.global	HB_ON
 10986               	.global	HB_ON
 10989               	HB_ON:
 10990 005a 00        		.skip 1,0
 10991               	.global	HB_locked
 10992               	.global	HB_locked
 10995               	HB_locked:
 10996 005b 00        		.skip 1,0
 10997               	.global	ms_current_beat
 10998               	.global	ms_current_beat
 11001               	ms_current_beat:
 11002 005c 0000 0000 		.skip 4,0
 11003               	.global	ms_old_beat
 11004               	.global	ms_old_beat
 11007               	ms_old_beat:
 11008 0060 0000 0000 		.skip 4,0
 11009               	.global	ms_elapsed_since_last
 11010               	.global	ms_elapsed_since_last
 11013               	ms_elapsed_since_last:
 11014 0064 0000 0000 		.skip 4,0
 11015               	.global	ms_elapsed_since_last_right_now
 11016               	.global	ms_elapsed_since_last_right_now
 11019               	ms_elapsed_since_last_right_now:
 11020 0068 0000 0000 		.skip 4,0
 11021               	.global	blanking_time
 11022               	.global	blanking_time
 11025               	blanking_time:
 11026 006c 0000 0000 		.skip 4,0
 11027               	.global	nil_thd_configs
 11028               		.data
 11029               	.LC31:
 11030 0170 4275 7474 		.string	"ButtonHdl"
 11030      6F6E 4864 
 11030      6C00 
 11031               	.LC32:
 11032 017a 4D65 6E75 		.string	"MenuHdl"
 11032      4864 6C00 
 11033               	.LC33:
 11034 0182 426C 696E 		.string	"Blinky"
 11034      6B79 00
 11035               	.LC34:
 11036 0189 4C43 445F 		.string	"LCD_stuff"
 11036      7374 7566 
 11036      6600 
 11037               	.LC35:
 11038 0193 4C43 445F 		.string	"LCD_but_nav"
 11038      6275 745F 
 11038      6E61 7600 
 11039               	.LC36:
 11040 019f 7465 7374 		.string	"test_support"
 11040      5F73 7570 
 11040      706F 7274 
 11040      00
 11041               	.LC37:
 11042 01ac 5465 7374 		.string	"TestCode"
 11042      436F 6465 
 11042      00
 11043               	.LC38:
 11044 01b5 5468 7265 		.string	"Thread info"
 11044      6164 2069 
 11044      6E66 6F00 
 11045               	.LC39:
 11046 01c1 5468 7265 		.string	"Thread status"
 11046      6164 2073 
 11046      7461 7475 
 11046      7300 
 11047               	.LC40:
 11048 01cf 426C 696E 		.string	"Blink Counter"
 11048      6B20 436F 
 11048      756E 7465 
 11048      7200 
 11049               	.LC41:
 11050 01dd 5254 4300 		.string	"RTC"
 11051               	.LC42:
 11052 01e1 5365 6E73 		.string	"Sensors"
 11052      6F72 7300 
 11053               	.LC43:
 11054 01e9 5365 7420 		.string	"Set Time"
 11054      5469 6D65 
 11054      00
 11055               	.LC44:
 11056 01f2 4144 4300 		.string	"ADC"
 11057               	.LC45:
 11058 01f6 7469 6D65 		.string	"time"
 11058      00
 11059               	.LC46:
 11060 01fb 6964 6C65 		.string	"idle"
 11060      00
 11063               	nil_thd_configs:
 11064 0200 0000      		.word	waThread1
 11065 0202 0000      		.word	waThread1+180
 11066 0204 0000      		.word	.LC31
 11067 0206 0000      		.word	gs(Thread1)
 11068 0208 0000      		.word	0
 11069 020a 0000      		.word	waThread2
 11070 020c 0000      		.word	waThread2+308
 11071 020e 0000      		.word	.LC32
 11072 0210 0000      		.word	gs(Thread2)
 11073 0212 0000      		.word	0
 11074 0214 0000      		.word	waThread3
 11075 0216 0000      		.word	waThread3+820
 11076 0218 0000      		.word	.LC33
 11077 021a 0000      		.word	gs(Thread3)
 11078 021c 0000      		.word	0
 11079 021e 0000      		.word	waThread4
 11080 0220 0000      		.word	waThread4+308
 11081 0222 0000      		.word	.LC34
 11082 0224 0000      		.word	gs(Thread4)
 11083 0226 0000      		.word	0
 11084 0228 0000      		.word	waThread5
 11085 022a 0000      		.word	waThread5+820
 11086 022c 0000      		.word	.LC35
 11087 022e 0000      		.word	gs(Thread5)
 11088 0230 0000      		.word	0
 11089 0232 0000      		.word	wa_test_support
 11090 0234 0000      		.word	wa_test_support+180
 11091 0236 0000      		.word	.LC36
 11092 0238 0000      		.word	gs(test_support)
 11093 023a 0000      		.word	nil+68
 11094 023c 0000      		.word	waThread6
 11095 023e 0000      		.word	waThread6+180
 11096 0240 0000      		.word	.LC37
 11097 0242 0000      		.word	gs(Thread6)
 11098 0244 0000      		.word	0
 11099 0246 0000      		.word	waThread7
 11100 0248 0000      		.word	waThread7+308
 11101 024a 0000      		.word	.LC38
 11102 024c 0000      		.word	gs(Thread7)
 11103 024e 0000      		.word	0
 11104 0250 0000      		.word	waThread8
 11105 0252 0000      		.word	waThread8+180
 11106 0254 0000      		.word	.LC39
 11107 0256 0000      		.word	gs(Thread8)
 11108 0258 0000      		.word	0
 11109 025a 0000      		.word	waThread9
 11110 025c 0000      		.word	waThread9+308
 11111 025e 0000      		.word	.LC40
 11112 0260 0000      		.word	gs(Thread9)
 11113 0262 0000      		.word	0
 11114 0264 0000      		.word	waThread10
 11115 0266 0000      		.word	waThread10+308
 11116 0268 0000      		.word	.LC41
 11117 026a 0000      		.word	gs(Thread10)
 11118 026c 0000      		.word	0
 11119 026e 0000      		.word	waThread11
 11120 0270 0000      		.word	waThread11+308
 11121 0272 0000      		.word	.LC42
 11122 0274 0000      		.word	gs(Thread11)
 11123 0276 0000      		.word	0
 11124 0278 0000      		.word	waThread12
 11125 027a 0000      		.word	waThread12+1736
 11126 027c 0000      		.word	.LC11
 11127 027e 0000      		.word	gs(Thread12)
 11128 0280 0000      		.word	0
 11129 0282 0000      		.word	waThread14
 11130 0284 0000      		.word	waThread14+308
 11131 0286 0000      		.word	.LC43
 11132 0288 0000      		.word	gs(Thread14)
 11133 028a 0000      		.word	0
 11134 028c 0000      		.word	waThread13
 11135 028e 0000      		.word	waThread13+308
 11136 0290 0000      		.word	.LC44
 11137 0292 0000      		.word	gs(Thread13)
 11138 0294 0000      		.word	0
 11139 0296 0000      		.word	waTimer
 11140 0298 0000      		.word	waTimer+180
 11141 029a 0000      		.word	.LC45
 11142 029c 0000      		.word	gs(timer)
 11143 029e 0000      		.word	0
 11144 02a0 0000      		.word	0
 11145 02a2 0000      		.word	0
 11146 02a4 0000      		.word	.LC46
 11147 02a6 0000      		.word	0
 11148 02a8 0000      		.word	0
 11149               		.lcomm tp,28
 11152               	st7735_out:
 11153 02aa 0000 00   		.skip 3,0
 11154 02ad 02        		.byte	2
 11155 02ae 0000 0000 		.skip 4,0
 11156 02b2 0000      		.word	gs(st7735_printf)
 11157 02b4 0000      		.word	0
 11158 02b6 0000      		.word	0
 11159               		.section	.progmem.data,"a",@progbits
 11162               	__c.4366:
 11163 0000 2532 753A 		.string	"%2u:%02u:%02u AM"
 11163      2530 3275 
 11163      3A25 3032 
 11163      7520 414D 
 11163      00
 11166               	__c.4364:
 11167 0011 2532 753A 		.string	"%2u:%02u:%02u PM"
 11167      2530 3275 
 11167      3A25 3032 
 11167      7520 504D 
 11167      00
 11170               	__c.4361:
 11171 0022 2532 753A 		.string	"%2u:%02u:%02u AM"
 11171      2530 3275 
 11171      3A25 3032 
 11171      7520 414D 
 11171      00
 11174               	__c.4359:
 11175 0033 2532 753A 		.string	"%2u:%02u:%02u PM"
 11175      2530 3275 
 11175      3A25 3032 
 11175      7520 504D 
 11175      00
 11176               		.data
 11179               	usart_out:
 11180 02b8 0000 00   		.skip 3,0
 11181 02bb 02        		.byte	2
 11182 02bc 0000 0000 		.skip 4,0
 11183 02c0 0000      		.word	gs(usart_putchar_printf)
 11184 02c2 0000      		.word	0
 11185 02c4 0000      		.word	0
 11186               		.section	.progmem.data
 11189               	__c.4221:
 11190 0044 2533 6C64 		.string	"%3ld"
 11190      00
 11193               	__c.4219:
 11194 0049 2000      		.string	" "
 11197               	__c.4214:
 11198 004b 2000      		.string	" "
 11201               	__c.4212:
 11202 004d 2563 00   		.string	"%c"
 11205               	__c.4210:
 11206 0050 2533 6400 		.string	"%3d"
 11209               	__c.4208:
 11210 0054 3200      		.string	"2"
 11213               	__c.4206:
 11214 0056 2525 4F00 		.string	"%%O"
 11217               	__c.4204:
 11218 005a 2D2D 2D00 		.string	"---"
 11221               	__c.4202:
 11222 005e 4250 4D00 		.string	"BPM"
 11225               	__c.4200:
 11226 0062 2573 00   		.string	"%s"
 11229               	__c.4198:
 11230 0065 2530 3130 		.string	"%010lu,%11ld,%11ld,%11ld,%1u,%3ld\r\n"
 11230      6C75 2C25 
 11230      3131 6C64 
 11230      2C25 3131 
 11230      6C64 2C25 
 11233               	__c.4195:
 11234 0089 665F 7772 		.string	"f_write1: %d (0 = OK) \r\n"
 11234      6974 6531 
 11234      3A20 2564 
 11234      2028 3020 
 11234      3D20 4F4B 
 11237               	__c.4193:
 11238 00a2 665F 6C73 		.string	"f_lseek: %d (0 = OK) \r\n"
 11238      6565 6B3A 
 11238      2025 6420 
 11238      2830 203D 
 11238      204F 4B29 
 11241               	__c.4191:
 11242 00ba 665F 6F70 		.string	"f_open: %d (0 = OK) \r\n"
 11242      656E 3A20 
 11242      2564 2028 
 11242      3020 3D20 
 11242      4F4B 2920 
 11245               	__c.4189:
 11246 00d1 665F 6D6F 		.string	"f_mount: %d (0 = OK) \r\n"
 11246      756E 743A 
 11246      2025 6420 
 11246      2830 203D 
 11246      204F 4B29 
 11249               	__c.4187:
 11250 00e9 4469 736B 		.string	"Disk Init: %d (0 = OK) \r\n"
 11250      2049 6E69 
 11250      743A 2025 
 11250      6420 2830 
 11250      203D 204F 
 11253               	__c.4185:
 11254 0103 4D41 5833 		.string	"MAX30105 set up .. lets go. \r\n"
 11254      3031 3035 
 11254      2073 6574 
 11254      2075 7020 
 11254      2E2E 206C 
 11257               	__c.4183:
 11258 0122 4D41 5833 		.string	"MAX30105 was not found. Please check wiring/power. \r\n"
 11258      3031 3035 
 11258      2077 6173 
 11258      206E 6F74 
 11258      2066 6F75 
 11259               		.data
 11262               	C.104.4225:
 11263 02c6 64        		.byte	100
 11264 02c7 00        		.byte	0
 11265 02c8 00        		.byte	0
 11266 02c9 00        		.byte	0
 11267 02ca 64        		.byte	100
 11268 02cb 00        		.byte	0
 11269 02cc 00        		.byte	0
 11270 02cd 00        		.byte	0
 11271 02ce 64        		.byte	100
 11272 02cf 00        		.byte	0
 11273 02d0 00        		.byte	0
 11274 02d1 00        		.byte	0
 11275 02d2 64        		.byte	100
 11276 02d3 00        		.byte	0
 11277 02d4 00        		.byte	0
 11278 02d5 00        		.byte	0
 11279 02d6 64        		.byte	100
 11280 02d7 00        		.byte	0
 11281 02d8 00        		.byte	0
 11282 02d9 00        		.byte	0
 11283 02da 64        		.byte	100
 11284 02db 00        		.byte	0
 11285 02dc 00        		.byte	0
 11286 02dd 00        		.byte	0
 11287 02de 64        		.byte	100
 11288 02df 00        		.byte	0
 11289 02e0 00        		.byte	0
 11290 02e1 00        		.byte	0
 11291               		.lcomm trp,28
 11292               		.section	.progmem.data
 11295               	__c.4113:
 11296 0158 4865 6164 		.string	"Heading: %7.1f \r\n"
 11296      696E 673A 
 11296      2025 372E 
 11296      3166 200D 
 11296      0A00 
 11299               	__c.4111:
 11300 016a 6D69 6E3A 		.string	"min: %7.1f %7.1f %7.1f max: %7.1f %7.1f %7.1f \r\n"
 11300      2025 372E 
 11300      3166 2025 
 11300      372E 3166 
 11300      2025 372E 
 11303               	__c.4109:
 11304 019b 4D61 676E 		.string	"Magnetometer mgauss x:%7.1f y:%7.1f z:%7.1f \r\n"
 11304      6574 6F6D 
 11304      6574 6572 
 11304      206D 6761 
 11304      7573 7320 
 11307               	__c.4107:
 11308 01ca 4163 6365 		.string	"Acceleration g's x:%7.1f y:%7.1f z:%7.1f \r\n"
 11308      6C65 7261 
 11308      7469 6F6E 
 11308      2067 2773 
 11308      2078 3A25 
 11311               	__c.4105:
 11312 01f6 783A 2025 		.string	"x: %-7.3fm y: %-7.3f Pa z: %-7.3f\r\n"
 11312      2D37 2E33 
 11312      666D 2079 
 11312      3A20 252D 
 11312      372E 3366 
 11315               	__c.4103:
 11316 021a 413A 2025 		.string	"A: %-7.3fm P: %-7.3f Pa T: %-7.3f C \r\n"
 11316      2D37 2E33 
 11316      666D 2050 
 11316      3A20 252D 
 11316      372E 3366 
 11319               	__c.4101:
 11320 0241 0D0A 00   		.string	"\r\n"
 11323               	__c.4089:
 11324 0244 0D0A 00   		.string	"\r\n"
 11327               	__c.4087:
 11328 0247 4453 3332 		.string	"DS3231 init successful\r\n"
 11328      3331 2069 
 11328      6E69 7420 
 11328      7375 6363 
 11328      6573 7366 
 11331               	__c.4085:
 11332 0260 6932 6320 		.string	"i2c init successful\r\n"
 11332      696E 6974 
 11332      2073 7563 
 11332      6365 7373 
 11332      6675 6C0D 
 11335               	__c.4056:
 11336 0276 4C43 4420 		.string	"LCD SEM:%2d"
 11336      5345 4D3A 
 11336      2532 6400 
 11339               	__c.4054:
 11340 0282 636F 756E 		.string	"count:%u"
 11340      743A 2575 
 11340      00
 11343               	__c.4040:
 11344 028b 0D0A 00   		.string	"\r\n"
 11347               	__c.4035:
 11348 028e 2533 7500 		.string	"%3u"
 11351               	__c.4033:
 11352 0292 0D0A 00   		.string	"\r\n"
 11355               	__c.4028:
 11356 0295 202D 2D00 		.string	" --"
 11359               	__c.4026:
 11360 0299 0D0A 00   		.string	"\r\n"
 11363               	__c.4021:
 11364 029c 2533 7500 		.string	"%3u"
 11367               	__c.4019:
 11368 02a0 5448 5245 		.string	"THREAD STATUS\r\n"
 11368      4144 2053 
 11368      5441 5455 
 11368      530D 0A00 
 11371               	__c.4003:
 11372 02b0 0D0A 204E 		.string	"\r\n NILRTOS 1.1 \r\n"
 11372      494C 5254 
 11372      4F53 2031 
 11372      2E31 200D 
 11372      0A00 
 11375               	__c.3942:
 11376 02c2 5465 6D70 		.string	"Temp: %-3.1f C\r\n"
 11376      3A20 252D 
 11376      332E 3166 
 11376      2043 0D0A 
 11376      00
 11379               	__c.3940:
 11380 02d3 2530 3275 		.string	"%02u:%02u:%02u\r\n"
 11380      3A25 3032 
 11380      753A 2530 
 11380      3275 0D0A 
 11380      00
 11383               	__c.3938:
 11384 02e4 414D 0D0A 		.string	"AM\r\n"
 11384      00
 11387               	__c.3936:
 11388 02e9 2532 753A 		.string	"%2u:%02u:%02u\r\n"
 11388      2530 3275 
 11388      3A25 3032 
 11388      750D 0A00 
 11391               	__c.3934:
 11392 02f9 504D 0D0A 		.string	"PM\r\n"
 11392      00
 11395               	__c.3932:
 11396 02fe 2532 753A 		.string	"%2u:%02u:%02u\r\n"
 11396      2530 3275 
 11396      3A25 3032 
 11396      750D 0A00 
 11399               	__c.3930:
 11400 030e 2532 752F 		.string	"%2u/%02u/%02u\r\n"
 11400      2530 3275 
 11400      2F25 3032 
 11400      750D 0A00 
 11403               	__c.3928:
 11404 031e 2573 00   		.string	"%s"
 11407               	__c.3925:
 11408 0321 5E20 4E6F 		.string	"^ North %3.0f degrees East ^\r\n"
 11408      7274 6820 
 11408      2533 2E30 
 11408      6620 6465 
 11408      6772 6565 
 11411               	__c.3923:
 11412 0340 0D0A 00   		.string	"\r\n"
 11415               	__c.3921:
 11416 0343 2020 2020 		.string	"           z: %-6.1f\r\n"
 11416      2020 2020 
 11416      2020 207A 
 11416      3A20 252D 
 11416      362E 3166 
 11419               	__c.3919:
 11420 035a 5B6D 6761 		.string	"[mgauss]   y: %-6.1f\r\n"
 11420      7573 735D 
 11420      2020 2079 
 11420      3A20 252D 
 11420      362E 3166 
 11423               	__c.3917:
 11424 0371 4D61 6720 		.string	"Mag Field  x: %-6.1f\r\n"
 11424      4669 656C 
 11424      6420 2078 
 11424      3A20 252D 
 11424      362E 3166 
 11427               	__c.3915:
 11428 0388 0D0A 00   		.string	"\r\n"
 11431               	__c.3913:
 11432 038b 2020 2020 		.string	"           z: %-4.1f\r\n"
 11432      2020 2020 
 11432      2020 207A 
 11432      3A20 252D 
 11432      342E 3166 
 11435               	__c.3911:
 11436 03a2 5B67 2773 		.string	"[g's]      y: %-4.1f\r\n"
 11436      5D20 2020 
 11436      2020 2079 
 11436      3A20 252D 
 11436      342E 3166 
 11439               	__c.3909:
 11440 03b9 4163 6365 		.string	"Accel'n    x: %-4.1f\r\n"
 11440      6C27 6E20 
 11440      2020 2078 
 11440      3A20 252D 
 11440      342E 3166 
 11443               	__c.3907:
 11444 03d0 0D0A 00   		.string	"\r\n"
 11447               	__c.3905:
 11448 03d3 2020 2020 		.string	"           z: %-7.0f\r\n"
 11448      2020 2020 
 11448      2020 207A 
 11448      3A20 252D 
 11448      372E 3066 
 11451               	__c.3903:
 11452 03ea 5B6D 6465 		.string	"[mdeg/s]   y: %-7.0f\r\n"
 11452      672F 735D 
 11452      2020 2079 
 11452      3A20 252D 
 11452      372E 3066 
 11455               	__c.3901:
 11456 0401 526F 7461 		.string	"Rotation   x: %-7.0f\r\n"
 11456      7469 6F6E 
 11456      2020 2078 
 11456      3A20 252D 
 11456      372E 3066 
 11459               	__c.3897:
 11460 0418 4669 726D 		.string	"Firmware Version: 0.12\r\n"
 11460      7761 7265 
 11460      2056 6572 
 11460      7369 6F6E 
 11460      3A20 302E 
 11463               	__c.3895:
 11464 0431 2042 6174 		.string	" Battery Voltage: %u.%u%u\r\n"
 11464      7465 7279 
 11464      2056 6F6C 
 11464      7461 6765 
 11464      3A20 2575 
 11467               	__c.3893:
 11468 044d 2020 2044 		.string	"   DS3231 status: 0x%02X\r\n"
 11468      5333 3233 
 11468      3120 7374 
 11468      6174 7573 
 11468      3A20 3078 
 11471               	__c.3891:
 11472 0468 5465 6D70 		.string	"Temperature: %-4.1f C\r\n"
 11472      6572 6174 
 11472      7572 653A 
 11472      2025 2D34 
 11472      2E31 6620 
 11475               	__c.3889:
 11476 0480 2020 2050 		.string	"   Pressure: %-7.0fPa\r\n"
 11476      7265 7373 
 11476      7572 653A 
 11476      2025 2D37 
 11476      2E30 6650 
 11479               	__c.3887:
 11480 0498 2020 2041 		.string	"   Altitude: %-4.0fm\r\n"
 11480      6C74 6974 
 11480      7564 653A 
 11480      2025 2D34 
 11480      2E30 666D 
 11483               	__c.3869:
 11484 04af 2530 3264 		.string	"%02d:%02d \r\n"
 11484      3A25 3032 
 11484      6420 0D0A 
 11484      00
 11487               	__c.3866:
 11488 04bc 5379 7374 		.string	"System time:"
 11488      656D 2074 
 11488      696D 653A 
 11488      00
 11491               	__c.3851:
 11492 04c9 6361 6E27 		.string	"can't open file"
 11492      7420 6F70 
 11492      656E 2066 
 11492      696C 6500 
 11495               	__c.3684:
 11496 04d9 2025 7300 		.string	" %s"
 11499               	__c.3682:
 11500 04dd 3E25 7300 		.string	">%s"
 11503               	__c.3680:
 11504 04e1 2573 00   		.string	"%s"
 11507               	__c.3573:
 11508 04e4 2564 0D0A 		.string	"%d\r\n"
 11508      00
 11511               	__c.3568:
 11512 04e9 2533 6420 		.string	"%3d "
 11512      00
 11515               	__c.3566:
 11516 04ee 556E 7573 		.string	"Unused Stack: "
 11516      6564 2053 
 11516      7461 636B 
 11516      3A20 00
 11519               	__c.3554:
 11520 04fd 2564 0D0A 		.string	"%d\r\n"
 11520      00
 11523               	__c.3549:
 11524 0502 2533 6420 		.string	"%3d "
 11524      00
 11527               	__c.3547:
 11528 0507 2053 7461 		.string	" Stack Sizes: "
 11528      636B 2053 
 11528      697A 6573 
 11528      3A20 00
 11531               	__c.3477:
 11532 0516 496D 6167 		.string	"Image size: %d by %d pixels \r\n"
 11532      6520 7369 
 11532      7A65 3A20 
 11532      2564 2062 
 11532      7920 2564 
 11535               	__c.3475:
 11536 0535 696E 7661 		.string	"invalid depth or compression \r\n"
 11536      6C69 6420 
 11536      6465 7074 
 11536      6820 6F72 
 11536      2063 6F6D 
 11539               	__c.3473:
 11540 0555 4269 7420 		.string	"Bit Depth: %d \r\n"
 11540      4465 7074 
 11540      683A 2025 
 11540      6420 0D0A 
 11540      00
 11543               	__c.3471:
 11544 0566 706C 616E 		.string	"planes not 1 \r\n"
 11544      6573 206E 
 11544      6F74 2031 
 11544      200D 0A00 
 11547               	__c.3469:
 11548 0576 4865 6164 		.string	"Header size: %ld \r\n"
 11548      6572 2073 
 11548      697A 653A 
 11548      2025 6C64 
 11548      200D 0A00 
 11551               	__c.3467:
 11552 058a 496D 6167 		.string	"Image Offset: %ld \r\n"
 11552      6520 4F66 
 11552      6673 6574 
 11552      3A20 256C 
 11552      6420 0D0A 
 11555               	__c.3465:
 11556 059f 4669 6C65 		.string	"File size: %ld \r\n"
 11556      2073 697A 
 11556      653A 2025 
 11556      6C64 200D 
 11556      0A00 
 11559               	__c.3463:
 11560 05b1 696E 7661 		.string	"invalid bmp \r\n"
 11560      6C69 6420 
 11560      626D 7020 
 11560      0D0A 00
 11563               	__c.3461:
 11564 05c0 4669 6C65 		.string	"File open error \r\n"
 11564      206F 7065 
 11564      6E20 6572 
 11564      726F 7220 
 11564      0D0A 00
 11567               	__c.3459:
 11568 05d3 4C6F 6164 		.string	"Loading image \r\n"
 11568      696E 6720 
 11568      696D 6167 
 11568      6520 0D0A 
 11568      00
 11571               	__c.3457:
 11572 05e4 6261 6420 		.string	"bad position \r\n"
 11572      706F 7369 
 11572      7469 6F6E 
 11572      200D 0A00 
 11575               	__c.3340:
 11576 05f4 5469 6D65 		.string	"Time: %02u:%02u:%02u \r\n"
 11576      3A20 2530 
 11576      3275 3A25 
 11576      3032 753A 
 11576      2530 3275 
 11579               	__c.3336:
 11580 060c 5469 6D65 		.string	"Time: %02u:%02u:%02u AM \r\n"
 11580      3A20 2530 
 11580      3275 3A25 
 11580      3032 753A 
 11580      2530 3275 
 11583               	__c.3332:
 11584 0627 5469 6D65 		.string	"Time: %02u:%02u:%02u PM \r\n"
 11584      3A20 2530 
 11584      3275 3A25 
 11584      3032 753A 
 11584      2530 3275 
 11587               	__c.3328:
 11588 0642 4453 3332 		.string	"DS3231_Temp: %2.2g'C \r\n"
 11588      3331 5F54 
 11588      656D 703A 
 11588      2025 322E 
 11588      3267 2743 
 11591               	__c.3326:
 11592 065a 4461 7465 		.string	"Date: %02u/%02u/%02u \r\n"
 11592      3A20 2530 
 11592      3275 2F25 
 11592      3032 752F 
 11592      2530 3275 
 11593               		.comm st7735_width,1,1
 11594               		.comm st7735_height,1,1
 11595               		.comm WIDTH,2,1
 11596               		.comm HEIGHT,2,1
 11597               		.comm cursor_x,2,1
 11598               		.comm cursor_y,2,1
 11599               		.comm textcolor,2,1
 11600               		.comm textbgcolor,2,1
 11601               		.comm textsize,1,1
 11602               		.comm rotation,1,1
 11603               		.comm wrap,1,1
 11604               		.comm minute_counter,4,1
 11605               		.comm mode,1,1
 11606               		.comm _ctrl_reg1,1,1
 11607               		.comm g,12,1
 11608               		.comm a,12,1
 11609               		.comm m,12,1
 11610               		.comm m_max,12,1
 11611               		.comm m_min,12,1
 11612               		.comm MAX30105_i2caddr,1,1
 11613               		.comm MAX30105_activeLEDs,1,1
 11614               		.comm MAX30105_revisionID,1,1
 11615               		.comm acc_size,4,1
 11616               		.comm acc_files,2,1
 11617               		.comm acc_dirs,2,1
 11618               		.comm Finfo,22,1
 11619               		.comm Line,128,1
 11620               		.comm Fatfs,558,1
 11621               		.comm Buff,1024,1
 11622               		.comm j,1,1
 11623               		.comm Timer,2,1
 11624               		.comm lcdUSE,1,1
 11625               		.comm sdUSE,1,1
 11626               		.comm spiUSE,1,1
 11627               		.comm i2cUSE,1,1
 11628               		.comm usartUSE,1,1
 11629               		.comm ButtonPressed,1,1
 11630               		.comm testTHREAD,1,1
 11631               		.comm menutitle,140,1
 11632               		.comm menuitem,980,1
 11633               		.comm menulink,98,1
 11634               		.comm menuactn,98,1
 11635               		.comm WWW,2,1
 11636               		.comm XXX,2,1
 11637               		.comm YYY,2,1
 11638               		.comm ZZZ,2,1
 11639               		.comm AAA,2,1
 11640               		.comm Red_HR_state,399,1
 11641               		.comm IR_HR_state,399,1
 11642               		.comm waThread1,180,1
 11643               		.comm waThread2,308,1
 11644               		.comm waThread3,820,1
 11645               		.comm waThread4,308,1
 11646               		.comm waThread5,820,1
 11647               		.comm waThread6,180,1
 11648               		.comm waThread7,308,1
 11649               		.comm waThread8,180,1
 11650               		.comm waThread9,308,1
 11651               		.comm waThread10,308,1
 11652               		.comm waThread11,308,1
 11653               		.comm waThread12,1736,1
 11654               		.comm waThread13,308,1
 11655               		.comm waThread14,308,1
 11952               	.Letext0:
DEFINED SYMBOLS
                            *ABS*:00000000 main.c
C:\DOCUME~1\ADMINI~1\LOCALS~1\Temp/ccrt6g0l.s:2      *ABS*:0000003f __SREG__
C:\DOCUME~1\ADMINI~1\LOCALS~1\Temp/ccrt6g0l.s:3      *ABS*:0000003e __SP_H__
C:\DOCUME~1\ADMINI~1\LOCALS~1\Temp/ccrt6g0l.s:4      *ABS*:0000003d __SP_L__
C:\DOCUME~1\ADMINI~1\LOCALS~1\Temp/ccrt6g0l.s:5      *ABS*:00000034 __CCP__
C:\DOCUME~1\ADMINI~1\LOCALS~1\Temp/ccrt6g0l.s:6      *ABS*:00000000 __tmp_reg__
C:\DOCUME~1\ADMINI~1\LOCALS~1\Temp/ccrt6g0l.s:7      *ABS*:00000001 __zero_reg__
C:\DOCUME~1\ADMINI~1\LOCALS~1\Temp/ccrt6g0l.s:17     .text:00000000 fillSize
C:\DOCUME~1\ADMINI~1\LOCALS~1\Temp/ccrt6g0l.s:64     .text:00000030 get_fattime
C:\DOCUME~1\ADMINI~1\LOCALS~1\Temp/ccrt6g0l.s:80     .text:0000003a parse_time
C:\DOCUME~1\ADMINI~1\LOCALS~1\Temp/ccrt6g0l.s:190    .text:000000fc fill8
C:\DOCUME~1\ADMINI~1\LOCALS~1\Temp/ccrt6g0l.s:215    .text:00000110 nilSemGetCounter
C:\DOCUME~1\ADMINI~1\LOCALS~1\Temp/ccrt6g0l.s:253    .text:0000011a nilUnusedStack
C:\DOCUME~1\ADMINI~1\LOCALS~1\Temp/ccrt6g0l.s:11063  .data:00000200 nil_thd_configs
C:\DOCUME~1\ADMINI~1\LOCALS~1\Temp/ccrt6g0l.s:282    .text:00000134 nilUnusedHeapIdle
C:\DOCUME~1\ADMINI~1\LOCALS~1\Temp/ccrt6g0l.s:321    .text:0000015c nilThdDelay
C:\DOCUME~1\ADMINI~1\LOCALS~1\Temp/ccrt6g0l.s:340    .text:0000016a nilThdDelayUntil
C:\DOCUME~1\ADMINI~1\LOCALS~1\Temp/ccrt6g0l.s:367    .text:00000188 main
                            *COM*:00000001 lcdUSE
                            *COM*:00000001 sdUSE
                            *COM*:00000001 spiUSE
                            *COM*:00000001 i2cUSE
                            *COM*:00000001 usartUSE
                            *COM*:00000001 ButtonPressed
                            *COM*:00000001 testTHREAD
C:\DOCUME~1\ADMINI~1\LOCALS~1\Temp/ccrt6g0l.s:466    .text:0000020e Thread8
                             .bss:00000070 tp
C:\DOCUME~1\ADMINI~1\LOCALS~1\Temp/ccrt6g0l.s:11179  .data:000002b8 usart_out
C:\DOCUME~1\ADMINI~1\LOCALS~1\Temp/ccrt6g0l.s:11367  .progmem.data:000002a0 __c.4019
C:\DOCUME~1\ADMINI~1\LOCALS~1\Temp/ccrt6g0l.s:11363  .progmem.data:0000029c __c.4021
C:\DOCUME~1\ADMINI~1\LOCALS~1\Temp/ccrt6g0l.s:11359  .progmem.data:00000299 __c.4026
C:\DOCUME~1\ADMINI~1\LOCALS~1\Temp/ccrt6g0l.s:11355  .progmem.data:00000295 __c.4028
C:\DOCUME~1\ADMINI~1\LOCALS~1\Temp/ccrt6g0l.s:11351  .progmem.data:00000292 __c.4033
C:\DOCUME~1\ADMINI~1\LOCALS~1\Temp/ccrt6g0l.s:11347  .progmem.data:0000028e __c.4035
C:\DOCUME~1\ADMINI~1\LOCALS~1\Temp/ccrt6g0l.s:11343  .progmem.data:0000028b __c.4040
C:\DOCUME~1\ADMINI~1\LOCALS~1\Temp/ccrt6g0l.s:789    .text:00000478 showMenu
C:\DOCUME~1\ADMINI~1\LOCALS~1\Temp/ccrt6g0l.s:10835  .bss:00000019 switchtype
C:\DOCUME~1\ADMINI~1\LOCALS~1\Temp/ccrt6g0l.s:11152  .data:000002aa st7735_out
C:\DOCUME~1\ADMINI~1\LOCALS~1\Temp/ccrt6g0l.s:11503  .progmem.data:000004e1 __c.3680
C:\DOCUME~1\ADMINI~1\LOCALS~1\Temp/ccrt6g0l.s:10793  .bss:0000000b curMenu
                            *COM*:0000008c menutitle
C:\DOCUME~1\ADMINI~1\LOCALS~1\Temp/ccrt6g0l.s:10829  .bss:00000017 menuprintloop
C:\DOCUME~1\ADMINI~1\LOCALS~1\Temp/ccrt6g0l.s:10817  .bss:00000013 menuCount
                            *COM*:000003d4 menuitem
C:\DOCUME~1\ADMINI~1\LOCALS~1\Temp/ccrt6g0l.s:11499  .progmem.data:000004dd __c.3682
C:\DOCUME~1\ADMINI~1\LOCALS~1\Temp/ccrt6g0l.s:11495  .progmem.data:000004d9 __c.3684
C:\DOCUME~1\ADMINI~1\LOCALS~1\Temp/ccrt6g0l.s:10823  .bss:00000015 pageScroll
C:\DOCUME~1\ADMINI~1\LOCALS~1\Temp/ccrt6g0l.s:10811  .bss:00000011 cursorCount
C:\DOCUME~1\ADMINI~1\LOCALS~1\Temp/ccrt6g0l.s:1151   .text:0000075a chPrintUnusedStack
C:\DOCUME~1\ADMINI~1\LOCALS~1\Temp/ccrt6g0l.s:11515  .progmem.data:000004ee __c.3566
C:\DOCUME~1\ADMINI~1\LOCALS~1\Temp/ccrt6g0l.s:11511  .progmem.data:000004e9 __c.3568
C:\DOCUME~1\ADMINI~1\LOCALS~1\Temp/ccrt6g0l.s:11507  .progmem.data:000004e4 __c.3573
C:\DOCUME~1\ADMINI~1\LOCALS~1\Temp/ccrt6g0l.s:1298   .text:00000858 chPrintStackSizes
C:\DOCUME~1\ADMINI~1\LOCALS~1\Temp/ccrt6g0l.s:11527  .progmem.data:00000507 __c.3547
C:\DOCUME~1\ADMINI~1\LOCALS~1\Temp/ccrt6g0l.s:11523  .progmem.data:00000502 __c.3549
C:\DOCUME~1\ADMINI~1\LOCALS~1\Temp/ccrt6g0l.s:11519  .progmem.data:000004fd __c.3554
C:\DOCUME~1\ADMINI~1\LOCALS~1\Temp/ccrt6g0l.s:1430   .text:00000948 Thread14
C:\DOCUME~1\ADMINI~1\LOCALS~1\Temp/ccrt6g0l.s:11174  .progmem.data:00000033 __c.4359
C:\DOCUME~1\ADMINI~1\LOCALS~1\Temp/ccrt6g0l.s:11170  .progmem.data:00000022 __c.4361
C:\DOCUME~1\ADMINI~1\LOCALS~1\Temp/ccrt6g0l.s:11166  .progmem.data:00000011 __c.4364
C:\DOCUME~1\ADMINI~1\LOCALS~1\Temp/ccrt6g0l.s:11162  .progmem.data:00000000 __c.4366
C:\DOCUME~1\ADMINI~1\LOCALS~1\Temp/ccrt6g0l.s:10731  .data:00000120 lcd_context
C:\DOCUME~1\ADMINI~1\LOCALS~1\Temp/ccrt6g0l.s:10901  .data:00000144 hr_format
C:\DOCUME~1\ADMINI~1\LOCALS~1\Temp/ccrt6g0l.s:10876  .data:0000013f hr
C:\DOCUME~1\ADMINI~1\LOCALS~1\Temp/ccrt6g0l.s:10871  .data:0000013e min
C:\DOCUME~1\ADMINI~1\LOCALS~1\Temp/ccrt6g0l.s:10865  .bss:00000021 s
C:\DOCUME~1\ADMINI~1\LOCALS~1\Temp/ccrt6g0l.s:10908  .bss:00000022 am_pm
C:\DOCUME~1\ADMINI~1\LOCALS~1\Temp/ccrt6g0l.s:10736  .data:00000121 lcd_context_count
C:\DOCUME~1\ADMINI~1\LOCALS~1\Temp/ccrt6g0l.s:1830   .text:00000c56 Thread13
C:\DOCUME~1\ADMINI~1\LOCALS~1\Temp/ccrt6g0l.s:10859  .bss:0000001d battery_average
C:\DOCUME~1\ADMINI~1\LOCALS~1\Temp/ccrt6g0l.s:1926   .text:00000d04 Thread9
C:\DOCUME~1\ADMINI~1\LOCALS~1\Temp/ccrt6g0l.s:11339  .progmem.data:00000282 __c.4054
C:\DOCUME~1\ADMINI~1\LOCALS~1\Temp/ccrt6g0l.s:11335  .progmem.data:00000276 __c.4056
C:\DOCUME~1\ADMINI~1\LOCALS~1\Temp/ccrt6g0l.s:10774  .bss:00000001 thread_internal_started
C:\DOCUME~1\ADMINI~1\LOCALS~1\Temp/ccrt6g0l.s:2159   .text:00000e9e Thread4
C:\DOCUME~1\ADMINI~1\LOCALS~1\Temp/ccrt6g0l.s:11487  .progmem.data:000004bc __c.3866
C:\DOCUME~1\ADMINI~1\LOCALS~1\Temp/ccrt6g0l.s:11483  .progmem.data:000004af __c.3869
                            *COM*:00000004 minute_counter
C:\DOCUME~1\ADMINI~1\LOCALS~1\Temp/ccrt6g0l.s:10841  .bss:0000001a elapsed_hours
C:\DOCUME~1\ADMINI~1\LOCALS~1\Temp/ccrt6g0l.s:10847  .bss:0000001b elapsed_mins
C:\DOCUME~1\ADMINI~1\LOCALS~1\Temp/ccrt6g0l.s:10853  .bss:0000001c elapsed_secs
C:\DOCUME~1\ADMINI~1\LOCALS~1\Temp/ccrt6g0l.s:2337   .text:00000ff6 Thread11
C:\DOCUME~1\ADMINI~1\LOCALS~1\Temp/ccrt6g0l.s:11149  .bss:0000008c trp
C:\DOCUME~1\ADMINI~1\LOCALS~1\Temp/ccrt6g0l.s:11319  .progmem.data:00000241 __c.4101
C:\DOCUME~1\ADMINI~1\LOCALS~1\Temp/ccrt6g0l.s:11315  .progmem.data:0000021a __c.4103
C:\DOCUME~1\ADMINI~1\LOCALS~1\Temp/ccrt6g0l.s:11311  .progmem.data:000001f6 __c.4105
                            *COM*:0000000c g
C:\DOCUME~1\ADMINI~1\LOCALS~1\Temp/ccrt6g0l.s:11307  .progmem.data:000001ca __c.4107
                            *COM*:0000000c a
C:\DOCUME~1\ADMINI~1\LOCALS~1\Temp/ccrt6g0l.s:11303  .progmem.data:0000019b __c.4109
                            *COM*:0000000c m
C:\DOCUME~1\ADMINI~1\LOCALS~1\Temp/ccrt6g0l.s:11299  .progmem.data:0000016a __c.4111
C:\DOCUME~1\ADMINI~1\LOCALS~1\Temp/ccrt6g0l.s:11295  .progmem.data:00000158 __c.4113
C:\DOCUME~1\ADMINI~1\LOCALS~1\Temp/ccrt6g0l.s:2962   .text:0000150a Thread7
C:\DOCUME~1\ADMINI~1\LOCALS~1\Temp/ccrt6g0l.s:3016   .text:00001566 Thread6
C:\DOCUME~1\ADMINI~1\LOCALS~1\Temp/ccrt6g0l.s:11371  .progmem.data:000002b0 __c.4003
C:\DOCUME~1\ADMINI~1\LOCALS~1\Temp/ccrt6g0l.s:3118   .text:000015fc Thread5
C:\DOCUME~1\ADMINI~1\LOCALS~1\Temp/ccrt6g0l.s:11415  .progmem.data:00000343 __c.3921
C:\DOCUME~1\ADMINI~1\LOCALS~1\Temp/ccrt6g0l.s:11411  .progmem.data:00000340 __c.3923
C:\DOCUME~1\ADMINI~1\LOCALS~1\Temp/ccrt6g0l.s:11407  .progmem.data:00000321 __c.3925
C:\DOCUME~1\ADMINI~1\LOCALS~1\Temp/ccrt6g0l.s:11399  .progmem.data:0000030e __c.3930
C:\DOCUME~1\ADMINI~1\LOCALS~1\Temp/ccrt6g0l.s:11375  .progmem.data:000002c2 __c.3942
C:\DOCUME~1\ADMINI~1\LOCALS~1\Temp/ccrt6g0l.s:11479  .progmem.data:00000498 __c.3887
C:\DOCUME~1\ADMINI~1\LOCALS~1\Temp/ccrt6g0l.s:11475  .progmem.data:00000480 __c.3889
C:\DOCUME~1\ADMINI~1\LOCALS~1\Temp/ccrt6g0l.s:11471  .progmem.data:00000468 __c.3891
                            *COM*:00000002 WWW
                            *COM*:00000002 XXX
                            *COM*:00000002 YYY
                            *COM*:00000002 ZZZ
                            *COM*:00000002 AAA
C:\DOCUME~1\ADMINI~1\LOCALS~1\Temp/ccrt6g0l.s:11467  .progmem.data:0000044d __c.3893
C:\DOCUME~1\ADMINI~1\LOCALS~1\Temp/ccrt6g0l.s:11463  .progmem.data:00000431 __c.3895
C:\DOCUME~1\ADMINI~1\LOCALS~1\Temp/ccrt6g0l.s:11459  .progmem.data:00000418 __c.3897
C:\DOCUME~1\ADMINI~1\LOCALS~1\Temp/ccrt6g0l.s:11455  .progmem.data:00000401 __c.3901
C:\DOCUME~1\ADMINI~1\LOCALS~1\Temp/ccrt6g0l.s:11451  .progmem.data:000003ea __c.3903
C:\DOCUME~1\ADMINI~1\LOCALS~1\Temp/ccrt6g0l.s:11447  .progmem.data:000003d3 __c.3905
C:\DOCUME~1\ADMINI~1\LOCALS~1\Temp/ccrt6g0l.s:11443  .progmem.data:000003d0 __c.3907
C:\DOCUME~1\ADMINI~1\LOCALS~1\Temp/ccrt6g0l.s:11439  .progmem.data:000003b9 __c.3909
C:\DOCUME~1\ADMINI~1\LOCALS~1\Temp/ccrt6g0l.s:11435  .progmem.data:000003a2 __c.3911
C:\DOCUME~1\ADMINI~1\LOCALS~1\Temp/ccrt6g0l.s:11431  .progmem.data:0000038b __c.3913
C:\DOCUME~1\ADMINI~1\LOCALS~1\Temp/ccrt6g0l.s:11427  .progmem.data:00000388 __c.3915
C:\DOCUME~1\ADMINI~1\LOCALS~1\Temp/ccrt6g0l.s:11423  .progmem.data:00000371 __c.3917
C:\DOCUME~1\ADMINI~1\LOCALS~1\Temp/ccrt6g0l.s:11419  .progmem.data:0000035a __c.3919
C:\DOCUME~1\ADMINI~1\LOCALS~1\Temp/ccrt6g0l.s:10881  .data:00000140 dy
C:\DOCUME~1\ADMINI~1\LOCALS~1\Temp/ccrt6g0l.s:10886  .data:00000141 dt
C:\DOCUME~1\ADMINI~1\LOCALS~1\Temp/ccrt6g0l.s:10891  .data:00000142 mt
C:\DOCUME~1\ADMINI~1\LOCALS~1\Temp/ccrt6g0l.s:10896  .data:00000143 yr
C:\DOCUME~1\ADMINI~1\LOCALS~1\Temp/ccrt6g0l.s:11403  .progmem.data:0000031e __c.3928
C:\DOCUME~1\ADMINI~1\LOCALS~1\Temp/ccrt6g0l.s:10928  .data:00000162 DAY_NAME
C:\DOCUME~1\ADMINI~1\LOCALS~1\Temp/ccrt6g0l.s:11387  .progmem.data:000002e9 __c.3936
C:\DOCUME~1\ADMINI~1\LOCALS~1\Temp/ccrt6g0l.s:11383  .progmem.data:000002e4 __c.3938
C:\DOCUME~1\ADMINI~1\LOCALS~1\Temp/ccrt6g0l.s:11379  .progmem.data:000002d3 __c.3940
C:\DOCUME~1\ADMINI~1\LOCALS~1\Temp/ccrt6g0l.s:11395  .progmem.data:000002fe __c.3932
C:\DOCUME~1\ADMINI~1\LOCALS~1\Temp/ccrt6g0l.s:11391  .progmem.data:000002f9 __c.3934
C:\DOCUME~1\ADMINI~1\LOCALS~1\Temp/ccrt6g0l.s:4510   .text:00002140 DS3231_showParameters
C:\DOCUME~1\ADMINI~1\LOCALS~1\Temp/ccrt6g0l.s:11591  .progmem.data:0000065a __c.3326
C:\DOCUME~1\ADMINI~1\LOCALS~1\Temp/ccrt6g0l.s:11587  .progmem.data:00000642 __c.3328
C:\DOCUME~1\ADMINI~1\LOCALS~1\Temp/ccrt6g0l.s:11575  .progmem.data:000005f4 __c.3340
C:\DOCUME~1\ADMINI~1\LOCALS~1\Temp/ccrt6g0l.s:11579  .progmem.data:0000060c __c.3336
C:\DOCUME~1\ADMINI~1\LOCALS~1\Temp/ccrt6g0l.s:11583  .progmem.data:00000627 __c.3332
C:\DOCUME~1\ADMINI~1\LOCALS~1\Temp/ccrt6g0l.s:4711   .text:000022ba Thread10
C:\DOCUME~1\ADMINI~1\LOCALS~1\Temp/ccrt6g0l.s:11331  .progmem.data:00000260 __c.4085
C:\DOCUME~1\ADMINI~1\LOCALS~1\Temp/ccrt6g0l.s:11327  .progmem.data:00000247 __c.4087
C:\DOCUME~1\ADMINI~1\LOCALS~1\Temp/ccrt6g0l.s:11323  .progmem.data:00000244 __c.4089
C:\DOCUME~1\ADMINI~1\LOCALS~1\Temp/ccrt6g0l.s:4916   .text:00002422 Thread1
C:\DOCUME~1\ADMINI~1\LOCALS~1\Temp/ccrt6g0l.s:10725  .bss:00000000 triggered
C:\DOCUME~1\ADMINI~1\LOCALS~1\Temp/ccrt6g0l.s:10718  .data:0000011f LCD_PWM_SET
C:\DOCUME~1\ADMINI~1\LOCALS~1\Temp/ccrt6g0l.s:10754  .data:0000012f lcd_context_count_MAX
C:\DOCUME~1\ADMINI~1\LOCALS~1\Temp/ccrt6g0l.s:5500   .text:00002710 __vector_4
C:\DOCUME~1\ADMINI~1\LOCALS~1\Temp/ccrt6g0l.s:5580   .text:0000278e __vector_11
C:\DOCUME~1\ADMINI~1\LOCALS~1\Temp/ccrt6g0l.s:5634   .text:000027e0 __vector_9
C:\DOCUME~1\ADMINI~1\LOCALS~1\Temp/ccrt6g0l.s:5730   .text:00002832 initMenu
                            *COM*:00000062 menulink
                            *COM*:00000062 menuactn
C:\DOCUME~1\ADMINI~1\LOCALS~1\Temp/ccrt6g0l.s:6289   .text:00002c5e Thread2
C:\DOCUME~1\ADMINI~1\LOCALS~1\Temp/ccrt6g0l.s:10799  .bss:0000000d curItem
C:\DOCUME~1\ADMINI~1\LOCALS~1\Temp/ccrt6g0l.s:10805  .bss:0000000f updateFlag
C:\DOCUME~1\ADMINI~1\LOCALS~1\Temp/ccrt6g0l.s:6934   .text:000030d6 read32
C:\DOCUME~1\ADMINI~1\LOCALS~1\Temp/ccrt6g0l.s:7045   .text:00003188 read16
C:\DOCUME~1\ADMINI~1\LOCALS~1\Temp/ccrt6g0l.s:7115   .text:000031f2 bmpDraw
                            *COM*:00000001 st7735_width
                            *COM*:00000001 st7735_height
C:\DOCUME~1\ADMINI~1\LOCALS~1\Temp/ccrt6g0l.s:11571  .progmem.data:000005e4 __c.3457
C:\DOCUME~1\ADMINI~1\LOCALS~1\Temp/ccrt6g0l.s:11567  .progmem.data:000005d3 __c.3459
C:\DOCUME~1\ADMINI~1\LOCALS~1\Temp/ccrt6g0l.s:11559  .progmem.data:000005b1 __c.3463
C:\DOCUME~1\ADMINI~1\LOCALS~1\Temp/ccrt6g0l.s:11563  .progmem.data:000005c0 __c.3461
C:\DOCUME~1\ADMINI~1\LOCALS~1\Temp/ccrt6g0l.s:11555  .progmem.data:0000059f __c.3465
C:\DOCUME~1\ADMINI~1\LOCALS~1\Temp/ccrt6g0l.s:11551  .progmem.data:0000058a __c.3467
C:\DOCUME~1\ADMINI~1\LOCALS~1\Temp/ccrt6g0l.s:11547  .progmem.data:00000576 __c.3469
C:\DOCUME~1\ADMINI~1\LOCALS~1\Temp/ccrt6g0l.s:11543  .progmem.data:00000566 __c.3471
C:\DOCUME~1\ADMINI~1\LOCALS~1\Temp/ccrt6g0l.s:11539  .progmem.data:00000555 __c.3473
C:\DOCUME~1\ADMINI~1\LOCALS~1\Temp/ccrt6g0l.s:11531  .progmem.data:00000516 __c.3477
C:\DOCUME~1\ADMINI~1\LOCALS~1\Temp/ccrt6g0l.s:11535  .progmem.data:00000535 __c.3475
C:\DOCUME~1\ADMINI~1\LOCALS~1\Temp/ccrt6g0l.s:8153   .text:0000392c Thread12
C:\DOCUME~1\ADMINI~1\LOCALS~1\Temp/ccrt6g0l.s:11262  .data:000002c6 C.104.4225
                            *COM*:0000018f Red_HR_state
                            *COM*:0000018f IR_HR_state
C:\DOCUME~1\ADMINI~1\LOCALS~1\Temp/ccrt6g0l.s:10780  .data:0000013d USART_HB_LOGGING_ON
C:\DOCUME~1\ADMINI~1\LOCALS~1\Temp/ccrt6g0l.s:11253  .progmem.data:00000103 __c.4185
C:\DOCUME~1\ADMINI~1\LOCALS~1\Temp/ccrt6g0l.s:11249  .progmem.data:000000e9 __c.4187
                            *COM*:0000022e Fatfs
C:\DOCUME~1\ADMINI~1\LOCALS~1\Temp/ccrt6g0l.s:11245  .progmem.data:000000d1 __c.4189
C:\DOCUME~1\ADMINI~1\LOCALS~1\Temp/ccrt6g0l.s:11241  .progmem.data:000000ba __c.4191
C:\DOCUME~1\ADMINI~1\LOCALS~1\Temp/ccrt6g0l.s:11237  .progmem.data:000000a2 __c.4193
C:\DOCUME~1\ADMINI~1\LOCALS~1\Temp/ccrt6g0l.s:11233  .progmem.data:00000089 __c.4195
C:\DOCUME~1\ADMINI~1\LOCALS~1\Temp/ccrt6g0l.s:10977  .bss:0000004e LED_data_vector
C:\DOCUME~1\ADMINI~1\LOCALS~1\Temp/ccrt6g0l.s:10983  .bss:00000056 p1
C:\DOCUME~1\ADMINI~1\LOCALS~1\Temp/ccrt6g0l.s:10947  .bss:00000034 IR_LED_output
C:\DOCUME~1\ADMINI~1\LOCALS~1\Temp/ccrt6g0l.s:10959  .bss:00000048 IR_dc_avg
C:\DOCUME~1\ADMINI~1\LOCALS~1\Temp/ccrt6g0l.s:10971  .bss:0000004d IR_result
C:\DOCUME~1\ADMINI~1\LOCALS~1\Temp/ccrt6g0l.s:10787  .bss:0000000a SD_HB_LOGGING_ON
C:\DOCUME~1\ADMINI~1\LOCALS~1\Temp/ccrt6g0l.s:11007  .bss:00000060 ms_old_beat
C:\DOCUME~1\ADMINI~1\LOCALS~1\Temp/ccrt6g0l.s:11019  .bss:00000068 ms_elapsed_since_last_right_now
C:\DOCUME~1\ADMINI~1\LOCALS~1\Temp/ccrt6g0l.s:10989  .bss:0000005a HB_ON
C:\DOCUME~1\ADMINI~1\LOCALS~1\Temp/ccrt6g0l.s:10965  .bss:0000004c Red_result
C:\DOCUME~1\ADMINI~1\LOCALS~1\Temp/ccrt6g0l.s:10953  .bss:00000044 Red_dc_avg
C:\DOCUME~1\ADMINI~1\LOCALS~1\Temp/ccrt6g0l.s:11229  .progmem.data:00000065 __c.4198
C:\DOCUME~1\ADMINI~1\LOCALS~1\Temp/ccrt6g0l.s:11225  .progmem.data:00000062 __c.4200
C:\DOCUME~1\ADMINI~1\LOCALS~1\Temp/ccrt6g0l.s:11001  .bss:0000005c ms_current_beat
C:\DOCUME~1\ADMINI~1\LOCALS~1\Temp/ccrt6g0l.s:11013  .bss:00000064 ms_elapsed_since_last
C:\DOCUME~1\ADMINI~1\LOCALS~1\Temp/ccrt6g0l.s:11025  .bss:0000006c blanking_time
C:\DOCUME~1\ADMINI~1\LOCALS~1\Temp/ccrt6g0l.s:11197  .progmem.data:0000004b __c.4214
C:\DOCUME~1\ADMINI~1\LOCALS~1\Temp/ccrt6g0l.s:10941  .bss:00000024 Red_LED_output
C:\DOCUME~1\ADMINI~1\LOCALS~1\Temp/ccrt6g0l.s:10995  .bss:0000005b HB_locked
C:\DOCUME~1\ADMINI~1\LOCALS~1\Temp/ccrt6g0l.s:11217  .progmem.data:0000005a __c.4204
C:\DOCUME~1\ADMINI~1\LOCALS~1\Temp/ccrt6g0l.s:11213  .progmem.data:00000056 __c.4206
C:\DOCUME~1\ADMINI~1\LOCALS~1\Temp/ccrt6g0l.s:11209  .progmem.data:00000054 __c.4208
C:\DOCUME~1\ADMINI~1\LOCALS~1\Temp/ccrt6g0l.s:11205  .progmem.data:00000050 __c.4210
C:\DOCUME~1\ADMINI~1\LOCALS~1\Temp/ccrt6g0l.s:11201  .progmem.data:0000004d __c.4212
C:\DOCUME~1\ADMINI~1\LOCALS~1\Temp/ccrt6g0l.s:11221  .progmem.data:0000005e __c.4202
C:\DOCUME~1\ADMINI~1\LOCALS~1\Temp/ccrt6g0l.s:11193  .progmem.data:00000049 __c.4219
C:\DOCUME~1\ADMINI~1\LOCALS~1\Temp/ccrt6g0l.s:11189  .progmem.data:00000044 __c.4221
C:\DOCUME~1\ADMINI~1\LOCALS~1\Temp/ccrt6g0l.s:11257  .progmem.data:00000122 __c.4183
C:\DOCUME~1\ADMINI~1\LOCALS~1\Temp/ccrt6g0l.s:10441  .text:00004ae6 Thread3
C:\DOCUME~1\ADMINI~1\LOCALS~1\Temp/ccrt6g0l.s:11491  .progmem.data:000004c9 __c.3851
                            *COM*:000000b4 waThread1
                            *COM*:00000134 waThread2
                            *COM*:00000334 waThread3
                            *COM*:00000134 waThread4
                            *COM*:00000334 waThread5
                            *COM*:000000b4 waThread6
                            *COM*:00000134 waThread7
                            *COM*:000000b4 waThread8
                            *COM*:00000134 waThread9
                            *COM*:00000134 waThread10
                            *COM*:00000134 waThread11
                            *COM*:000006c8 waThread12
                            *COM*:00000134 waThread14
                            *COM*:00000134 waThread13
                            *COM*:00000002 WIDTH
                            *COM*:00000002 HEIGHT
                            *COM*:00000002 cursor_x
                            *COM*:00000002 cursor_y
                            *COM*:00000002 textcolor
                            *COM*:00000002 textbgcolor
                            *COM*:00000001 textsize
                            *COM*:00000001 rotation
                            *COM*:00000001 wrap
                            *COM*:00000001 mode
                            *COM*:00000001 _ctrl_reg1
                            *COM*:0000000c m_max
                            *COM*:0000000c m_min
                            *COM*:00000001 MAX30105_i2caddr
                            *COM*:00000001 MAX30105_activeLEDs
                            *COM*:00000001 MAX30105_revisionID
                            *COM*:00000004 acc_size
                            *COM*:00000002 acc_files
                            *COM*:00000002 acc_dirs
                            *COM*:00000016 Finfo
                            *COM*:00000080 Line
                            *COM*:00000400 Buff
                            *COM*:00000001 j
                            *COM*:00000002 Timer

UNDEFINED SYMBOLS
__divsf3
__fixunssfsi
__floatsisf
__mulsf3
__addsf3
__floatunsisf
__brkval
__malloc_heap_start
nil
halInit
chSysInit
chEvtWaitAnyTimeout
chSemWaitTimeout
fprintf_P
chSemSignal
st7735_fill_rect
st7735_setCursor
DS3231_getTime
chThdSleep
DS3231_setTime
__udivmodhi4
__mulsi3
i2c_init
MPL3115A2_init
L3GD20_enableDefault
LSM303_enableDefault
chThdSuspendTimeoutS
MPL3115A2_getAltitude
MPL3115A2_getPressure
MPL3115A2_getTemperature
L3GD20_read
LSM303_read
fmin
fmax
LSM303_heading
chThdSleepUntil
SD1
sdStart
usart_init
test_execute
DS3231_getStatus
__ltsf2
DS3231_getDate
st7735_setTextSize
DS3231_getTemp
__subsf3
DS3231_init
chEvtSignalI
chThdResumeI
chSchRescheduleS
spi_init
st7735_init
st7735_set_orientation
st7735_setTextColor
st7735_setTextWrap
f_read
xputs
f_open
xprintf
st7735_set_addr_win
f_lseek
st7735_write_self_color
f_close
MAX30105_init
MAX30105_setup
disk_initialize
f_mount
f_write
f_sync
usart_putchar_printf
xfunc_out
MAX30105_getRedIR
checkForBeat
__udivmodsi4
__divmodsi4
__udivmodqi4
xsprintf_P
xfprintf_P
wa_test_support
test_support
waTimer
timer
st7735_printf
__do_copy_data
__do_clear_bss
