   1               		.file	"mmcbb.c"
   2               	__SREG__ = 0x3f
   3               	__SP_H__ = 0x3e
   4               	__SP_L__ = 0x3d
   5               	__CCP__  = 0x34
   6               	__tmp_reg__ = 0
   7               	__zero_reg__ = 1
  15               	.Ltext0:
  17               	wait_ready:
  18               	.LFB8:
  19               	.LM1:
  20               	/* prologue: function */
  21               	/* frame size = 0 */
  22               	.LM2:
  23 0000 28E8      		ldi r18,lo8(5000)
  24 0002 33E1      		ldi r19,hi8(5000)
  25               	.LVL0:
  26               	.LBB102:
  27               	.LBB103:
  28               	.LM3:
  29 0004 4FEF      		ldi r20,lo8(-1)
  30               	.LVL1:
  31               	.L6:
  32 0006 4EBD      		out 78-32,r20
  33               	.L2:
  34               	.LM4:
  35 0008 0DB4      		in __tmp_reg__,77-32
  36 000a 07FE      		sbrs __tmp_reg__,7
  37 000c 00C0      		rjmp .L2
  38               	.LM5:
  39 000e 8EB5      		in r24,78-32
  40               	.LVL2:
  41               	.LBE103:
  42               	.LBE102:
  43               	.LM6:
  44 0010 8F3F      		cpi r24,lo8(-1)
  45 0012 01F0      		breq .L12
  46 0014 84E6      		ldi r24,lo8(100)
  47 0016 90E0      		ldi r25,hi8(100)
  48               	.LVL3:
  49               	.L5:
  50               	.LBB104:
  51               	.LM7:
  52 0018 53B1      		in r21,35-32
  53 001a 53B1      		in r21,35-32
  54 001c 53B1      		in r21,35-32
  55 001e 53B1      		in r21,35-32
  56 0020 53B1      		in r21,35-32
  57               	.LBB105:
  58               	.LM8:
  59 0022 0197      		sbiw r24,1
  60 0024 01F4      		brne .L5
  61               	.LBE105:
  62               	.LBE104:
  63               	.LM9:
  64 0026 2150      		subi r18,lo8(-(-1))
  65 0028 3040      		sbci r19,hi8(-(-1))
  66 002a 01F4      		brne .L6
  67 002c 20E0      		ldi r18,lo8(0)
  68 002e 30E0      		ldi r19,hi8(0)
  69               	.LVL4:
  70 0030 00C0      		rjmp .L4
  71               	.LVL5:
  72               	.L12:
  73               	.LM10:
  74 0032 21E0      		ldi r18,lo8(1)
  75 0034 30E0      		ldi r19,hi8(1)
  76               	.LVL6:
  77               	.L4:
  78               	.LM11:
  79 0036 C901      		movw r24,r18
  80               	.LVL7:
  81               	/* epilogue start */
  82 0038 0895      		ret
  83               	.LFE8:
  86               	select:
  87               	.LFB10:
  88               	.LM12:
  89               	/* prologue: function */
  90               	/* frame size = 0 */
  91               	.LM13:
  92 003a 2A98      		cbi 37-32,2
  93               	.LM14:
  94 003c 0E94 0000 		call wait_ready
  95 0040 892B      		or r24,r25
  96 0042 01F4      		brne .L19
  97               	.LBB106:
  98               	.LBB107:
  99               	.LM15:
 100 0044 2A9A      		sbi 37-32,2
 101               	.LBB108:
 102               	.LBB109:
 103               	.LM16:
 104 0046 8FEF      		ldi r24,lo8(-1)
 105 0048 8EBD      		out 78-32,r24
 106               	.L16:
 107               	.LM17:
 108 004a 0DB4      		in __tmp_reg__,77-32
 109 004c 07FE      		sbrs __tmp_reg__,7
 110 004e 00C0      		rjmp .L16
 111               	.LM18:
 112 0050 8EB5      		in r24,78-32
 113               	.LVL8:
 114 0052 20E0      		ldi r18,lo8(0)
 115 0054 30E0      		ldi r19,hi8(0)
 116               	.LBE109:
 117               	.LBE108:
 118               	.LBE107:
 119               	.LBE106:
 120               	.LM19:
 121 0056 C901      		movw r24,r18
 122               	.LVL9:
 123               	/* epilogue start */
 124 0058 0895      		ret
 125               	.L19:
 126               	.LM20:
 127 005a 21E0      		ldi r18,lo8(1)
 128 005c 30E0      		ldi r19,hi8(1)
 129               	.LM21:
 130 005e C901      		movw r24,r18
 131 0060 0895      		ret
 132               	.LFE10:
 135               	rcvr_datablock:
 136               	.LFB11:
 137               	.LM22:
 138               	.LVL10:
 139               	/* prologue: function */
 140               	/* frame size = 0 */
 141 0062 FC01      		movw r30,r24
 142               	.LM23:
 143 0064 28EE      		ldi r18,lo8(1000)
 144 0066 33E0      		ldi r19,hi8(1000)
 145               	.LVL11:
 146               	.LBB110:
 147               	.LBB111:
 148               	.LM24:
 149 0068 4FEF      		ldi r20,lo8(-1)
 150               	.LVL12:
 151               	.L24:
 152 006a 4EBD      		out 78-32,r20
 153               	.L21:
 154               	.LM25:
 155 006c 0DB4      		in __tmp_reg__,77-32
 156 006e 07FE      		sbrs __tmp_reg__,7
 157 0070 00C0      		rjmp .L21
 158               	.LM26:
 159 0072 8EB5      		in r24,78-32
 160               	.LVL13:
 161               	.LBE111:
 162               	.LBE110:
 163               	.LM27:
 164 0074 8F3F      		cpi r24,lo8(-1)
 165 0076 01F4      		brne .L22
 166 0078 84E6      		ldi r24,lo8(100)
 167 007a 90E0      		ldi r25,hi8(100)
 168               	.LVL14:
 169               	.L23:
 170               	.LBB112:
 171               	.LM28:
 172 007c 53B1      		in r21,35-32
 173 007e 53B1      		in r21,35-32
 174 0080 53B1      		in r21,35-32
 175 0082 53B1      		in r21,35-32
 176 0084 53B1      		in r21,35-32
 177               	.LBB113:
 178               	.LM29:
 179 0086 0197      		sbiw r24,1
 180 0088 01F4      		brne .L23
 181               	.LBE113:
 182               	.LBE112:
 183               	.LM30:
 184 008a 2150      		subi r18,lo8(-(-1))
 185 008c 3040      		sbci r19,hi8(-(-1))
 186 008e 01F4      		brne .L24
 187               	.LVL15:
 188               	.L25:
 189               	.LBB114:
 190               	.LBB115:
 191               	.LM31:
 192 0090 20E0      		ldi r18,lo8(0)
 193 0092 30E0      		ldi r19,hi8(0)
 194               	.LVL16:
 195               	.L34:
 196               	.LBE115:
 197               	.LBE114:
 198               	.LM32:
 199 0094 C901      		movw r24,r18
 200               	.LVL17:
 201               	/* epilogue start */
 202 0096 0895      		ret
 203               	.LVL18:
 204               	.L22:
 205               	.LM33:
 206 0098 8E3F      		cpi r24,lo8(-2)
 207 009a 01F4      		brne .L25
 208               	.LM34:
 209 009c 9FEF      		ldi r25,lo8(-1)
 210               	.L45:
 211 009e 9EBD      		out 78-32,r25
 212               	.L26:
 213 00a0 0DB4      		in __tmp_reg__,77-32
 214 00a2 07FE      		sbrs __tmp_reg__,7
 215 00a4 00C0      		rjmp .L26
 216 00a6 8EB5      		in r24,78-32
 217               	.LVL19:
 218 00a8 8083      		st Z,r24
 219               	.LM35:
 220 00aa 9EBD      		out 78-32,r25
 221               	.L27:
 222 00ac 0DB4      		in __tmp_reg__,77-32
 223 00ae 07FE      		sbrs __tmp_reg__,7
 224 00b0 00C0      		rjmp .L27
 225 00b2 8EB5      		in r24,78-32
 226 00b4 8183      		std Z+1,r24
 227               	.LM36:
 228 00b6 9EBD      		out 78-32,r25
 229               	.L28:
 230 00b8 0DB4      		in __tmp_reg__,77-32
 231 00ba 07FE      		sbrs __tmp_reg__,7
 232 00bc 00C0      		rjmp .L28
 233 00be 8EB5      		in r24,78-32
 234 00c0 8283      		std Z+2,r24
 235               	.LM37:
 236 00c2 9EBD      		out 78-32,r25
 237               	.L29:
 238 00c4 0DB4      		in __tmp_reg__,77-32
 239 00c6 07FE      		sbrs __tmp_reg__,7
 240 00c8 00C0      		rjmp .L29
 241 00ca 8EB5      		in r24,78-32
 242 00cc 8383      		std Z+3,r24
 243               	.LM38:
 244 00ce 6450      		subi r22,lo8(-(-4))
 245 00d0 7040      		sbci r23,hi8(-(-4))
 246               	.LVL20:
 247 00d2 01F0      		breq .L30
 248               	.LM39:
 249 00d4 3496      		adiw r30,4
 250 00d6 00C0      		rjmp .L45
 251               	.L30:
 252               	.LBB117:
 253               	.LBB118:
 254               	.LM40:
 255 00d8 8FEF      		ldi r24,lo8(-1)
 256 00da 8EBD      		out 78-32,r24
 257               	.L32:
 258               	.LM41:
 259 00dc 0DB4      		in __tmp_reg__,77-32
 260 00de 07FE      		sbrs __tmp_reg__,7
 261 00e0 00C0      		rjmp .L32
 262               	.LM42:
 263 00e2 8EB5      		in r24,78-32
 264               	.LBE118:
 265               	.LBE117:
 266               	.LBB119:
 267               	.LBB116:
 268               	.LM43:
 269 00e4 8FEF      		ldi r24,lo8(-1)
 270 00e6 8EBD      		out 78-32,r24
 271               	.L33:
 272               	.LM44:
 273 00e8 0DB4      		in __tmp_reg__,77-32
 274 00ea 07FE      		sbrs __tmp_reg__,7
 275 00ec 00C0      		rjmp .L33
 276               	.LM45:
 277 00ee 8EB5      		in r24,78-32
 278 00f0 21E0      		ldi r18,lo8(1)
 279 00f2 30E0      		ldi r19,hi8(1)
 280               	.LVL21:
 281 00f4 00C0      		rjmp .L34
 282               	.LBE116:
 283               	.LBE119:
 284               	.LFE11:
 287               	xmit_datablock:
 288               	.LFB12:
 289               	.LM46:
 290               	.LVL22:
 291 00f6 1F93      		push r17
 292 00f8 CF93      		push r28
 293 00fa DF93      		push r29
 294               	/* prologue: function */
 295               	/* frame size = 0 */
 296 00fc EC01      		movw r28,r24
 297 00fe 162F      		mov r17,r22
 298               	.LM47:
 299 0100 0E94 0000 		call wait_ready
 300               	.LVL23:
 301 0104 892B      		or r24,r25
 302 0106 01F0      		breq .L66
 303               	.LBB120:
 304               	.LBB121:
 305               	.LM48:
 306 0108 1EBD      		out 78-32,r17
 307               	.L49:
 308               	.LM49:
 309 010a 0DB4      		in __tmp_reg__,77-32
 310 010c 07FE      		sbrs __tmp_reg__,7
 311 010e 00C0      		rjmp .L49
 312               	.LM50:
 313 0110 8EB5      		in r24,78-32
 314               	.LBE121:
 315               	.LBE120:
 316               	.LM51:
 317 0112 1D3F      		cpi r17,lo8(-3)
 318 0114 01F0      		breq .L67
 319 0116 90E0      		ldi r25,lo8(0)
 320               	.LVL24:
 321               	.L54:
 322               	.LM52:
 323 0118 8881      		ld r24,Y
 324               	.LBB122:
 325               	.LBB123:
 326               	.LM53:
 327 011a 8EBD      		out 78-32,r24
 328               	.L51:
 329               	.LM54:
 330 011c 0DB4      		in __tmp_reg__,77-32
 331 011e 07FE      		sbrs __tmp_reg__,7
 332 0120 00C0      		rjmp .L51
 333               	.LM55:
 334 0122 8EB5      		in r24,78-32
 335               	.LBE123:
 336               	.LBE122:
 337               	.LM56:
 338 0124 8981      		ldd r24,Y+1
 339               	.LBB124:
 340               	.LBB125:
 341               	.LM57:
 342 0126 8EBD      		out 78-32,r24
 343               	.L52:
 344               	.LM58:
 345 0128 0DB4      		in __tmp_reg__,77-32
 346 012a 07FE      		sbrs __tmp_reg__,7
 347 012c 00C0      		rjmp .L52
 348               	.LM59:
 349 012e 8EB5      		in r24,78-32
 350               	.LBE125:
 351               	.LBE124:
 352               	.LM60:
 353 0130 9150      		subi r25,lo8(-(-1))
 354 0132 01F0      		breq .L53
 355               	.LM61:
 356 0134 2296      		adiw r28,2
 357 0136 00C0      		rjmp .L54
 358               	.LVL25:
 359               	.L66:
 360               	.LM62:
 361 0138 20E0      		ldi r18,lo8(0)
 362 013a 30E0      		ldi r19,hi8(0)
 363               	.LM63:
 364 013c C901      		movw r24,r18
 365               	/* epilogue start */
 366 013e DF91      		pop r29
 367 0140 CF91      		pop r28
 368               	.LVL26:
 369 0142 1F91      		pop r17
 370               	.LVL27:
 371 0144 0895      		ret
 372               	.LVL28:
 373               	.L53:
 374               	.LBB126:
 375               	.LBB127:
 376               	.LM64:
 377 0146 8FEF      		ldi r24,lo8(-1)
 378 0148 8EBD      		out 78-32,r24
 379               	.L55:
 380               	.LM65:
 381 014a 0DB4      		in __tmp_reg__,77-32
 382 014c 07FE      		sbrs __tmp_reg__,7
 383 014e 00C0      		rjmp .L55
 384               	.LM66:
 385 0150 8EB5      		in r24,78-32
 386               	.LBE127:
 387               	.LBE126:
 388               	.LBB128:
 389               	.LBB129:
 390               	.LM67:
 391 0152 8FEF      		ldi r24,lo8(-1)
 392 0154 8EBD      		out 78-32,r24
 393               	.L56:
 394               	.LM68:
 395 0156 0DB4      		in __tmp_reg__,77-32
 396 0158 07FE      		sbrs __tmp_reg__,7
 397 015a 00C0      		rjmp .L56
 398               	.LM69:
 399 015c 8EB5      		in r24,78-32
 400               	.LBE129:
 401               	.LBE128:
 402               	.LBB130:
 403               	.LBB131:
 404               	.LM70:
 405 015e 8FEF      		ldi r24,lo8(-1)
 406 0160 8EBD      		out 78-32,r24
 407               	.L57:
 408               	.LM71:
 409 0162 0DB4      		in __tmp_reg__,77-32
 410 0164 07FE      		sbrs __tmp_reg__,7
 411 0166 00C0      		rjmp .L57
 412               	.LM72:
 413 0168 8EB5      		in r24,78-32
 414               	.LVL29:
 415 016a 90E0      		ldi r25,lo8(0)
 416               	.LVL30:
 417 016c 8F71      		andi r24,lo8(31)
 418 016e 8530      		cpi r24,lo8(5)
 419 0170 01F0      		breq .L58
 420 0172 91E0      		ldi r25,lo8(1)
 421               	.L58:
 422 0174 81E0      		ldi r24,lo8(1)
 423               	.LVL31:
 424 0176 9827      		eor r25,r24
 425 0178 292F      		mov r18,r25
 426 017a 30E0      		ldi r19,lo8(0)
 427               	.LBE131:
 428               	.LBE130:
 429               	.LM73:
 430 017c C901      		movw r24,r18
 431 017e DF91      		pop r29
 432 0180 CF91      		pop r28
 433               	.LVL32:
 434 0182 1F91      		pop r17
 435               	.LVL33:
 436 0184 0895      		ret
 437               	.LVL34:
 438               	.L67:
 439               	.LM74:
 440 0186 21E0      		ldi r18,lo8(1)
 441 0188 30E0      		ldi r19,hi8(1)
 442               	.LM75:
 443 018a C901      		movw r24,r18
 444 018c DF91      		pop r29
 445 018e CF91      		pop r28
 446               	.LVL35:
 447 0190 1F91      		pop r17
 448               	.LVL36:
 449 0192 0895      		ret
 450               	.LFE12:
 453               	send_cmd:
 454               	.LFB13:
 455               	.LM76:
 456               	.LVL37:
 457 0194 DF92      		push r13
 458 0196 EF92      		push r14
 459 0198 FF92      		push r15
 460 019a 0F93      		push r16
 461 019c 1F93      		push r17
 462               	/* prologue: function */
 463               	/* frame size = 0 */
 464 019e D82E      		mov r13,r24
 465 01a0 7A01      		movw r14,r20
 466 01a2 8B01      		movw r16,r22
 467               	.LM77:
 468 01a4 87FD      		sbrc r24,7
 469 01a6 00C0      		rjmp .L99
 470               	.LVL38:
 471               	.L69:
 472               	.LBB132:
 473               	.LBB133:
 474               	.LM78:
 475 01a8 2A9A      		sbi 37-32,2
 476               	.LBB134:
 477               	.LBB135:
 478               	.LM79:
 479 01aa 8FEF      		ldi r24,lo8(-1)
 480 01ac 8EBD      		out 78-32,r24
 481               	.L71:
 482               	.LM80:
 483 01ae 0DB4      		in __tmp_reg__,77-32
 484 01b0 07FE      		sbrs __tmp_reg__,7
 485 01b2 00C0      		rjmp .L71
 486               	.LM81:
 487 01b4 8EB5      		in r24,78-32
 488               	.LVL39:
 489               	.LBE135:
 490               	.LBE134:
 491               	.LBE133:
 492               	.LBE132:
 493               	.LM82:
 494 01b6 0E94 0000 		call select
 495               	.LVL40:
 496 01ba 892B      		or r24,r25
 497 01bc 01F4      		brne .+2
 498 01be 00C0      		rjmp .L100
 499               	.LM83:
 500 01c0 8D2D      		mov r24,r13
 501 01c2 8064      		ori r24,lo8(64)
 502               	.LBB136:
 503               	.LBB137:
 504               	.LM84:
 505 01c4 8EBD      		out 78-32,r24
 506               	.L73:
 507               	.LM85:
 508 01c6 0DB4      		in __tmp_reg__,77-32
 509 01c8 07FE      		sbrs __tmp_reg__,7
 510 01ca 00C0      		rjmp .L73
 511               	.LM86:
 512 01cc 8EB5      		in r24,78-32
 513               	.LBE137:
 514               	.LBE136:
 515               	.LM87:
 516 01ce 812F      		mov r24,r17
 517 01d0 9927      		clr r25
 518 01d2 AA27      		clr r26
 519 01d4 BB27      		clr r27
 520               	.LBB138:
 521               	.LBB139:
 522               	.LM88:
 523 01d6 8EBD      		out 78-32,r24
 524               	.L74:
 525               	.LM89:
 526 01d8 0DB4      		in __tmp_reg__,77-32
 527 01da 07FE      		sbrs __tmp_reg__,7
 528 01dc 00C0      		rjmp .L74
 529               	.LM90:
 530 01de 8EB5      		in r24,78-32
 531               	.LBE139:
 532               	.LBE138:
 533               	.LM91:
 534 01e0 C801      		movw r24,r16
 535 01e2 AA27      		clr r26
 536 01e4 BB27      		clr r27
 537               	.LBB140:
 538               	.LBB141:
 539               	.LM92:
 540 01e6 8EBD      		out 78-32,r24
 541               	.L75:
 542               	.LM93:
 543 01e8 0DB4      		in __tmp_reg__,77-32
 544 01ea 07FE      		sbrs __tmp_reg__,7
 545 01ec 00C0      		rjmp .L75
 546               	.LM94:
 547 01ee 8EB5      		in r24,78-32
 548               	.LBE141:
 549               	.LBE140:
 550               	.LM95:
 551 01f0 BB27      		clr r27
 552 01f2 A12F      		mov r26,r17
 553 01f4 902F      		mov r25,r16
 554 01f6 8F2D      		mov r24,r15
 555               	.LBB142:
 556               	.LBB143:
 557               	.LM96:
 558 01f8 8EBD      		out 78-32,r24
 559               	.L76:
 560               	.LM97:
 561 01fa 0DB4      		in __tmp_reg__,77-32
 562 01fc 07FE      		sbrs __tmp_reg__,7
 563 01fe 00C0      		rjmp .L76
 564               	.LM98:
 565 0200 8EB5      		in r24,78-32
 566               	.LBE143:
 567               	.LBE142:
 568               	.LBB144:
 569               	.LBB145:
 570               	.LM99:
 571 0202 EEBC      		out 78-32,r14
 572               	.L77:
 573               	.LM100:
 574 0204 0DB4      		in __tmp_reg__,77-32
 575 0206 07FE      		sbrs __tmp_reg__,7
 576 0208 00C0      		rjmp .L77
 577               	.LM101:
 578 020a 8EB5      		in r24,78-32
 579               	.LBE145:
 580               	.LBE144:
 581               	.LM102:
 582 020c DD20      		tst r13
 583 020e 01F4      		brne .L78
 584 0210 85E9      		ldi r24,lo8(-107)
 585               	.LVL41:
 586               	.L79:
 587               	.LBB146:
 588               	.LBB147:
 589               	.LM103:
 590 0212 8EBD      		out 78-32,r24
 591               	.L81:
 592               	.LM104:
 593 0214 0DB4      		in __tmp_reg__,77-32
 594 0216 07FE      		sbrs __tmp_reg__,7
 595 0218 00C0      		rjmp .L81
 596               	.LM105:
 597 021a 8EB5      		in r24,78-32
 598               	.LVL42:
 599               	.LBE147:
 600               	.LBE146:
 601               	.LM106:
 602 021c 8CE0      		ldi r24,lo8(12)
 603 021e D816      		cp r13,r24
 604 0220 01F0      		breq .L82
 605               	.L98:
 606               	.LBB148:
 607               	.LBB149:
 608               	.LM107:
 609 0222 9AE0      		ldi r25,lo8(10)
 610               	.LVL43:
 611               	.LBE149:
 612               	.LBE148:
 613               	.LBB151:
 614               	.LBB152:
 615               	.LM108:
 616 0224 2FEF      		ldi r18,lo8(-1)
 617               	.LVL44:
 618               	.L87:
 619 0226 2EBD      		out 78-32,r18
 620               	.L85:
 621               	.LM109:
 622 0228 0DB4      		in __tmp_reg__,77-32
 623 022a 07FE      		sbrs __tmp_reg__,7
 624 022c 00C0      		rjmp .L85
 625               	.LM110:
 626 022e 8EB5      		in r24,78-32
 627               	.LBE152:
 628               	.LBE151:
 629               	.LM111:
 630 0230 87FF      		sbrs r24,7
 631 0232 00C0      		rjmp .L70
 632 0234 9150      		subi r25,lo8(-(-1))
 633 0236 01F4      		brne .L87
 634               	.L70:
 635               	.LVL45:
 636               	/* epilogue start */
 637               	.LM112:
 638 0238 1F91      		pop r17
 639 023a 0F91      		pop r16
 640 023c FF90      		pop r15
 641 023e EF90      		pop r14
 642               	.LVL46:
 643 0240 DF90      		pop r13
 644               	.LVL47:
 645 0242 0895      		ret
 646               	.LVL48:
 647               	.L78:
 648               	.LM113:
 649 0244 88E0      		ldi r24,lo8(8)
 650 0246 D816      		cp r13,r24
 651 0248 01F4      		brne .L80
 652 024a 87E8      		ldi r24,lo8(-121)
 653               	.LVL49:
 654 024c 00C0      		rjmp .L79
 655               	.LVL50:
 656               	.L100:
 657               	.LM114:
 658 024e 8FEF      		ldi r24,lo8(-1)
 659               	.LVL51:
 660               	.LVL52:
 661               	.LM115:
 662 0250 1F91      		pop r17
 663 0252 0F91      		pop r16
 664 0254 FF90      		pop r15
 665 0256 EF90      		pop r14
 666               	.LVL53:
 667 0258 DF90      		pop r13
 668               	.LVL54:
 669 025a 0895      		ret
 670               	.LVL55:
 671               	.L80:
 672               	.LM116:
 673 025c 81E0      		ldi r24,lo8(1)
 674               	.LVL56:
 675 025e 00C0      		rjmp .L79
 676               	.LVL57:
 677               	.L82:
 678               	.LBB153:
 679               	.LBB150:
 680               	.LM117:
 681 0260 8FEF      		ldi r24,lo8(-1)
 682 0262 8EBD      		out 78-32,r24
 683               	.L84:
 684               	.LM118:
 685 0264 0DB4      		in __tmp_reg__,77-32
 686 0266 07FE      		sbrs __tmp_reg__,7
 687 0268 00C0      		rjmp .L84
 688               	.LM119:
 689 026a 8EB5      		in r24,78-32
 690 026c 00C0      		rjmp .L98
 691               	.LVL58:
 692               	.L99:
 693               	.LBE150:
 694               	.LBE153:
 695               	.LM120:
 696 026e 87E3      		ldi r24,lo8(55)
 697               	.LVL59:
 698 0270 40E0      		ldi r20,lo8(0)
 699 0272 50E0      		ldi r21,hi8(0)
 700 0274 60E0      		ldi r22,hlo8(0)
 701 0276 70E0      		ldi r23,hhi8(0)
 702 0278 0E94 0000 		call send_cmd
 703               	.LM121:
 704 027c 8230      		cpi r24,lo8(2)
 705               	.LVL60:
 706 027e 00F4      		brsh .L70
 707               	.LM122:
 708 0280 8FE7      		ldi r24,lo8(127)
 709               	.LVL61:
 710 0282 D822      		and r13,r24
 711 0284 00C0      		rjmp .L69
 712               	.LFE13:
 714               	.global	disk_status
 716               	disk_status:
 717               	.LFB14:
 718               	.LM123:
 719               	.LVL62:
 720               	/* prologue: function */
 721               	/* frame size = 0 */
 722               	.LM124:
 723 0286 9091 0000 		lds r25,Stat
 724               	.LVL63:
 725               	.LM125:
 726 028a 8823      		tst r24
 727 028c 01F4      		brne .L105
 728               	.LM126:
 729 028e 892F      		mov r24,r25
 730               	.LVL64:
 731 0290 897F      		andi r24,lo8(-7)
 732               	.LVL65:
 733               	.LM127:
 734 0292 8093 0000 		sts Stat,r24
 735               	.LVL66:
 736               	/* epilogue start */
 737               	.LM128:
 738 0296 0895      		ret
 739               	.LVL67:
 740               	.L105:
 741               	.LM129:
 742 0298 83E0      		ldi r24,lo8(3)
 743               	.LVL68:
 744               	.LM130:
 745 029a 8093 0000 		sts Stat,r24
 746               	.LVL69:
 747               	.LM131:
 748 029e 0895      		ret
 749               	.LFE14:
 751               	.global	disk_initialize
 753               	disk_initialize:
 754               	.LFB15:
 755               	.LM132:
 756               	.LVL70:
 757 02a0 AF92      		push r10
 758 02a2 BF92      		push r11
 759 02a4 CF92      		push r12
 760 02a6 DF92      		push r13
 761 02a8 FF92      		push r15
 762 02aa 0F93      		push r16
 763 02ac 1F93      		push r17
 764 02ae DF93      		push r29
 765 02b0 CF93      		push r28
 766 02b2 00D0      		rcall .
 767 02b4 00D0      		rcall .
 768 02b6 CDB7      		in r28,__SP_L__
 769 02b8 DEB7      		in r29,__SP_H__
 770               	/* prologue: function */
 771               	/* frame size = 4 */
 772               	.LBB154:
 773               	.LBB156:
 774               	.LM133:
 775 02ba 9091 0000 		lds r25,Stat
 776               	.LVL71:
 777               	.LM134:
 778 02be 8823      		tst r24
 779 02c0 01F4      		brne .L107
 780               	.LM135:
 781 02c2 E9EF      		ldi r30,lo8(-7)
 782 02c4 FE2E      		mov r15,r30
 783               	.LVL72:
 784 02c6 F922      		and r15,r25
 785               	.LM136:
 786 02c8 F092 0000 		sts Stat,r15
 787               	.LBE156:
 788               	.LBE154:
 789               	.LBB158:
 790               	.LBB159:
 791               	.LM137:
 792 02cc 84B1      		in r24,36-32
 793               	.LVL73:
 794 02ce 846A      		ori r24,lo8(-92)
 795 02d0 84B9      		out 36-32,r24
 796               	.LBB160:
 797               	.LBB161:
 798               	.LM138:
 799 02d2 83E5      		ldi r24,lo8(83)
 800 02d4 8CBD      		out 76-32,r24
 801               	.LM139:
 802 02d6 8DB5      		in r24,77-32
 803 02d8 8E7F      		andi r24,lo8(-2)
 804 02da 8DBD      		out 77-32,r24
 805               	.LBE161:
 806               	.LBE160:
 807               	.LM140:
 808 02dc 2A9A      		sbi 37-32,2
 809               	.LBE159:
 810               	.LBE158:
 811               	.LBB162:
 812               	.LBB163:
 813               	.LM141:
 814 02de 2A9A      		sbi 37-32,2
 815               	.LBB164:
 816               	.LBB165:
 817               	.LM142:
 818 02e0 8FEF      		ldi r24,lo8(-1)
 819 02e2 8EBD      		out 78-32,r24
 820               	.L109:
 821               	.LM143:
 822 02e4 0DB4      		in __tmp_reg__,77-32
 823 02e6 07FE      		sbrs __tmp_reg__,7
 824 02e8 00C0      		rjmp .L109
 825               	.LM144:
 826 02ea 8EB5      		in r24,78-32
 827               	.LVL74:
 828 02ec 8AE0      		ldi r24,lo8(10)
 829               	.LVL75:
 830               	.LBE165:
 831               	.LBE164:
 832               	.LBE163:
 833               	.LBE162:
 834               	.LBB166:
 835               	.LBB167:
 836               	.LM145:
 837 02ee 9FEF      		ldi r25,lo8(-1)
 838               	.LVL76:
 839               	.L111:
 840 02f0 9EBD      		out 78-32,r25
 841               	.L110:
 842               	.LM146:
 843 02f2 0DB4      		in __tmp_reg__,77-32
 844 02f4 07FE      		sbrs __tmp_reg__,7
 845 02f6 00C0      		rjmp .L110
 846               	.LM147:
 847 02f8 2EB5      		in r18,78-32
 848               	.LBE167:
 849               	.LBE166:
 850               	.LM148:
 851 02fa 8150      		subi r24,lo8(-(-1))
 852 02fc 01F4      		brne .L111
 853               	.LM149:
 854 02fe 40E0      		ldi r20,lo8(0)
 855 0300 50E0      		ldi r21,hi8(0)
 856 0302 60E0      		ldi r22,hlo8(0)
 857 0304 70E0      		ldi r23,hhi8(0)
 858 0306 0E94 0000 		call send_cmd
 859               	.LVL77:
 860 030a 8130      		cpi r24,lo8(1)
 861 030c 01F0      		breq .L144
 862               	.LVL78:
 863               	.L112:
 864               	.LBB168:
 865               	.LBB169:
 866               	.LM150:
 867 030e 80E5      		ldi r24,lo8(80)
 868               	.LVL79:
 869 0310 8CBD      		out 76-32,r24
 870               	.LM151:
 871 0312 8DB5      		in r24,77-32
 872 0314 8160      		ori r24,lo8(1)
 873 0316 8DBD      		out 77-32,r24
 874               	.LBE169:
 875               	.LBE168:
 876               	.LM152:
 877 0318 1092 0000 		sts CardType,__zero_reg__
 878               	.LM153:
 879 031c F1E0      		ldi r31,lo8(1)
 880 031e FF2A      		or r15,r31
 881               	.L129:
 882               	.LM154:
 883 0320 F092 0000 		sts Stat,r15
 884               	.LBB171:
 885               	.LBB172:
 886               	.LM155:
 887 0324 2A9A      		sbi 37-32,2
 888               	.LBB173:
 889               	.LBB174:
 890               	.LM156:
 891 0326 8FEF      		ldi r24,lo8(-1)
 892 0328 8EBD      		out 78-32,r24
 893               	.L128:
 894               	.LM157:
 895 032a 0DB4      		in __tmp_reg__,77-32
 896 032c 07FE      		sbrs __tmp_reg__,7
 897 032e 00C0      		rjmp .L128
 898               	.LM158:
 899 0330 8EB5      		in r24,78-32
 900               	.LVL80:
 901 0332 00C0      		rjmp .L108
 902               	.LVL81:
 903               	.L107:
 904               	.LBE174:
 905               	.LBE173:
 906               	.LBE172:
 907               	.LBE171:
 908               	.LBB175:
 909               	.LBB155:
 910               	.LM159:
 911 0334 83E0      		ldi r24,lo8(3)
 912               	.LVL82:
 913 0336 8093 0000 		sts Stat,r24
 914 033a 43E0      		ldi r20,lo8(3)
 915 033c F42E      		mov r15,r20
 916               	.LVL83:
 917               	.L108:
 918               	.LBE155:
 919               	.LBE175:
 920               	.LM160:
 921 033e 8F2D      		mov r24,r15
 922               	.LVL84:
 923               	/* epilogue start */
 924 0340 0F90      		pop __tmp_reg__
 925 0342 0F90      		pop __tmp_reg__
 926 0344 0F90      		pop __tmp_reg__
 927 0346 0F90      		pop __tmp_reg__
 928 0348 CF91      		pop r28
 929 034a DF91      		pop r29
 930 034c 1F91      		pop r17
 931 034e 0F91      		pop r16
 932               	.LVL85:
 933 0350 FF90      		pop r15
 934               	.LVL86:
 935 0352 DF90      		pop r13
 936               	.LVL87:
 937 0354 CF90      		pop r12
 938 0356 BF90      		pop r11
 939 0358 AF90      		pop r10
 940 035a 0895      		ret
 941               	.LVL88:
 942               	.L144:
 943               	.LM161:
 944 035c 88E0      		ldi r24,lo8(8)
 945 035e 4AEA      		ldi r20,lo8(426)
 946 0360 51E0      		ldi r21,hi8(426)
 947 0362 60E0      		ldi r22,hlo8(426)
 948 0364 70E0      		ldi r23,hhi8(426)
 949 0366 0E94 0000 		call send_cmd
 950 036a 8130      		cpi r24,lo8(1)
 951 036c 01F4      		brne .L113
 952 036e 6E01      		movw r12,r28
 953 0370 0894      		sec
 954 0372 C11C      		adc r12,__zero_reg__
 955 0374 D11C      		adc r13,__zero_reg__
 956 0376 F601      		movw r30,r12
 957 0378 75E0      		ldi r23,lo8(5)
 958 037a A72E      		mov r10,r23
 959 037c B12C      		mov r11,__zero_reg__
 960 037e AC0E      		add r10,r28
 961 0380 BD1E      		adc r11,r29
 962               	.LBB176:
 963               	.LBB177:
 964               	.LM162:
 965 0382 9FEF      		ldi r25,lo8(-1)
 966               	.L115:
 967 0384 9EBD      		out 78-32,r25
 968               	.L114:
 969               	.LM163:
 970 0386 0DB4      		in __tmp_reg__,77-32
 971 0388 07FE      		sbrs __tmp_reg__,7
 972 038a 00C0      		rjmp .L114
 973               	.LM164:
 974 038c 8EB5      		in r24,78-32
 975               	.LBE177:
 976               	.LBE176:
 977               	.LM165:
 978 038e 8193      		st Z+,r24
 979 0390 EA15      		cp r30,r10
 980 0392 FB05      		cpc r31,r11
 981 0394 01F4      		brne .L115
 982               	.LM166:
 983 0396 8B81      		ldd r24,Y+3
 984 0398 8130      		cpi r24,lo8(1)
 985 039a 01F0      		breq .+2
 986 039c 00C0      		rjmp .L112
 987 039e 8C81      		ldd r24,Y+4
 988 03a0 8A3A      		cpi r24,lo8(-86)
 989 03a2 01F0      		breq .+2
 990 03a4 00C0      		rjmp .L112
 991 03a6 08EE      		ldi r16,lo8(1000)
 992 03a8 13E0      		ldi r17,hi8(1000)
 993               	.LVL89:
 994               	.L118:
 995               	.LM167:
 996 03aa 89EA      		ldi r24,lo8(-87)
 997               	.LVL90:
 998 03ac 40E0      		ldi r20,lo8(1073741824)
 999 03ae 50E0      		ldi r21,hi8(1073741824)
 1000 03b0 60E0      		ldi r22,hlo8(1073741824)
 1001 03b2 70E4      		ldi r23,hhi8(1073741824)
 1002 03b4 0E94 0000 		call send_cmd
 1003 03b8 8823      		tst r24
 1004 03ba 01F4      		brne .+2
 1005 03bc 00C0      		rjmp .L116
 1006 03be 88EE      		ldi r24,lo8(1000)
 1007 03c0 93E0      		ldi r25,hi8(1000)
 1008               	.LVL91:
 1009               	.L117:
 1010               	.LBB178:
 1011               	.LM168:
 1012 03c2 23B1      		in r18,35-32
 1013 03c4 23B1      		in r18,35-32
 1014 03c6 23B1      		in r18,35-32
 1015 03c8 23B1      		in r18,35-32
 1016 03ca 23B1      		in r18,35-32
 1017               	.LBB179:
 1018               	.LM169:
 1019 03cc 0197      		sbiw r24,1
 1020 03ce 01F4      		brne .L117
 1021               	.LBE179:
 1022               	.LBE178:
 1023               	.LM170:
 1024 03d0 0150      		subi r16,lo8(-(-1))
 1025 03d2 1040      		sbci r17,hi8(-(-1))
 1026 03d4 01F4      		brne .L118
 1027 03d6 00C0      		rjmp .L112
 1028               	.LVL92:
 1029               	.L113:
 1030               	.LM171:
 1031 03d8 89EA      		ldi r24,lo8(-87)
 1032 03da 40E0      		ldi r20,lo8(0)
 1033 03dc 50E0      		ldi r21,hi8(0)
 1034 03de 60E0      		ldi r22,hlo8(0)
 1035 03e0 70E0      		ldi r23,hhi8(0)
 1036 03e2 0E94 0000 		call send_cmd
 1037 03e6 8230      		cpi r24,lo8(2)
 1038 03e8 00F0      		brlo .L123
 1039 03ea DD24      		clr r13
 1040 03ec D394      		inc r13
 1041               	.LVL93:
 1042               	.L124:
 1043 03ee 08EE      		ldi r16,lo8(1000)
 1044 03f0 13E0      		ldi r17,hi8(1000)
 1045               	.LVL94:
 1046               	.L127:
 1047               	.LM172:
 1048 03f2 89EA      		ldi r24,lo8(-87)
 1049               	.LVL95:
 1050 03f4 40E0      		ldi r20,lo8(0)
 1051 03f6 50E0      		ldi r21,hi8(0)
 1052 03f8 60E0      		ldi r22,hlo8(0)
 1053 03fa 70E0      		ldi r23,hhi8(0)
 1054 03fc 0E94 0000 		call send_cmd
 1055 0400 8823      		tst r24
 1056 0402 01F0      		breq .L125
 1057 0404 88EE      		ldi r24,lo8(1000)
 1058 0406 93E0      		ldi r25,hi8(1000)
 1059               	.LVL96:
 1060               	.L126:
 1061               	.LBB180:
 1062               	.LM173:
 1063 0408 23B1      		in r18,35-32
 1064 040a 23B1      		in r18,35-32
 1065 040c 23B1      		in r18,35-32
 1066 040e 23B1      		in r18,35-32
 1067 0410 23B1      		in r18,35-32
 1068               	.LBB181:
 1069               	.LM174:
 1070 0412 0197      		sbiw r24,1
 1071 0414 01F4      		brne .L126
 1072               	.LBE181:
 1073               	.LBE180:
 1074               	.LM175:
 1075 0416 0150      		subi r16,lo8(-(-1))
 1076 0418 1040      		sbci r17,hi8(-(-1))
 1077 041a 01F4      		brne .L127
 1078 041c 00C0      		rjmp .L112
 1079               	.LVL97:
 1080               	.L123:
 1081               	.LM176:
 1082 041e 52E0      		ldi r21,lo8(2)
 1083 0420 D52E      		mov r13,r21
 1084               	.LVL98:
 1085 0422 00C0      		rjmp .L124
 1086               	.LVL99:
 1087               	.L125:
 1088               	.LM177:
 1089 0424 80E1      		ldi r24,lo8(16)
 1090 0426 40E0      		ldi r20,lo8(512)
 1091 0428 52E0      		ldi r21,hi8(512)
 1092 042a 60E0      		ldi r22,hlo8(512)
 1093 042c 70E0      		ldi r23,hhi8(512)
 1094 042e 0E94 0000 		call send_cmd
 1095 0432 8823      		tst r24
 1096 0434 01F0      		breq .+2
 1097 0436 00C0      		rjmp .L112
 1098               	.L122:
 1099               	.LBB182:
 1100               	.LBB170:
 1101               	.LM178:
 1102 0438 80E5      		ldi r24,lo8(80)
 1103 043a 8CBD      		out 76-32,r24
 1104               	.LM179:
 1105 043c 8DB5      		in r24,77-32
 1106 043e 8160      		ori r24,lo8(1)
 1107 0440 8DBD      		out 77-32,r24
 1108               	.LBE170:
 1109               	.LBE182:
 1110               	.LM180:
 1111 0442 D092 0000 		sts CardType,r13
 1112               	.LM181:
 1113 0446 8EEF      		ldi r24,lo8(-2)
 1114 0448 F822      		and r15,r24
 1115 044a 00C0      		rjmp .L129
 1116               	.LVL100:
 1117               	.L116:
 1118               	.LM182:
 1119 044c 8AE3      		ldi r24,lo8(58)
 1120 044e 40E0      		ldi r20,lo8(0)
 1121 0450 50E0      		ldi r21,hi8(0)
 1122 0452 60E0      		ldi r22,hlo8(0)
 1123 0454 70E0      		ldi r23,hhi8(0)
 1124 0456 0E94 0000 		call send_cmd
 1125 045a 8823      		tst r24
 1126 045c 01F0      		breq .+2
 1127 045e 00C0      		rjmp .L112
 1128               	.LBB183:
 1129               	.LBB184:
 1130               	.LM183:
 1131 0460 9FEF      		ldi r25,lo8(-1)
 1132               	.L131:
 1133 0462 9EBD      		out 78-32,r25
 1134               	.L119:
 1135               	.LM184:
 1136 0464 0DB4      		in __tmp_reg__,77-32
 1137 0466 07FE      		sbrs __tmp_reg__,7
 1138 0468 00C0      		rjmp .L119
 1139               	.LM185:
 1140 046a 8EB5      		in r24,78-32
 1141               	.LBE184:
 1142               	.LBE183:
 1143               	.LM186:
 1144 046c F601      		movw r30,r12
 1145 046e 8193      		st Z+,r24
 1146 0470 6F01      		movw r12,r30
 1147 0472 EA15      		cp r30,r10
 1148 0474 FB05      		cpc r31,r11
 1149 0476 01F4      		brne .L131
 1150               	.LM187:
 1151 0478 8981      		ldd r24,Y+1
 1152 047a 86FD      		sbrc r24,6
 1153 047c 00C0      		rjmp .L121
 1154 047e 64E0      		ldi r22,lo8(4)
 1155 0480 D62E      		mov r13,r22
 1156               	.LVL101:
 1157 0482 00C0      		rjmp .L122
 1158               	.LVL102:
 1159               	.L121:
 1160               	.LBB185:
 1161               	.LBB157:
 1162               	.LM188:
 1163 0484 3CE0      		ldi r19,lo8(12)
 1164 0486 D32E      		mov r13,r19
 1165               	.LVL103:
 1166 0488 00C0      		rjmp .L122
 1167               	.LBE157:
 1168               	.LBE185:
 1169               	.LFE15:
 1171               	.global	disk_read
 1173               	disk_read:
 1174               	.LFB16:
 1175               	.LM189:
 1176               	.LVL104:
 1177 048a 0F93      		push r16
 1178               	.LVL105:
 1179 048c CF93      		push r28
 1180 048e DF93      		push r29
 1181               	/* prologue: function */
 1182               	/* frame size = 0 */
 1183 0490 EB01      		movw r28,r22
 1184               	.LBB186:
 1185               	.LBB187:
 1186               	.LM190:
 1187 0492 9091 0000 		lds r25,Stat
 1188               	.LVL106:
 1189               	.LM191:
 1190 0496 8823      		tst r24
 1191 0498 01F4      		brne .L146
 1192               	.LVL107:
 1193               	.LM192:
 1194 049a 892F      		mov r24,r25
 1195               	.LVL108:
 1196 049c 897F      		andi r24,lo8(-7)
 1197               	.LM193:
 1198 049e 8093 0000 		sts Stat,r24
 1199               	.LBE187:
 1200               	.LBE186:
 1201               	.LM194:
 1202 04a2 80FD      		sbrc r24,0
 1203 04a4 00C0      		rjmp .L161
 1204               	.LM195:
 1205 04a6 0023      		tst r16
 1206               	.LVL109:
 1207 04a8 01F0      		breq .L162
 1208               	.LM196:
 1209 04aa 8091 0000 		lds r24,CardType
 1210               	.LVL110:
 1211 04ae 83FF      		sbrs r24,3
 1212 04b0 00C0      		rjmp .L163
 1213               	.LM197:
 1214 04b2 0130      		cpi r16,lo8(1)
 1215 04b4 01F4      		brne .+2
 1216 04b6 00C0      		rjmp .L164
 1217               	.L151:
 1218               	.LM198:
 1219 04b8 82E1      		ldi r24,lo8(18)
 1220 04ba BA01      		movw r22,r20
 1221 04bc A901      		movw r20,r18
 1222 04be 0E94 0000 		call send_cmd
 1223               	.LVL111:
 1224 04c2 8823      		tst r24
 1225 04c4 01F0      		breq .L160
 1226               	.L152:
 1227               	.LBB189:
 1228               	.LBB190:
 1229               	.LM199:
 1230 04c6 2A9A      		sbi 37-32,2
 1231               	.LBB191:
 1232               	.LBB192:
 1233               	.LM200:
 1234 04c8 8FEF      		ldi r24,lo8(-1)
 1235 04ca 8EBD      		out 78-32,r24
 1236               	.L156:
 1237               	.LM201:
 1238 04cc 0DB4      		in __tmp_reg__,77-32
 1239 04ce 07FE      		sbrs __tmp_reg__,7
 1240 04d0 00C0      		rjmp .L156
 1241               	.LM202:
 1242 04d2 8EB5      		in r24,78-32
 1243               	.LVL112:
 1244               	.LBE192:
 1245               	.LBE191:
 1246               	.LBE190:
 1247               	.LBE189:
 1248               	.LM203:
 1249 04d4 0023      		tst r16
 1250 04d6 01F0      		breq .L148
 1251 04d8 01E0      		ldi r16,lo8(1)
 1252               	.LVL113:
 1253               	.LM204:
 1254 04da 802F      		mov r24,r16
 1255               	.LVL114:
 1256 04dc DF91      		pop r29
 1257 04de CF91      		pop r28
 1258               	.LVL115:
 1259 04e0 0F91      		pop r16
 1260 04e2 0895      		ret
 1261               	.LVL116:
 1262               	.L146:
 1263               	.LBB193:
 1264               	.LBB188:
 1265               	.LM205:
 1266 04e4 83E0      		ldi r24,lo8(3)
 1267               	.LVL117:
 1268 04e6 8093 0000 		sts Stat,r24
 1269               	.LVL118:
 1270               	.L161:
 1271 04ea 03E0      		ldi r16,lo8(3)
 1272               	.LVL119:
 1273               	.L148:
 1274               	.LBE188:
 1275               	.LBE193:
 1276               	.LM206:
 1277 04ec 802F      		mov r24,r16
 1278               	.LVL120:
 1279               	/* epilogue start */
 1280 04ee DF91      		pop r29
 1281 04f0 CF91      		pop r28
 1282               	.LVL121:
 1283 04f2 0F91      		pop r16
 1284 04f4 0895      		ret
 1285               	.LVL122:
 1286               	.L162:
 1287               	.LM207:
 1288 04f6 04E0      		ldi r16,lo8(4)
 1289               	.LVL123:
 1290               	.LM208:
 1291 04f8 802F      		mov r24,r16
 1292               	.LVL124:
 1293 04fa DF91      		pop r29
 1294 04fc CF91      		pop r28
 1295               	.LVL125:
 1296 04fe 0F91      		pop r16
 1297 0500 0895      		ret
 1298               	.LVL126:
 1299               	.L165:
 1300               	.LM209:
 1301 0502 C050      		subi r28,lo8(-(512))
 1302 0504 DE4F      		sbci r29,hi8(-(512))
 1303               	.L160:
 1304               	.LM210:
 1305 0506 CE01      		movw r24,r28
 1306 0508 60E0      		ldi r22,lo8(512)
 1307 050a 72E0      		ldi r23,hi8(512)
 1308 050c 0E94 0000 		call rcvr_datablock
 1309 0510 892B      		or r24,r25
 1310 0512 01F0      		breq .L154
 1311               	.LM211:
 1312 0514 0150      		subi r16,lo8(-(-1))
 1313 0516 01F4      		brne .L165
 1314               	.L154:
 1315               	.LM212:
 1316 0518 8CE0      		ldi r24,lo8(12)
 1317 051a 40E0      		ldi r20,lo8(0)
 1318 051c 50E0      		ldi r21,hi8(0)
 1319 051e 60E0      		ldi r22,hlo8(0)
 1320 0520 70E0      		ldi r23,hhi8(0)
 1321 0522 0E94 0000 		call send_cmd
 1322 0526 00C0      		rjmp .L152
 1323               	.LVL127:
 1324               	.L163:
 1325               	.LM213:
 1326 0528 F9E0      		ldi r31,9
 1327 052a 220F      	1:	lsl r18
 1328 052c 331F      		rol r19
 1329 052e 441F      		rol r20
 1330 0530 551F      		rol r21
 1331 0532 FA95      		dec r31
 1332 0534 01F4      		brne 1b
 1333               	.LVL128:
 1334               	.LM214:
 1335 0536 0130      		cpi r16,lo8(1)
 1336 0538 01F0      		breq .+2
 1337 053a 00C0      		rjmp .L151
 1338               	.L164:
 1339               	.LM215:
 1340 053c 81E1      		ldi r24,lo8(17)
 1341 053e BA01      		movw r22,r20
 1342 0540 A901      		movw r20,r18
 1343 0542 0E94 0000 		call send_cmd
 1344               	.LVL129:
 1345 0546 8823      		tst r24
 1346 0548 01F0      		breq .+2
 1347 054a 00C0      		rjmp .L152
 1348 054c CE01      		movw r24,r28
 1349 054e 60E0      		ldi r22,lo8(512)
 1350 0550 72E0      		ldi r23,hi8(512)
 1351 0552 0E94 0000 		call rcvr_datablock
 1352 0556 00E0      		ldi r16,lo8(0)
 1353 0558 892B      		or r24,r25
 1354 055a 01F0      		breq .+2
 1355 055c 00C0      		rjmp .L152
 1356 055e 01E0      		ldi r16,lo8(1)
 1357 0560 00C0      		rjmp .L152
 1358               	.LFE16:
 1360               	.global	disk_write
 1362               	disk_write:
 1363               	.LFB17:
 1364               	.LM216:
 1365               	.LVL130:
 1366 0562 CF92      		push r12
 1367 0564 DF92      		push r13
 1368 0566 EF92      		push r14
 1369 0568 FF92      		push r15
 1370 056a 0F93      		push r16
 1371               	.LVL131:
 1372 056c CF93      		push r28
 1373 056e DF93      		push r29
 1374               	/* prologue: function */
 1375               	/* frame size = 0 */
 1376 0570 EB01      		movw r28,r22
 1377 0572 6901      		movw r12,r18
 1378 0574 7A01      		movw r14,r20
 1379               	.LBB194:
 1380               	.LBB195:
 1381               	.LM217:
 1382 0576 9091 0000 		lds r25,Stat
 1383               	.LVL132:
 1384               	.LM218:
 1385 057a 8823      		tst r24
 1386 057c 01F4      		brne .L167
 1387               	.LVL133:
 1388               	.LM219:
 1389 057e 892F      		mov r24,r25
 1390               	.LVL134:
 1391 0580 897F      		andi r24,lo8(-7)
 1392               	.LM220:
 1393 0582 8093 0000 		sts Stat,r24
 1394               	.LBE195:
 1395               	.LBE194:
 1396               	.LM221:
 1397 0586 80FD      		sbrc r24,0
 1398 0588 00C0      		rjmp .L185
 1399               	.LVL135:
 1400               	.LM222:
 1401 058a 0023      		tst r16
 1402               	.LVL136:
 1403 058c 01F0      		breq .L186
 1404               	.LM223:
 1405 058e 8091 0000 		lds r24,CardType
 1406 0592 90E0      		ldi r25,lo8(0)
 1407               	.LVL137:
 1408 0594 83FF      		sbrs r24,3
 1409 0596 00C0      		rjmp .L187
 1410               	.L172:
 1411               	.LM224:
 1412 0598 0130      		cpi r16,lo8(1)
 1413 059a 01F4      		brne .+2
 1414 059c 00C0      		rjmp .L188
 1415               	.LM225:
 1416 059e 8670      		andi r24,lo8(6)
 1417 05a0 9070      		andi r25,hi8(6)
 1418 05a2 892B      		or r24,r25
 1419 05a4 01F4      		brne .L189
 1420               	.L176:
 1421               	.LM226:
 1422 05a6 89E1      		ldi r24,lo8(25)
 1423 05a8 B701      		movw r22,r14
 1424 05aa A601      		movw r20,r12
 1425 05ac 0E94 0000 		call send_cmd
 1426 05b0 8823      		tst r24
 1427 05b2 01F0      		breq .L183
 1428               	.L174:
 1429               	.LBB197:
 1430               	.LBB198:
 1431               	.LM227:
 1432 05b4 2A9A      		sbi 37-32,2
 1433               	.LBB199:
 1434               	.LBB200:
 1435               	.LM228:
 1436 05b6 8FEF      		ldi r24,lo8(-1)
 1437 05b8 8EBD      		out 78-32,r24
 1438               	.L179:
 1439               	.LM229:
 1440 05ba 0DB4      		in __tmp_reg__,77-32
 1441 05bc 07FE      		sbrs __tmp_reg__,7
 1442 05be 00C0      		rjmp .L179
 1443               	.LM230:
 1444 05c0 8EB5      		in r24,78-32
 1445               	.LVL138:
 1446               	.LBE200:
 1447               	.LBE199:
 1448               	.LBE198:
 1449               	.LBE197:
 1450               	.LM231:
 1451 05c2 0023      		tst r16
 1452 05c4 01F0      		breq .L169
 1453 05c6 01E0      		ldi r16,lo8(1)
 1454               	.LVL139:
 1455 05c8 00C0      		rjmp .L169
 1456               	.LVL140:
 1457               	.L167:
 1458               	.LBB201:
 1459               	.LBB196:
 1460               	.LM232:
 1461 05ca 83E0      		ldi r24,lo8(3)
 1462               	.LVL141:
 1463 05cc 8093 0000 		sts Stat,r24
 1464               	.L185:
 1465 05d0 03E0      		ldi r16,lo8(3)
 1466               	.LVL142:
 1467               	.L169:
 1468               	.LBE196:
 1469               	.LBE201:
 1470               	.LM233:
 1471 05d2 802F      		mov r24,r16
 1472               	.LVL143:
 1473               	/* epilogue start */
 1474 05d4 DF91      		pop r29
 1475 05d6 CF91      		pop r28
 1476               	.LVL144:
 1477 05d8 0F91      		pop r16
 1478 05da FF90      		pop r15
 1479 05dc EF90      		pop r14
 1480 05de DF90      		pop r13
 1481 05e0 CF90      		pop r12
 1482               	.LVL145:
 1483 05e2 0895      		ret
 1484               	.LVL146:
 1485               	.L186:
 1486               	.LM234:
 1487 05e4 04E0      		ldi r16,lo8(4)
 1488               	.LVL147:
 1489 05e6 00C0      		rjmp .L169
 1490               	.LVL148:
 1491               	.L190:
 1492               	.LM235:
 1493 05e8 C050      		subi r28,lo8(-(512))
 1494 05ea DE4F      		sbci r29,hi8(-(512))
 1495               	.L183:
 1496               	.LM236:
 1497 05ec CE01      		movw r24,r28
 1498 05ee 6CEF      		ldi r22,lo8(-4)
 1499 05f0 0E94 0000 		call xmit_datablock
 1500 05f4 892B      		or r24,r25
 1501 05f6 01F0      		breq .L177
 1502               	.LM237:
 1503 05f8 0150      		subi r16,lo8(-(-1))
 1504 05fa 01F4      		brne .L190
 1505               	.L177:
 1506               	.LM238:
 1507 05fc 80E0      		ldi r24,lo8(0)
 1508 05fe 90E0      		ldi r25,hi8(0)
 1509 0600 6DEF      		ldi r22,lo8(-3)
 1510 0602 0E94 0000 		call xmit_datablock
 1511 0606 892B      		or r24,r25
 1512 0608 01F4      		brne .L174
 1513 060a 01E0      		ldi r16,lo8(1)
 1514 060c 00C0      		rjmp .L174
 1515               	.LVL149:
 1516               	.L187:
 1517               	.LM239:
 1518 060e A9E0      		ldi r26,9
 1519 0610 CC0C      	1:	lsl r12
 1520 0612 DD1C      		rol r13
 1521 0614 EE1C      		rol r14
 1522 0616 FF1C      		rol r15
 1523 0618 AA95      		dec r26
 1524 061a 01F4      		brne 1b
 1525 061c 00C0      		rjmp .L172
 1526               	.LVL150:
 1527               	.L189:
 1528               	.LM240:
 1529 061e 402F      		mov r20,r16
 1530 0620 50E0      		ldi r21,lo8(0)
 1531               	.LVL151:
 1532 0622 60E0      		ldi r22,lo8(0)
 1533 0624 70E0      		ldi r23,hi8(0)
 1534               	.LVL152:
 1535 0626 87E9      		ldi r24,lo8(-105)
 1536 0628 0E94 0000 		call send_cmd
 1537               	.LVL153:
 1538 062c 00C0      		rjmp .L176
 1539               	.LVL154:
 1540               	.L188:
 1541               	.LM241:
 1542 062e 88E1      		ldi r24,lo8(24)
 1543 0630 B701      		movw r22,r14
 1544 0632 A601      		movw r20,r12
 1545 0634 0E94 0000 		call send_cmd
 1546 0638 8823      		tst r24
 1547 063a 01F0      		breq .+2
 1548 063c 00C0      		rjmp .L174
 1549 063e CE01      		movw r24,r28
 1550 0640 6EEF      		ldi r22,lo8(-2)
 1551 0642 0E94 0000 		call xmit_datablock
 1552 0646 00E0      		ldi r16,lo8(0)
 1553 0648 892B      		or r24,r25
 1554 064a 01F0      		breq .+2
 1555 064c 00C0      		rjmp .L174
 1556               	.LM242:
 1557 064e 01E0      		ldi r16,lo8(1)
 1558 0650 00C0      		rjmp .L174
 1559               	.LFE17:
 1561               	.global	disk_ioctl
 1563               	disk_ioctl:
 1564               	.LFB18:
 1565               	.LM243:
 1566               	.LVL155:
 1567 0652 0F93      		push r16
 1568 0654 1F93      		push r17
 1569 0656 DF93      		push r29
 1570 0658 CF93      		push r28
 1571 065a CDB7      		in r28,__SP_L__
 1572 065c DEB7      		in r29,__SP_H__
 1573 065e 6097      		sbiw r28,16
 1574 0660 0FB6      		in __tmp_reg__,__SREG__
 1575 0662 F894      		cli
 1576 0664 DEBF      		out __SP_H__,r29
 1577 0666 0FBE      		out __SREG__,__tmp_reg__
 1578 0668 CDBF      		out __SP_L__,r28
 1579               	/* prologue: function */
 1580               	/* frame size = 16 */
 1581 066a 8A01      		movw r16,r20
 1582               	.LBB202:
 1583               	.LBB203:
 1584               	.LM244:
 1585 066c 9091 0000 		lds r25,Stat
 1586               	.LVL156:
 1587               	.LM245:
 1588 0670 8823      		tst r24
 1589 0672 01F4      		brne .L192
 1590               	.LVL157:
 1591               	.LM246:
 1592 0674 892F      		mov r24,r25
 1593               	.LVL158:
 1594 0676 897F      		andi r24,lo8(-7)
 1595               	.LVL159:
 1596               	.LM247:
 1597 0678 8093 0000 		sts Stat,r24
 1598               	.LBE203:
 1599               	.LBE202:
 1600               	.LM248:
 1601 067c 80FD      		sbrc r24,0
 1602 067e 00C0      		rjmp .L207
 1603               	.LM249:
 1604 0680 6130      		cpi r22,lo8(1)
 1605 0682 01F0      		breq .L197
 1606 0684 6130      		cpi r22,lo8(1)
 1607 0686 00F0      		brlo .L196
 1608 0688 6330      		cpi r22,lo8(3)
 1609 068a 01F0      		breq .L198
 1610 068c 94E0      		ldi r25,lo8(4)
 1611               	.LVL160:
 1612               	.L199:
 1613               	.LBB205:
 1614               	.LBB206:
 1615               	.LM250:
 1616 068e 2A9A      		sbi 37-32,2
 1617               	.LBB207:
 1618               	.LBB208:
 1619               	.LM251:
 1620 0690 8FEF      		ldi r24,lo8(-1)
 1621               	.LVL161:
 1622 0692 8EBD      		out 78-32,r24
 1623               	.L203:
 1624               	.LM252:
 1625 0694 0DB4      		in __tmp_reg__,77-32
 1626 0696 07FE      		sbrs __tmp_reg__,7
 1627 0698 00C0      		rjmp .L203
 1628               	.LM253:
 1629 069a 8EB5      		in r24,78-32
 1630               	.LVL162:
 1631 069c 00C0      		rjmp .L194
 1632               	.LVL163:
 1633               	.L192:
 1634               	.LBE208:
 1635               	.LBE207:
 1636               	.LBE206:
 1637               	.LBE205:
 1638               	.LBB209:
 1639               	.LBB204:
 1640               	.LM254:
 1641 069e 83E0      		ldi r24,lo8(3)
 1642               	.LVL164:
 1643 06a0 8093 0000 		sts Stat,r24
 1644               	.LVL165:
 1645               	.L207:
 1646 06a4 93E0      		ldi r25,lo8(3)
 1647               	.LVL166:
 1648               	.L194:
 1649               	.LBE204:
 1650               	.LBE209:
 1651               	.LM255:
 1652 06a6 892F      		mov r24,r25
 1653               	.LVL167:
 1654               	/* epilogue start */
 1655 06a8 6096      		adiw r28,16
 1656 06aa 0FB6      		in __tmp_reg__,__SREG__
 1657 06ac F894      		cli
 1658 06ae DEBF      		out __SP_H__,r29
 1659 06b0 0FBE      		out __SREG__,__tmp_reg__
 1660 06b2 CDBF      		out __SP_L__,r28
 1661 06b4 CF91      		pop r28
 1662 06b6 DF91      		pop r29
 1663 06b8 1F91      		pop r17
 1664 06ba 0F91      		pop r16
 1665               	.LVL168:
 1666 06bc 0895      		ret
 1667               	.LVL169:
 1668               	.L196:
 1669               	.LM256:
 1670 06be 0E94 0000 		call select
 1671               	.LVL170:
 1672 06c2 892B      		or r24,r25
 1673 06c4 01F0      		breq .L200
 1674               	.LBB210:
 1675               	.LBB211:
 1676               	.LM257:
 1677 06c6 2A9A      		sbi 37-32,2
 1678               	.LBB212:
 1679               	.LBB213:
 1680               	.LM258:
 1681 06c8 8FEF      		ldi r24,lo8(-1)
 1682 06ca 8EBD      		out 78-32,r24
 1683               	.L201:
 1684               	.LM259:
 1685 06cc 0DB4      		in __tmp_reg__,77-32
 1686 06ce 07FE      		sbrs __tmp_reg__,7
 1687 06d0 00C0      		rjmp .L201
 1688               	.LM260:
 1689 06d2 8EB5      		in r24,78-32
 1690               	.LVL171:
 1691 06d4 90E0      		ldi r25,lo8(0)
 1692               	.LVL172:
 1693 06d6 00C0      		rjmp .L199
 1694               	.LVL173:
 1695               	.L197:
 1696               	.LBE213:
 1697               	.LBE212:
 1698               	.LBE211:
 1699               	.LBE210:
 1700               	.LM261:
 1701 06d8 89E0      		ldi r24,lo8(9)
 1702               	.LVL174:
 1703 06da 40E0      		ldi r20,lo8(0)
 1704 06dc 50E0      		ldi r21,hi8(0)
 1705 06de 60E0      		ldi r22,hlo8(0)
 1706 06e0 70E0      		ldi r23,hhi8(0)
 1707 06e2 0E94 0000 		call send_cmd
 1708               	.LVL175:
 1709 06e6 8823      		tst r24
 1710 06e8 01F0      		breq .L208
 1711               	.L200:
 1712               	.LM262:
 1713 06ea 91E0      		ldi r25,lo8(1)
 1714               	.LVL176:
 1715 06ec 00C0      		rjmp .L199
 1716               	.LVL177:
 1717               	.L198:
 1718               	.LM263:
 1719 06ee 80E8      		ldi r24,lo8(128)
 1720 06f0 90E0      		ldi r25,hi8(128)
 1721 06f2 A0E0      		ldi r26,hlo8(128)
 1722 06f4 B0E0      		ldi r27,hhi8(128)
 1723               	.LVL178:
 1724 06f6 FA01      		movw r30,r20
 1725 06f8 8083      		st Z,r24
 1726 06fa 9183      		std Z+1,r25
 1727 06fc A283      		std Z+2,r26
 1728 06fe B383      		std Z+3,r27
 1729 0700 90E0      		ldi r25,lo8(0)
 1730               	.LVL179:
 1731 0702 00C0      		rjmp .L199
 1732               	.LVL180:
 1733               	.L208:
 1734               	.LM264:
 1735 0704 CE01      		movw r24,r28
 1736 0706 0196      		adiw r24,1
 1737 0708 60E1      		ldi r22,lo8(16)
 1738 070a 70E0      		ldi r23,hi8(16)
 1739 070c 0E94 0000 		call rcvr_datablock
 1740 0710 892B      		or r24,r25
 1741 0712 01F0      		breq .L200
 1742               	.LM265:
 1743 0714 8981      		ldd r24,Y+1
 1744 0716 8295      		swap r24
 1745 0718 8695      		lsr r24
 1746 071a 8695      		lsr r24
 1747 071c 8370      		andi r24,lo8(3)
 1748 071e 8130      		cpi r24,lo8(1)
 1749 0720 01F0      		breq .L209
 1750               	.LM266:
 1751 0722 8985      		ldd r24,Y+9
 1752 0724 8295      		swap r24
 1753 0726 8695      		lsr r24
 1754 0728 8695      		lsr r24
 1755 072a 8370      		andi r24,lo8(3)
 1756 072c 2885      		ldd r18,Y+8
 1757 072e 30E0      		ldi r19,lo8(0)
 1758 0730 220F      		lsl r18
 1759 0732 331F      		rol r19
 1760 0734 220F      		lsl r18
 1761 0736 331F      		rol r19
 1762 0738 280F      		add r18,r24
 1763 073a 311D      		adc r19,__zero_reg__
 1764 073c 2F5F      		subi r18,lo8(-(1))
 1765 073e 3F4F      		sbci r19,hi8(-(1))
 1766 0740 8F81      		ldd r24,Y+7
 1767 0742 90E0      		ldi r25,lo8(0)
 1768 0744 8370      		andi r24,lo8(3)
 1769 0746 9070      		andi r25,hi8(3)
 1770 0748 982F      		mov r25,r24
 1771 074a 8827      		clr r24
 1772 074c 990F      		lsl r25
 1773 074e 990F      		lsl r25
 1774 0750 280F      		add r18,r24
 1775 0752 391F      		adc r19,r25
 1776 0754 40E0      		ldi r20,lo8(0)
 1777 0756 50E0      		ldi r21,hi8(0)
 1778 0758 8E81      		ldd r24,Y+6
 1779 075a 8F70      		andi r24,lo8(15)
 1780 075c 6B85      		ldd r22,Y+11
 1781 075e 661F      		rol r22
 1782 0760 6627      		clr r22
 1783 0762 661F      		rol r22
 1784 0764 860F      		add r24,r22
 1785 0766 8E5F      		subi r24,lo8(-(2))
 1786 0768 6A85      		ldd r22,Y+10
 1787 076a 6370      		andi r22,lo8(3)
 1788 076c 660F      		lsl r22
 1789 076e 860F      		add r24,r22
 1790 0770 90E0      		ldi r25,lo8(0)
 1791 0772 0997      		sbiw r24,9
 1792 0774 00C0      		rjmp 2f
 1793 0776 220F      	1:	lsl r18
 1794 0778 331F      		rol r19
 1795 077a 441F      		rol r20
 1796 077c 551F      		rol r21
 1797 077e 8A95      	2:	dec r24
 1798 0780 02F4      		brpl 1b
 1799 0782 F801      		movw r30,r16
 1800 0784 2083      		st Z,r18
 1801 0786 3183      		std Z+1,r19
 1802 0788 4283      		std Z+2,r20
 1803 078a 5383      		std Z+3,r21
 1804 078c 90E0      		ldi r25,lo8(0)
 1805               	.LVL181:
 1806 078e 00C0      		rjmp .L199
 1807               	.LVL182:
 1808               	.L209:
 1809               	.LM267:
 1810 0790 8A85      		ldd r24,Y+10
 1811 0792 90E0      		ldi r25,lo8(0)
 1812 0794 0196      		adiw r24,1
 1813 0796 3985      		ldd r19,Y+9
 1814 0798 20E0      		ldi r18,lo8(0)
 1815 079a 820F      		add r24,r18
 1816 079c 931F      		adc r25,r19
 1817 079e A0E0      		ldi r26,lo8(0)
 1818 07a0 B0E0      		ldi r27,hi8(0)
 1819 07a2 2AE0      		ldi r18,10
 1820 07a4 880F      	1:	lsl r24
 1821 07a6 991F      		rol r25
 1822 07a8 AA1F      		rol r26
 1823 07aa BB1F      		rol r27
 1824 07ac 2A95      		dec r18
 1825 07ae 01F4      		brne 1b
 1826 07b0 F801      		movw r30,r16
 1827 07b2 8083      		st Z,r24
 1828 07b4 9183      		std Z+1,r25
 1829 07b6 A283      		std Z+2,r26
 1830 07b8 B383      		std Z+3,r27
 1831 07ba 90E0      		ldi r25,lo8(0)
 1832               	.LVL183:
 1833 07bc 00C0      		rjmp .L199
 1834               	.LFE18:
 1836               		.data
 1839               	Stat:
 1840 0000 01        		.byte	1
 1841               		.lcomm CardType,1
 1938               	.Letext0:
DEFINED SYMBOLS
                            *ABS*:00000000 mmcbb.c
C:\DOCUME~1\ADMINI~1\LOCALS~1\Temp/ccP2KTsp.s:2      *ABS*:0000003f __SREG__
C:\DOCUME~1\ADMINI~1\LOCALS~1\Temp/ccP2KTsp.s:3      *ABS*:0000003e __SP_H__
C:\DOCUME~1\ADMINI~1\LOCALS~1\Temp/ccP2KTsp.s:4      *ABS*:0000003d __SP_L__
C:\DOCUME~1\ADMINI~1\LOCALS~1\Temp/ccP2KTsp.s:5      *ABS*:00000034 __CCP__
C:\DOCUME~1\ADMINI~1\LOCALS~1\Temp/ccP2KTsp.s:6      *ABS*:00000000 __tmp_reg__
C:\DOCUME~1\ADMINI~1\LOCALS~1\Temp/ccP2KTsp.s:7      *ABS*:00000001 __zero_reg__
C:\DOCUME~1\ADMINI~1\LOCALS~1\Temp/ccP2KTsp.s:17     .text:00000000 wait_ready
C:\DOCUME~1\ADMINI~1\LOCALS~1\Temp/ccP2KTsp.s:86     .text:0000003a select
C:\DOCUME~1\ADMINI~1\LOCALS~1\Temp/ccP2KTsp.s:135    .text:00000062 rcvr_datablock
C:\DOCUME~1\ADMINI~1\LOCALS~1\Temp/ccP2KTsp.s:287    .text:000000f6 xmit_datablock
C:\DOCUME~1\ADMINI~1\LOCALS~1\Temp/ccP2KTsp.s:453    .text:00000194 send_cmd
C:\DOCUME~1\ADMINI~1\LOCALS~1\Temp/ccP2KTsp.s:716    .text:00000286 disk_status
C:\DOCUME~1\ADMINI~1\LOCALS~1\Temp/ccP2KTsp.s:1839   .data:00000000 Stat
C:\DOCUME~1\ADMINI~1\LOCALS~1\Temp/ccP2KTsp.s:753    .text:000002a0 disk_initialize
                             .bss:00000000 CardType
C:\DOCUME~1\ADMINI~1\LOCALS~1\Temp/ccP2KTsp.s:1173   .text:0000048a disk_read
C:\DOCUME~1\ADMINI~1\LOCALS~1\Temp/ccP2KTsp.s:1362   .text:00000562 disk_write
C:\DOCUME~1\ADMINI~1\LOCALS~1\Temp/ccP2KTsp.s:1563   .text:00000652 disk_ioctl

UNDEFINED SYMBOLS
__do_copy_data
__do_clear_bss
