   1               		.file	"xprintf.c"
   2               	__SREG__ = 0x3f
   3               	__SP_H__ = 0x3e
   4               	__SP_L__ = 0x3d
   5               	__CCP__  = 0x34
   6               	__tmp_reg__ = 0
   7               	__zero_reg__ = 1
  15               	.Ltext0:
  16               	.global	xputc
  18               	xputc:
  19               	.LFB2:
  20               	.LM1:
  21               	.LVL0:
  22               	/* prologue: function */
  23               	/* frame size = 0 */
  24               	.LM2:
  25 0000 E091 0000 		lds r30,outptr
  26 0004 F091 0000 		lds r31,(outptr)+1
  27 0008 3097      		sbiw r30,0
  28 000a 01F0      		breq .L2
  29               	.LM3:
  30 000c 8193      		st Z+,r24
  31 000e F093 0000 		sts (outptr)+1,r31
  32 0012 E093 0000 		sts outptr,r30
  33 0016 0895      		ret
  34               	.L2:
  35               	.LM4:
  36 0018 E091 0000 		lds r30,xfunc_out
  37 001c F091 0000 		lds r31,(xfunc_out)+1
  38 0020 3097      		sbiw r30,0
  39 0022 01F0      		breq .L4
  40 0024 0995      		icall
  41               	.LVL1:
  42               	.L4:
  43 0026 0895      		ret
  44               	.LFE2:
  46               	.global	xputs
  48               	xputs:
  49               	.LFB3:
  50               	.LM5:
  51               	.LVL2:
  52 0028 CF93      		push r28
  53 002a DF93      		push r29
  54               	/* prologue: function */
  55               	/* frame size = 0 */
  56 002c EC01      		movw r28,r24
  57               	.LM6:
  58 002e 8881      		ld r24,Y
  59               	.LVL3:
  60 0030 8823      		tst r24
  61 0032 01F0      		breq .L9
  62               	.L10:
  63               	.LM7:
  64 0034 2196      		adiw r28,1
  65 0036 0E94 0000 		call xputc
  66               	.LM8:
  67 003a 8881      		ld r24,Y
  68 003c 8823      		tst r24
  69 003e 01F4      		brne .L10
  70               	.L9:
  71               	/* epilogue start */
  72               	.LM9:
  73 0040 DF91      		pop r29
  74 0042 CF91      		pop r28
  75               	.LVL4:
  76 0044 0895      		ret
  77               	.LFE3:
  79               	.global	xfputs
  81               	xfputs:
  82               	.LFB4:
  83               	.LM10:
  84               	.LVL5:
  85 0046 0F93      		push r16
  86 0048 1F93      		push r17
  87 004a CF93      		push r28
  88 004c DF93      		push r29
  89               	/* prologue: function */
  90               	/* frame size = 0 */
  91 004e EB01      		movw r28,r22
  92               	.LM11:
  93 0050 0091 0000 		lds r16,xfunc_out
  94 0054 1091 0000 		lds r17,(xfunc_out)+1
  95               	.LVL6:
  96               	.LM12:
  97 0058 9093 0000 		sts (xfunc_out)+1,r25
  98 005c 8093 0000 		sts xfunc_out,r24
  99               	.LM13:
 100 0060 8881      		ld r24,Y
 101               	.LVL7:
 102 0062 8823      		tst r24
 103 0064 01F0      		breq .L13
 104               	.LVL8:
 105               	.L16:
 106               	.LM14:
 107 0066 2196      		adiw r28,1
 108 0068 0E94 0000 		call xputc
 109               	.LM15:
 110 006c 8881      		ld r24,Y
 111 006e 8823      		tst r24
 112 0070 01F4      		brne .L16
 113               	.LVL9:
 114               	.L13:
 115               	.LM16:
 116 0072 1093 0000 		sts (xfunc_out)+1,r17
 117 0076 0093 0000 		sts xfunc_out,r16
 118               	/* epilogue start */
 119               	.LM17:
 120 007a DF91      		pop r29
 121 007c CF91      		pop r28
 122               	.LVL10:
 123 007e 1F91      		pop r17
 124 0080 0F91      		pop r16
 125               	.LVL11:
 126 0082 0895      		ret
 127               	.LFE4:
 130               	xvprintf:
 131               	.LFB5:
 132               	.LM18:
 133               	.LVL12:
 134 0084 2F92      		push r2
 135 0086 3F92      		push r3
 136 0088 4F92      		push r4
 137 008a 5F92      		push r5
 138 008c 6F92      		push r6
 139 008e 7F92      		push r7
 140 0090 8F92      		push r8
 141 0092 9F92      		push r9
 142 0094 AF92      		push r10
 143 0096 BF92      		push r11
 144 0098 CF92      		push r12
 145 009a DF92      		push r13
 146 009c EF92      		push r14
 147 009e FF92      		push r15
 148 00a0 0F93      		push r16
 149 00a2 1F93      		push r17
 150 00a4 DF93      		push r29
 151 00a6 CF93      		push r28
 152 00a8 CDB7      		in r28,__SP_L__
 153 00aa DEB7      		in r29,__SP_H__
 154 00ac 6497      		sbiw r28,20
 155 00ae 0FB6      		in __tmp_reg__,__SREG__
 156 00b0 F894      		cli
 157 00b2 DEBF      		out __SP_H__,r29
 158 00b4 0FBE      		out __SREG__,__tmp_reg__
 159 00b6 CDBF      		out __SP_L__,r28
 160               	/* prologue: function */
 161               	/* frame size = 20 */
 162 00b8 1C01      		movw r2,r24
 163 00ba 8B01      		movw r16,r22
 164               	.LM19:
 165 00bc D101      		movw r26,r2
 166 00be 8C91      		ld r24,X
 167               	.LVL13:
 168               	.LM20:
 169 00c0 8823      		tst r24
 170 00c2 01F4      		brne .+2
 171 00c4 00C0      		rjmp .L66
 172               	.LVL14:
 173               	.L84:
 174               	.LM21:
 175 00c6 0894      		sec
 176 00c8 211C      		adc r2,__zero_reg__
 177 00ca 311C      		adc r3,__zero_reg__
 178               	.LM22:
 179 00cc 8532      		cpi r24,lo8(37)
 180 00ce 01F0      		breq .+2
 181 00d0 00C0      		rjmp .L79
 182               	.LM23:
 183 00d2 F101      		movw r30,r2
 184 00d4 2191      		ld r18,Z+
 185               	.LVL15:
 186               	.LM24:
 187 00d6 2033      		cpi r18,lo8(48)
 188 00d8 01F4      		brne .+2
 189 00da 00C0      		rjmp .L81
 190               	.LVL16:
 191               	.LM25:
 192 00dc 2D32      		cpi r18,lo8(45)
 193 00de 01F4      		brne .+2
 194 00e0 00C0      		rjmp .L25
 195 00e2 1C8A      		std Y+20,__zero_reg__
 196 00e4 1B8A      		std Y+19,__zero_reg__
 197               	.LVL17:
 198               	.L24:
 199               	.LM26:
 200 00e6 822F      		mov r24,r18
 201 00e8 8053      		subi r24,lo8(-(-48))
 202 00ea 8A30      		cpi r24,lo8(10)
 203 00ec 00F0      		brlo .+2
 204 00ee 00C0      		rjmp .L82
 205               	.L26:
 206 00f0 CC24      		clr r12
 207 00f2 DD24      		clr r13
 208               	.L28:
 209               	.LM27:
 210 00f4 C601      		movw r24,r12
 211 00f6 880F      		lsl r24
 212 00f8 991F      		rol r25
 213 00fa 880F      		lsl r24
 214 00fc 991F      		rol r25
 215 00fe 880F      		lsl r24
 216 0100 991F      		rol r25
 217 0102 CC0C      		lsl r12
 218 0104 DD1C      		rol r13
 219 0106 C80E      		add r12,r24
 220 0108 D91E      		adc r13,r25
 221 010a C20E      		add r12,r18
 222 010c D11C      		adc r13,__zero_reg__
 223 010e 20ED      		ldi r18,lo8(-48)
 224 0110 3FEF      		ldi r19,hi8(-48)
 225               	.LVL18:
 226 0112 C20E      		add r12,r18
 227 0114 D31E      		adc r13,r19
 228               	.LM28:
 229 0116 2191      		ld r18,Z+
 230               	.LVL19:
 231 0118 822F      		mov r24,r18
 232 011a 8053      		subi r24,lo8(-(-48))
 233 011c 8A30      		cpi r24,lo8(10)
 234 011e 00F0      		brlo .L28
 235 0120 A22E      		mov r10,r18
 236               	.LVL20:
 237 0122 1F01      		movw r2,r30
 238               	.LVL21:
 239               	.L27:
 240               	.LM29:
 241 0124 2C36      		cpi r18,lo8(108)
 242 0126 01F4      		brne .+2
 243 0128 00C0      		rjmp .L29
 244               	.LVL22:
 245 012a 2C34      		cpi r18,lo8(76)
 246 012c 01F4      		brne .+2
 247 012e 00C0      		rjmp .L29
 248               	.LVL23:
 249               	.L30:
 250               	.LM30:
 251 0130 AA20      		tst r10
 252 0132 01F0      		breq .L66
 253               	.LM31:
 254 0134 B0E6      		ldi r27,lo8(96)
 255 0136 BA15      		cp r27,r10
 256 0138 00F4      		brsh .+2
 257 013a 00C0      		rjmp .L31
 258 013c 8A2D      		mov r24,r10
 259               	.LVL24:
 260               	.LM32:
 261 013e 8F34      		cpi r24,lo8(79)
 262 0140 01F4      		brne .+2
 263 0142 00C0      		rjmp .L37
 264               	.L87:
 265 0144 8035      		cpi r24,lo8(80)
 266 0146 00F0      		brlo .+2
 267 0148 00C0      		rjmp .L40
 268 014a 8334      		cpi r24,lo8(67)
 269 014c 01F4      		brne .+2
 270 014e 00C0      		rjmp .L35
 271 0150 8434      		cpi r24,lo8(68)
 272 0152 01F4      		brne .+2
 273 0154 00C0      		rjmp .L36
 274 0156 8234      		cpi r24,lo8(66)
 275 0158 01F0      		breq .L83
 276               	.L33:
 277               	.LM33:
 278 015a 8A2D      		mov r24,r10
 279               	.LVL25:
 280               	.L79:
 281 015c 0E94 0000 		call xputc
 282 0160 1A8B      		std Y+18,r17
 283 0162 098B      		std Y+17,r16
 284               	.LVL26:
 285               	.L22:
 286               	.LM34:
 287 0164 0989      		ldd r16,Y+17
 288 0166 1A89      		ldd r17,Y+18
 289               	.LM35:
 290 0168 D101      		movw r26,r2
 291 016a 8C91      		ld r24,X
 292               	.LVL27:
 293               	.LM36:
 294 016c 8823      		tst r24
 295 016e 01F0      		breq .+2
 296 0170 00C0      		rjmp .L84
 297               	.LVL28:
 298               	.L66:
 299               	/* epilogue start */
 300               	.LM37:
 301 0172 6496      		adiw r28,20
 302 0174 0FB6      		in __tmp_reg__,__SREG__
 303 0176 F894      		cli
 304 0178 DEBF      		out __SP_H__,r29
 305 017a 0FBE      		out __SREG__,__tmp_reg__
 306 017c CDBF      		out __SP_L__,r28
 307 017e CF91      		pop r28
 308 0180 DF91      		pop r29
 309 0182 1F91      		pop r17
 310 0184 0F91      		pop r16
 311               	.LVL29:
 312 0186 FF90      		pop r15
 313               	.LVL30:
 314 0188 EF90      		pop r14
 315               	.LVL31:
 316 018a DF90      		pop r13
 317 018c CF90      		pop r12
 318               	.LVL32:
 319 018e BF90      		pop r11
 320 0190 AF90      		pop r10
 321               	.LVL33:
 322 0192 9F90      		pop r9
 323 0194 8F90      		pop r8
 324 0196 7F90      		pop r7
 325 0198 6F90      		pop r6
 326 019a 5F90      		pop r5
 327 019c 4F90      		pop r4
 328 019e 3F90      		pop r3
 329 01a0 2F90      		pop r2
 330               	.LVL34:
 331 01a2 0895      		ret
 332               	.LVL35:
 333               	.L83:
 334               	.LM38:
 335 01a4 22E0      		ldi r18,lo8(2)
 336 01a6 422E      		mov r4,r18
 337 01a8 512C      		mov r5,__zero_reg__
 338 01aa 612C      		mov r6,__zero_reg__
 339 01ac 712C      		mov r7,__zero_reg__
 340               	.LVL36:
 341               	.L41:
 342               	.LM39:
 343 01ae BB89      		ldd r27,Y+19
 344 01b0 B2FF      		sbrs r27,2
 345 01b2 00C0      		rjmp .L49
 346               	.LVL37:
 347               	.L88:
 348 01b4 F801      		movw r30,r16
 349 01b6 3496      		adiw r30,4
 350 01b8 FA8B      		std Y+18,r31
 351 01ba E98B      		std Y+17,r30
 352               	.LVL38:
 353 01bc D801      		movw r26,r16
 354 01be ED90      		ld r14,X+
 355 01c0 FD90      		ld r15,X+
 356 01c2 0D91      		ld r16,X+
 357 01c4 1C91      		ld r17,X
 358               	.LVL39:
 359               	.LM40:
 360 01c6 8434      		cpi r24,lo8(68)
 361 01c8 01F4      		brne .+2
 362 01ca 00C0      		rjmp .L50
 363               	.LVL40:
 364               	.L51:
 365               	.LM41:
 366 01cc 8824      		clr r8
 367 01ce 9924      		clr r9
 368               	.LVL41:
 369               	.L57:
 370               	.LM42:
 371 01d0 C801      		movw r24,r16
 372 01d2 B701      		movw r22,r14
 373 01d4 A301      		movw r20,r6
 374 01d6 9201      		movw r18,r4
 375 01d8 0E94 0000 		call __udivmodsi4
 376 01dc B62E      		mov r11,r22
 377               	.LVL42:
 378 01de C801      		movw r24,r16
 379 01e0 B701      		movw r22,r14
 380 01e2 A301      		movw r20,r6
 381 01e4 9201      		movw r18,r4
 382 01e6 0E94 0000 		call __udivmodsi4
 383 01ea C901      		movw r24,r18
 384 01ec DA01      		movw r26,r20
 385 01ee 7C01      		movw r14,r24
 386 01f0 8D01      		movw r16,r26
 387               	.LM43:
 388 01f2 F9E0      		ldi r31,lo8(9)
 389 01f4 FB15      		cp r31,r11
 390 01f6 00F4      		brsh .L53
 391 01f8 28E7      		ldi r18,lo8(120)
 392 01fa A216      		cp r10,r18
 393 01fc 01F4      		brne .+2
 394 01fe 00C0      		rjmp .L54
 395 0200 27E0      		ldi r18,lo8(7)
 396               	.L55:
 397 0202 B20E      		add r11,r18
 398               	.L53:
 399               	.LM44:
 400 0204 E1E0      		ldi r30,lo8(1)
 401 0206 F0E0      		ldi r31,hi8(1)
 402 0208 EC0F      		add r30,r28
 403 020a FD1F      		adc r31,r29
 404 020c E80D      		add r30,r8
 405 020e F91D      		adc r31,r9
 406 0210 30E3      		ldi r19,lo8(48)
 407 0212 B30E      		add r11,r19
 408 0214 B082      		st Z,r11
 409 0216 0894      		sec
 410 0218 811C      		adc r8,__zero_reg__
 411 021a 911C      		adc r9,__zero_reg__
 412               	.LM45:
 413 021c 0097      		sbiw r24,0
 414 021e A105      		cpc r26,__zero_reg__
 415 0220 B105      		cpc r27,__zero_reg__
 416 0222 01F0      		breq .L56
 417               	.LVL43:
 418 0224 80E1      		ldi r24,lo8(16)
 419 0226 8816      		cp r8,r24
 420 0228 9104      		cpc r9,__zero_reg__
 421               	.LVL44:
 422 022a 01F4      		brne .L57
 423               	.LVL45:
 424               	.L56:
 425               	.LM46:
 426 022c 9B89      		ldd r25,Y+19
 427 022e 93FF      		sbrs r25,3
 428 0230 00C0      		rjmp .L58
 429               	.LVL46:
 430 0232 E1E0      		ldi r30,lo8(1)
 431 0234 F0E0      		ldi r31,hi8(1)
 432 0236 EC0F      		add r30,r28
 433 0238 FD1F      		adc r31,r29
 434 023a E80D      		add r30,r8
 435 023c F91D      		adc r31,r9
 436 023e ADE2      		ldi r26,lo8(45)
 437 0240 A083      		st Z,r26
 438 0242 0894      		sec
 439 0244 811C      		adc r8,__zero_reg__
 440 0246 911C      		adc r9,__zero_reg__
 441               	.L58:
 442               	.LM47:
 443 0248 BB89      		ldd r27,Y+19
 444 024a B0FD      		sbrc r27,0
 445 024c 00C0      		rjmp .L59
 446 024e 90E2      		ldi r25,lo8(32)
 447 0250 F92E      		mov r15,r25
 448               	.LVL47:
 449               	.LM48:
 450 0252 EB89      		ldd r30,Y+19
 451 0254 E1FD      		sbrc r30,1
 452 0256 00C0      		rjmp .L85
 453               	.L61:
 454 0258 5401      		movw r10,r8
 455               	.LVL48:
 456 025a 0894      		sec
 457 025c A11C      		adc r10,__zero_reg__
 458 025e B11C      		adc r11,__zero_reg__
 459 0260 8C14      		cp r8,r12
 460 0262 9D04      		cpc r9,r13
 461 0264 00F4      		brsh .L62
 462 0266 8401      		movw r16,r8
 463               	.LVL49:
 464               	.L63:
 465 0268 8F2D      		mov r24,r15
 466 026a 0E94 0000 		call xputc
 467 026e 0F5F      		subi r16,lo8(-(1))
 468 0270 1F4F      		sbci r17,hi8(-(1))
 469 0272 0C15      		cp r16,r12
 470 0274 1D05      		cpc r17,r13
 471 0276 00F0      		brlo .L63
 472 0278 C601      		movw r24,r12
 473 027a 8819      		sub r24,r8
 474 027c 9909      		sbc r25,r9
 475 027e A80E      		add r10,r24
 476 0280 B91E      		adc r11,r25
 477               	.LVL50:
 478               	.L62:
 479 0282 7401      		movw r14,r8
 480               	.LVL51:
 481 0284 0894      		sec
 482 0286 E108      		sbc r14,__zero_reg__
 483 0288 F108      		sbc r15,__zero_reg__
 484               	.LVL52:
 485 028a 01E0      		ldi r16,lo8(1)
 486 028c 10E0      		ldi r17,hi8(1)
 487               	.LVL53:
 488 028e 0C0F      		add r16,r28
 489 0290 1D1F      		adc r17,r29
 490 0292 0E0D      		add r16,r14
 491 0294 1F1D      		adc r17,r15
 492 0296 00C0      		rjmp .L64
 493               	.LVL54:
 494               	.L86:
 495 0298 0894      		sec
 496 029a E108      		sbc r14,__zero_reg__
 497 029c F108      		sbc r15,__zero_reg__
 498               	.LVL55:
 499               	.L64:
 500               	.LM49:
 501 029e D801      		movw r26,r16
 502 02a0 8C91      		ld r24,X
 503               	.LVL56:
 504 02a2 0E94 0000 		call xputc
 505 02a6 0150      		subi r16,lo8(-(-1))
 506 02a8 1040      		sbci r17,hi8(-(-1))
 507 02aa E114      		cp r14,__zero_reg__
 508 02ac F104      		cpc r15,__zero_reg__
 509 02ae 01F4      		brne .L86
 510               	.LM50:
 511 02b0 AC14      		cp r10,r12
 512 02b2 BD04      		cpc r11,r13
 513 02b4 00F0      		brlo .+2
 514 02b6 00C0      		rjmp .L22
 515               	.L68:
 516 02b8 80E2      		ldi r24,lo8(32)
 517 02ba 0E94 0000 		call xputc
 518 02be 0894      		sec
 519 02c0 A11C      		adc r10,__zero_reg__
 520 02c2 B11C      		adc r11,__zero_reg__
 521 02c4 AC14      		cp r10,r12
 522 02c6 BD04      		cpc r11,r13
 523 02c8 00F0      		brlo .L68
 524 02ca 00C0      		rjmp .L22
 525               	.LVL57:
 526               	.L54:
 527               	.LM51:
 528 02cc 27E2      		ldi r18,lo8(39)
 529 02ce 00C0      		rjmp .L55
 530               	.LVL58:
 531               	.L29:
 532               	.LM52:
 533 02d0 8B89      		ldd r24,Y+19
 534 02d2 9C89      		ldd r25,Y+20
 535 02d4 8460      		ori r24,lo8(4)
 536 02d6 9C8B      		std Y+20,r25
 537 02d8 8B8B      		std Y+19,r24
 538               	.LVL59:
 539 02da DF01      		movw r26,r30
 540 02dc AD90      		ld r10,X+
 541               	.LVL60:
 542 02de 1D01      		movw r2,r26
 543 02e0 00C0      		rjmp .L30
 544               	.LVL61:
 545               	.L31:
 546               	.LM53:
 547 02e2 8A2D      		mov r24,r10
 548               	.LVL62:
 549 02e4 8052      		subi r24,lo8(-(-32))
 550               	.LM54:
 551 02e6 8F34      		cpi r24,lo8(79)
 552 02e8 01F0      		breq .+2
 553 02ea 00C0      		rjmp .L87
 554               	.L37:
 555 02ec 58E0      		ldi r21,lo8(8)
 556 02ee 452E      		mov r4,r21
 557 02f0 512C      		mov r5,__zero_reg__
 558 02f2 612C      		mov r6,__zero_reg__
 559 02f4 712C      		mov r7,__zero_reg__
 560               	.LM55:
 561 02f6 BB89      		ldd r27,Y+19
 562 02f8 B2FD      		sbrc r27,2
 563 02fa 00C0      		rjmp .L88
 564               	.LVL63:
 565               	.L49:
 566 02fc 8434      		cpi r24,lo8(68)
 567 02fe 01F4      		brne .+2
 568 0300 00C0      		rjmp .L89
 569 0302 F801      		movw r30,r16
 570 0304 3296      		adiw r30,2
 571 0306 FA8B      		std Y+18,r31
 572 0308 E98B      		std Y+17,r30
 573               	.LVL64:
 574 030a D801      		movw r26,r16
 575 030c 8D91      		ld r24,X+
 576 030e 9C91      		ld r25,X
 577               	.LVL65:
 578 0310 7C01      		movw r14,r24
 579               	.LVL66:
 580 0312 00E0      		ldi r16,lo8(0)
 581 0314 10E0      		ldi r17,hi8(0)
 582               	.LVL67:
 583 0316 00C0      		rjmp .L51
 584               	.LVL68:
 585               	.L40:
 586               	.LM56:
 587 0318 8535      		cpi r24,lo8(85)
 588 031a 01F4      		brne .+2
 589 031c 00C0      		rjmp .L36
 590 031e 8835      		cpi r24,lo8(88)
 591 0320 01F4      		brne .+2
 592 0322 00C0      		rjmp .L39
 593 0324 8335      		cpi r24,lo8(83)
 594 0326 01F0      		breq .+2
 595 0328 00C0      		rjmp .L33
 596               	.LM57:
 597 032a F801      		movw r30,r16
 598 032c 3296      		adiw r30,2
 599 032e FA8B      		std Y+18,r31
 600 0330 E98B      		std Y+17,r30
 601               	.LVL69:
 602 0332 D801      		movw r26,r16
 603 0334 AD90      		ld r10,X+
 604 0336 BC90      		ld r11,X
 605               	.LVL70:
 606               	.LM58:
 607 0338 F501      		movw r30,r10
 608 033a 8081      		ld r24,Z
 609               	.LVL71:
 610 033c 8823      		tst r24
 611 033e 01F4      		brne .+2
 612 0340 00C0      		rjmp .L90
 613               	.LVL72:
 614 0342 20E0      		ldi r18,lo8(0)
 615 0344 30E0      		ldi r19,hi8(0)
 616               	.LVL73:
 617               	.L44:
 618 0346 2F5F      		subi r18,lo8(-(1))
 619 0348 3F4F      		sbci r19,hi8(-(1))
 620 034a F501      		movw r30,r10
 621 034c E20F      		add r30,r18
 622 034e F31F      		adc r31,r19
 623 0350 8081      		ld r24,Z
 624 0352 8823      		tst r24
 625 0354 01F4      		brne .L44
 626 0356 8901      		movw r16,r18
 627               	.LVL74:
 628 0358 0F5F      		subi r16,lo8(-(1))
 629 035a 1F4F      		sbci r17,hi8(-(1))
 630               	.LVL75:
 631               	.L43:
 632               	.LM59:
 633 035c FB89      		ldd r31,Y+19
 634 035e F1FD      		sbrc r31,1
 635 0360 00C0      		rjmp .L91
 636               	.LVL76:
 637 0362 2C15      		cp r18,r12
 638 0364 3D05      		cpc r19,r13
 639 0366 00F4      		brsh .L80
 640               	.L70:
 641 0368 80E2      		ldi r24,lo8(32)
 642 036a 0E94 0000 		call xputc
 643 036e 0F5F      		subi r16,lo8(-(1))
 644 0370 1F4F      		sbci r17,hi8(-(1))
 645 0372 C801      		movw r24,r16
 646 0374 0197      		sbiw r24,1
 647 0376 8C15      		cp r24,r12
 648 0378 9D05      		cpc r25,r13
 649 037a 00F0      		brlo .L70
 650               	.LVL77:
 651               	.L80:
 652 037c 7801      		movw r14,r16
 653               	.LVL78:
 654 037e 0894      		sec
 655 0380 E11C      		adc r14,__zero_reg__
 656 0382 F11C      		adc r15,__zero_reg__
 657               	.LVL79:
 658               	.L46:
 659               	.LM60:
 660 0384 C501      		movw r24,r10
 661 0386 0E94 0000 		call xputs
 662               	.LM61:
 663 038a 0C15      		cp r16,r12
 664 038c 1D05      		cpc r17,r13
 665 038e 00F0      		brlo .+2
 666 0390 00C0      		rjmp .L22
 667               	.LVL80:
 668               	.L69:
 669 0392 80E2      		ldi r24,lo8(32)
 670 0394 0E94 0000 		call xputc
 671 0398 0894      		sec
 672 039a E11C      		adc r14,__zero_reg__
 673 039c F11C      		adc r15,__zero_reg__
 674               	.LVL81:
 675 039e C701      		movw r24,r14
 676 03a0 0197      		sbiw r24,1
 677 03a2 8C15      		cp r24,r12
 678 03a4 9D05      		cpc r25,r13
 679 03a6 00F0      		brlo .L69
 680 03a8 00C0      		rjmp .L22
 681               	.LVL82:
 682               	.L81:
 683               	.LM62:
 684 03aa D101      		movw r26,r2
 685 03ac 1196      		adiw r26,1
 686 03ae 2C91      		ld r18,X
 687 03b0 3196      		adiw r30,1
 688 03b2 81E0      		ldi r24,lo8(1)
 689 03b4 90E0      		ldi r25,hi8(1)
 690 03b6 9C8B      		std Y+20,r25
 691 03b8 8B8B      		std Y+19,r24
 692               	.LVL83:
 693               	.LM63:
 694 03ba 822F      		mov r24,r18
 695 03bc 8053      		subi r24,lo8(-(-48))
 696 03be 8A30      		cpi r24,lo8(10)
 697 03c0 00F4      		brsh .+2
 698 03c2 00C0      		rjmp .L26
 699               	.LVL84:
 700               	.L82:
 701 03c4 A22E      		mov r10,r18
 702               	.LVL85:
 703 03c6 1F01      		movw r2,r30
 704 03c8 CC24      		clr r12
 705 03ca DD24      		clr r13
 706 03cc 00C0      		rjmp .L27
 707               	.LVL86:
 708               	.L59:
 709               	.LM64:
 710 03ce 80E3      		ldi r24,lo8(48)
 711 03d0 F82E      		mov r15,r24
 712               	.LVL87:
 713               	.LM65:
 714 03d2 EB89      		ldd r30,Y+19
 715 03d4 E1FF      		sbrs r30,1
 716 03d6 00C0      		rjmp .L61
 717               	.LVL88:
 718               	.L85:
 719 03d8 5401      		movw r10,r8
 720               	.LVL89:
 721 03da 00C0      		rjmp .L62
 722               	.LVL90:
 723               	.L25:
 724               	.LM66:
 725 03dc 2191      		ld r18,Z+
 726 03de A2E0      		ldi r26,lo8(2)
 727 03e0 B0E0      		ldi r27,hi8(2)
 728 03e2 BC8B      		std Y+20,r27
 729 03e4 AB8B      		std Y+19,r26
 730               	.LVL91:
 731 03e6 00C0      		rjmp .L24
 732               	.LVL92:
 733               	.L89:
 734               	.LM67:
 735 03e8 F801      		movw r30,r16
 736 03ea 3296      		adiw r30,2
 737 03ec FA8B      		std Y+18,r31
 738 03ee E98B      		std Y+17,r30
 739               	.LVL93:
 740 03f0 D801      		movw r26,r16
 741 03f2 8D91      		ld r24,X+
 742 03f4 9C91      		ld r25,X
 743               	.LVL94:
 744 03f6 7C01      		movw r14,r24
 745 03f8 0027      		clr r16
 746 03fa F7FC      		sbrc r15,7
 747 03fc 0095      		com r16
 748 03fe 102F      		mov r17,r16
 749               	.LVL95:
 750               	.L50:
 751               	.LM68:
 752 0400 17FF      		sbrs r17,7
 753 0402 00C0      		rjmp .L51
 754               	.LM69:
 755 0404 1095      		com r17
 756 0406 0095      		com r16
 757 0408 F094      		com r15
 758 040a E094      		com r14
 759 040c E11C      		adc r14,__zero_reg__
 760 040e F11C      		adc r15,__zero_reg__
 761 0410 011D      		adc r16,__zero_reg__
 762 0412 111D      		adc r17,__zero_reg__
 763               	.LM70:
 764 0414 EB89      		ldd r30,Y+19
 765 0416 FC89      		ldd r31,Y+20
 766 0418 E860      		ori r30,lo8(8)
 767 041a FC8B      		std Y+20,r31
 768 041c EB8B      		std Y+19,r30
 769               	.LVL96:
 770 041e 00C0      		rjmp .L51
 771               	.LVL97:
 772               	.L39:
 773               	.LM71:
 774 0420 30E1      		ldi r19,lo8(16)
 775 0422 432E      		mov r4,r19
 776 0424 512C      		mov r5,__zero_reg__
 777 0426 612C      		mov r6,__zero_reg__
 778 0428 712C      		mov r7,__zero_reg__
 779 042a 00C0      		rjmp .L41
 780               	.L36:
 781               	.LM72:
 782 042c 4AE0      		ldi r20,lo8(10)
 783 042e 442E      		mov r4,r20
 784 0430 512C      		mov r5,__zero_reg__
 785 0432 612C      		mov r6,__zero_reg__
 786 0434 712C      		mov r7,__zero_reg__
 787 0436 00C0      		rjmp .L41
 788               	.L35:
 789               	.LM73:
 790 0438 9801      		movw r18,r16
 791 043a 2E5F      		subi r18,lo8(-(2))
 792 043c 3F4F      		sbci r19,hi8(-(2))
 793 043e 3A8B      		std Y+18,r19
 794 0440 298B      		std Y+17,r18
 795               	.LVL98:
 796 0442 D801      		movw r26,r16
 797 0444 8C91      		ld r24,X
 798               	.LVL99:
 799 0446 0E94 0000 		call xputc
 800 044a 00C0      		rjmp .L22
 801               	.LVL100:
 802               	.L90:
 803               	.LM74:
 804 044c 20E0      		ldi r18,lo8(0)
 805 044e 30E0      		ldi r19,hi8(0)
 806               	.LVL101:
 807 0450 01E0      		ldi r16,lo8(1)
 808 0452 10E0      		ldi r17,hi8(1)
 809               	.LVL102:
 810 0454 00C0      		rjmp .L43
 811               	.LVL103:
 812               	.L91:
 813               	.LM75:
 814 0456 7801      		movw r14,r16
 815               	.LVL104:
 816 0458 8901      		movw r16,r18
 817 045a 00C0      		rjmp .L46
 818               	.LFE5:
 821               	xvprintf_P:
 822               	.LFB10:
 823               	.LM76:
 824               	.LVL105:
 825 045c 2F92      		push r2
 826 045e 3F92      		push r3
 827 0460 4F92      		push r4
 828 0462 5F92      		push r5
 829 0464 6F92      		push r6
 830 0466 7F92      		push r7
 831 0468 8F92      		push r8
 832 046a 9F92      		push r9
 833 046c AF92      		push r10
 834 046e BF92      		push r11
 835 0470 CF92      		push r12
 836 0472 DF92      		push r13
 837 0474 EF92      		push r14
 838 0476 FF92      		push r15
 839 0478 0F93      		push r16
 840 047a 1F93      		push r17
 841 047c DF93      		push r29
 842 047e CF93      		push r28
 843 0480 CDB7      		in r28,__SP_L__
 844 0482 DEB7      		in r29,__SP_H__
 845 0484 6497      		sbiw r28,20
 846 0486 0FB6      		in __tmp_reg__,__SREG__
 847 0488 F894      		cli
 848 048a DEBF      		out __SP_H__,r29
 849 048c 0FBE      		out __SREG__,__tmp_reg__
 850 048e CDBF      		out __SP_L__,r28
 851               	/* prologue: function */
 852               	/* frame size = 20 */
 853 0490 1C01      		movw r2,r24
 854 0492 8B01      		movw r16,r22
 855               	.LBB2:
 856               	.LM77:
 857 0494 F101      		movw r30,r2
 858               	/* #APP */
 859               	 ;  282 "xprintf.c" 1
 860 0496 8491      		lpm r24, Z
 861               		
 862               	 ;  0 "" 2
 863               	.LVL106:
 864               	/* #NOAPP */
 865               	.LBE2:
 866               	.LM78:
 867 0498 8823      		tst r24
 868 049a 01F4      		brne .+2
 869 049c 00C0      		rjmp .L140
 870               	.LVL107:
 871               	.L158:
 872               	.LBB3:
 873               	.LM79:
 874 049e 0894      		sec
 875 04a0 211C      		adc r2,__zero_reg__
 876 04a2 311C      		adc r3,__zero_reg__
 877               	.LBE3:
 878               	.LM80:
 879 04a4 8532      		cpi r24,lo8(37)
 880 04a6 01F0      		breq .+2
 881 04a8 00C0      		rjmp .L153
 882               	.LBB4:
 883               	.LM81:
 884 04aa 9101      		movw r18,r2
 885 04ac 2F5F      		subi r18,lo8(-(1))
 886 04ae 3F4F      		sbci r19,hi8(-(1))
 887               	.LVL108:
 888 04b0 F101      		movw r30,r2
 889               	/* #APP */
 890               	 ;  288 "xprintf.c" 1
 891 04b2 8491      		lpm r24, Z
 892               		
 893               	 ;  0 "" 2
 894               	.LVL109:
 895               	/* #NOAPP */
 896               	.LBE4:
 897               	.LM82:
 898 04b4 8033      		cpi r24,lo8(48)
 899 04b6 01F4      		brne .+2
 900 04b8 00C0      		rjmp .L155
 901               	.LVL110:
 902               	.LM83:
 903 04ba 8D32      		cpi r24,lo8(45)
 904 04bc 01F4      		brne .+2
 905 04be 00C0      		rjmp .L99
 906 04c0 482F      		mov r20,r24
 907               	.LVL111:
 908 04c2 1C8A      		std Y+20,__zero_reg__
 909 04c4 1B8A      		std Y+19,__zero_reg__
 910               	.LVL112:
 911               	.L98:
 912               	.LM84:
 913 04c6 842F      		mov r24,r20
 914               	.LVL113:
 915 04c8 8053      		subi r24,lo8(-(-48))
 916 04ca 8A30      		cpi r24,lo8(10)
 917 04cc 00F0      		brlo .+2
 918 04ce 00C0      		rjmp .L156
 919               	.LVL114:
 920               	.L100:
 921 04d0 CC24      		clr r12
 922 04d2 DD24      		clr r13
 923               	.LVL115:
 924               	.L102:
 925               	.LM85:
 926 04d4 C601      		movw r24,r12
 927 04d6 880F      		lsl r24
 928 04d8 991F      		rol r25
 929 04da 880F      		lsl r24
 930 04dc 991F      		rol r25
 931 04de 880F      		lsl r24
 932 04e0 991F      		rol r25
 933 04e2 CC0C      		lsl r12
 934 04e4 DD1C      		rol r13
 935 04e6 C80E      		add r12,r24
 936 04e8 D91E      		adc r13,r25
 937 04ea C40E      		add r12,r20
 938 04ec D11C      		adc r13,__zero_reg__
 939 04ee 80ED      		ldi r24,lo8(-48)
 940 04f0 9FEF      		ldi r25,hi8(-48)
 941 04f2 C80E      		add r12,r24
 942 04f4 D91E      		adc r13,r25
 943 04f6 F901      		movw r30,r18
 944               	.LVL116:
 945               	.LBB5:
 946               	.LM86:
 947 04f8 2F5F      		subi r18,lo8(-(1))
 948 04fa 3F4F      		sbci r19,hi8(-(1))
 949               	/* #APP */
 950               	 ;  296 "xprintf.c" 1
 951 04fc 4491      		lpm r20, Z
 952               		
 953               	 ;  0 "" 2
 954               	/* #NOAPP */
 955               	.LBE5:
 956 04fe 842F      		mov r24,r20
 957 0500 8053      		subi r24,lo8(-(-48))
 958 0502 8A30      		cpi r24,lo8(10)
 959 0504 00F0      		brlo .L102
 960 0506 1901      		movw r2,r18
 961 0508 A42E      		mov r10,r20
 962               	.LVL117:
 963               	.L101:
 964               	.LM87:
 965 050a 4C36      		cpi r20,lo8(108)
 966 050c 01F4      		brne .+2
 967 050e 00C0      		rjmp .L103
 968               	.LVL118:
 969 0510 4C34      		cpi r20,lo8(76)
 970 0512 01F4      		brne .+2
 971 0514 00C0      		rjmp .L103
 972               	.LVL119:
 973               	.L104:
 974               	.LM88:
 975 0516 AA20      		tst r10
 976 0518 01F0      		breq .L140
 977               	.LM89:
 978 051a F0E6      		ldi r31,lo8(96)
 979 051c FA15      		cp r31,r10
 980 051e 00F4      		brsh .+2
 981 0520 00C0      		rjmp .L105
 982 0522 8A2D      		mov r24,r10
 983               	.LVL120:
 984               	.LM90:
 985 0524 8F34      		cpi r24,lo8(79)
 986 0526 01F4      		brne .+2
 987 0528 00C0      		rjmp .L111
 988               	.L161:
 989 052a 8035      		cpi r24,lo8(80)
 990 052c 00F0      		brlo .+2
 991 052e 00C0      		rjmp .L114
 992 0530 8334      		cpi r24,lo8(67)
 993 0532 01F4      		brne .+2
 994 0534 00C0      		rjmp .L109
 995 0536 8434      		cpi r24,lo8(68)
 996 0538 01F4      		brne .+2
 997 053a 00C0      		rjmp .L110
 998 053c 8234      		cpi r24,lo8(66)
 999 053e 01F0      		breq .L157
 1000               	.L107:
 1001               	.LM91:
 1002 0540 8A2D      		mov r24,r10
 1003               	.LVL121:
 1004               	.L153:
 1005 0542 0E94 0000 		call xputc
 1006               	.LVL122:
 1007 0546 1A8B      		std Y+18,r17
 1008 0548 098B      		std Y+17,r16
 1009               	.LVL123:
 1010               	.L96:
 1011               	.LM92:
 1012 054a 0989      		ldd r16,Y+17
 1013 054c 1A89      		ldd r17,Y+18
 1014               	.LBB6:
 1015               	.LM93:
 1016 054e F101      		movw r30,r2
 1017               	/* #APP */
 1018               	 ;  282 "xprintf.c" 1
 1019 0550 8491      		lpm r24, Z
 1020               		
 1021               	 ;  0 "" 2
 1022               	.LVL124:
 1023               	/* #NOAPP */
 1024               	.LBE6:
 1025               	.LM94:
 1026 0552 8823      		tst r24
 1027 0554 01F0      		breq .+2
 1028 0556 00C0      		rjmp .L158
 1029               	.LVL125:
 1030               	.L140:
 1031               	/* epilogue start */
 1032               	.LM95:
 1033 0558 6496      		adiw r28,20
 1034 055a 0FB6      		in __tmp_reg__,__SREG__
 1035 055c F894      		cli
 1036 055e DEBF      		out __SP_H__,r29
 1037 0560 0FBE      		out __SREG__,__tmp_reg__
 1038 0562 CDBF      		out __SP_L__,r28
 1039 0564 CF91      		pop r28
 1040 0566 DF91      		pop r29
 1041 0568 1F91      		pop r17
 1042 056a 0F91      		pop r16
 1043               	.LVL126:
 1044 056c FF90      		pop r15
 1045               	.LVL127:
 1046 056e EF90      		pop r14
 1047               	.LVL128:
 1048 0570 DF90      		pop r13
 1049 0572 CF90      		pop r12
 1050               	.LVL129:
 1051 0574 BF90      		pop r11
 1052 0576 AF90      		pop r10
 1053               	.LVL130:
 1054 0578 9F90      		pop r9
 1055 057a 8F90      		pop r8
 1056 057c 7F90      		pop r7
 1057 057e 6F90      		pop r6
 1058 0580 5F90      		pop r5
 1059 0582 4F90      		pop r4
 1060 0584 3F90      		pop r3
 1061 0586 2F90      		pop r2
 1062               	.LVL131:
 1063 0588 0895      		ret
 1064               	.LVL132:
 1065               	.L157:
 1066               	.LM96:
 1067 058a A2E0      		ldi r26,lo8(2)
 1068 058c 4A2E      		mov r4,r26
 1069 058e 512C      		mov r5,__zero_reg__
 1070 0590 612C      		mov r6,__zero_reg__
 1071 0592 712C      		mov r7,__zero_reg__
 1072               	.L115:
 1073               	.LM97:
 1074 0594 FB89      		ldd r31,Y+19
 1075 0596 F2FF      		sbrs r31,2
 1076 0598 00C0      		rjmp .L123
 1077               	.LVL133:
 1078               	.L162:
 1079 059a 9801      		movw r18,r16
 1080 059c 2C5F      		subi r18,lo8(-(4))
 1081 059e 3F4F      		sbci r19,hi8(-(4))
 1082 05a0 3A8B      		std Y+18,r19
 1083 05a2 298B      		std Y+17,r18
 1084               	.LVL134:
 1085 05a4 F801      		movw r30,r16
 1086               	.LVL135:
 1087 05a6 E080      		ld r14,Z
 1088 05a8 F180      		ldd r15,Z+1
 1089 05aa 0281      		ldd r16,Z+2
 1090 05ac 1381      		ldd r17,Z+3
 1091               	.LVL136:
 1092               	.LM98:
 1093 05ae 8434      		cpi r24,lo8(68)
 1094 05b0 01F4      		brne .+2
 1095 05b2 00C0      		rjmp .L124
 1096               	.LVL137:
 1097               	.L125:
 1098               	.LM99:
 1099 05b4 8824      		clr r8
 1100 05b6 9924      		clr r9
 1101               	.LVL138:
 1102               	.L131:
 1103               	.LM100:
 1104 05b8 C801      		movw r24,r16
 1105 05ba B701      		movw r22,r14
 1106 05bc A301      		movw r20,r6
 1107 05be 9201      		movw r18,r4
 1108 05c0 0E94 0000 		call __udivmodsi4
 1109 05c4 B62E      		mov r11,r22
 1110               	.LVL139:
 1111 05c6 C801      		movw r24,r16
 1112 05c8 B701      		movw r22,r14
 1113 05ca A301      		movw r20,r6
 1114 05cc 9201      		movw r18,r4
 1115 05ce 0E94 0000 		call __udivmodsi4
 1116 05d2 C901      		movw r24,r18
 1117 05d4 DA01      		movw r26,r20
 1118 05d6 7C01      		movw r14,r24
 1119 05d8 8D01      		movw r16,r26
 1120               	.LM101:
 1121 05da 39E0      		ldi r19,lo8(9)
 1122 05dc 3B15      		cp r19,r11
 1123 05de 00F4      		brsh .L127
 1124 05e0 E8E7      		ldi r30,lo8(120)
 1125 05e2 AE16      		cp r10,r30
 1126 05e4 01F4      		brne .+2
 1127 05e6 00C0      		rjmp .L128
 1128 05e8 27E0      		ldi r18,lo8(7)
 1129               	.L129:
 1130 05ea B20E      		add r11,r18
 1131               	.L127:
 1132               	.LM102:
 1133 05ec E1E0      		ldi r30,lo8(1)
 1134 05ee F0E0      		ldi r31,hi8(1)
 1135 05f0 EC0F      		add r30,r28
 1136 05f2 FD1F      		adc r31,r29
 1137 05f4 E80D      		add r30,r8
 1138 05f6 F91D      		adc r31,r9
 1139 05f8 20E3      		ldi r18,lo8(48)
 1140 05fa B20E      		add r11,r18
 1141 05fc B082      		st Z,r11
 1142 05fe 0894      		sec
 1143 0600 811C      		adc r8,__zero_reg__
 1144 0602 911C      		adc r9,__zero_reg__
 1145               	.LM103:
 1146 0604 0097      		sbiw r24,0
 1147 0606 A105      		cpc r26,__zero_reg__
 1148 0608 B105      		cpc r27,__zero_reg__
 1149 060a 01F0      		breq .L130
 1150               	.LVL140:
 1151 060c 30E1      		ldi r19,lo8(16)
 1152 060e 8316      		cp r8,r19
 1153 0610 9104      		cpc r9,__zero_reg__
 1154 0612 01F4      		brne .L131
 1155               	.L130:
 1156               	.LM104:
 1157 0614 8B89      		ldd r24,Y+19
 1158               	.LVL141:
 1159 0616 83FF      		sbrs r24,3
 1160 0618 00C0      		rjmp .L132
 1161               	.LVL142:
 1162 061a E1E0      		ldi r30,lo8(1)
 1163 061c F0E0      		ldi r31,hi8(1)
 1164 061e EC0F      		add r30,r28
 1165 0620 FD1F      		adc r31,r29
 1166 0622 E80D      		add r30,r8
 1167 0624 F91D      		adc r31,r9
 1168 0626 9DE2      		ldi r25,lo8(45)
 1169 0628 9083      		st Z,r25
 1170 062a 0894      		sec
 1171 062c 811C      		adc r8,__zero_reg__
 1172 062e 911C      		adc r9,__zero_reg__
 1173               	.L132:
 1174               	.LM105:
 1175 0630 EB89      		ldd r30,Y+19
 1176 0632 E0FD      		sbrc r30,0
 1177 0634 00C0      		rjmp .L133
 1178 0636 F0E2      		ldi r31,lo8(32)
 1179 0638 FF2E      		mov r15,r31
 1180               	.LVL143:
 1181               	.LM106:
 1182 063a FB89      		ldd r31,Y+19
 1183 063c F1FD      		sbrc r31,1
 1184 063e 00C0      		rjmp .L159
 1185               	.L135:
 1186 0640 5401      		movw r10,r8
 1187               	.LVL144:
 1188 0642 0894      		sec
 1189 0644 A11C      		adc r10,__zero_reg__
 1190 0646 B11C      		adc r11,__zero_reg__
 1191 0648 8C14      		cp r8,r12
 1192 064a 9D04      		cpc r9,r13
 1193 064c 00F4      		brsh .L136
 1194 064e 8401      		movw r16,r8
 1195               	.LVL145:
 1196               	.L137:
 1197 0650 8F2D      		mov r24,r15
 1198 0652 0E94 0000 		call xputc
 1199 0656 0F5F      		subi r16,lo8(-(1))
 1200 0658 1F4F      		sbci r17,hi8(-(1))
 1201 065a 0C15      		cp r16,r12
 1202 065c 1D05      		cpc r17,r13
 1203 065e 00F0      		brlo .L137
 1204 0660 C601      		movw r24,r12
 1205 0662 8819      		sub r24,r8
 1206 0664 9909      		sbc r25,r9
 1207 0666 A80E      		add r10,r24
 1208 0668 B91E      		adc r11,r25
 1209               	.LVL146:
 1210               	.L136:
 1211 066a 7401      		movw r14,r8
 1212               	.LVL147:
 1213 066c 0894      		sec
 1214 066e E108      		sbc r14,__zero_reg__
 1215 0670 F108      		sbc r15,__zero_reg__
 1216               	.LVL148:
 1217 0672 01E0      		ldi r16,lo8(1)
 1218 0674 10E0      		ldi r17,hi8(1)
 1219               	.LVL149:
 1220 0676 0C0F      		add r16,r28
 1221 0678 1D1F      		adc r17,r29
 1222 067a 0E0D      		add r16,r14
 1223 067c 1F1D      		adc r17,r15
 1224 067e 00C0      		rjmp .L138
 1225               	.L160:
 1226 0680 0894      		sec
 1227 0682 E108      		sbc r14,__zero_reg__
 1228 0684 F108      		sbc r15,__zero_reg__
 1229               	.L138:
 1230               	.LM107:
 1231 0686 F801      		movw r30,r16
 1232 0688 8081      		ld r24,Z
 1233 068a 0E94 0000 		call xputc
 1234 068e 0150      		subi r16,lo8(-(-1))
 1235 0690 1040      		sbci r17,hi8(-(-1))
 1236 0692 E114      		cp r14,__zero_reg__
 1237 0694 F104      		cpc r15,__zero_reg__
 1238 0696 01F4      		brne .L160
 1239               	.LM108:
 1240 0698 AC14      		cp r10,r12
 1241 069a BD04      		cpc r11,r13
 1242 069c 00F0      		brlo .+2
 1243 069e 00C0      		rjmp .L96
 1244               	.L142:
 1245 06a0 80E2      		ldi r24,lo8(32)
 1246 06a2 0E94 0000 		call xputc
 1247 06a6 0894      		sec
 1248 06a8 A11C      		adc r10,__zero_reg__
 1249 06aa B11C      		adc r11,__zero_reg__
 1250 06ac AC14      		cp r10,r12
 1251 06ae BD04      		cpc r11,r13
 1252 06b0 00F0      		brlo .L142
 1253 06b2 00C0      		rjmp .L96
 1254               	.LVL150:
 1255               	.L128:
 1256               	.LM109:
 1257 06b4 27E2      		ldi r18,lo8(39)
 1258 06b6 00C0      		rjmp .L129
 1259               	.LVL151:
 1260               	.L103:
 1261               	.LM110:
 1262 06b8 EB89      		ldd r30,Y+19
 1263 06ba FC89      		ldd r31,Y+20
 1264               	.LVL152:
 1265 06bc E460      		ori r30,lo8(4)
 1266 06be FC8B      		std Y+20,r31
 1267 06c0 EB8B      		std Y+19,r30
 1268               	.LVL153:
 1269               	.LBB7:
 1270 06c2 1901      		movw r2,r18
 1271 06c4 0894      		sec
 1272 06c6 211C      		adc r2,__zero_reg__
 1273 06c8 311C      		adc r3,__zero_reg__
 1274 06ca F901      		movw r30,r18
 1275               	/* #APP */
 1276               	 ;  299 "xprintf.c" 1
 1277 06cc A490      		lpm r10, Z
 1278               		
 1279               	 ;  0 "" 2
 1280               	.LVL154:
 1281               	/* #NOAPP */
 1282 06ce 00C0      		rjmp .L104
 1283               	.LVL155:
 1284               	.L105:
 1285               	.LBE7:
 1286               	.LM111:
 1287 06d0 8A2D      		mov r24,r10
 1288               	.LVL156:
 1289 06d2 8052      		subi r24,lo8(-(-32))
 1290               	.LM112:
 1291 06d4 8F34      		cpi r24,lo8(79)
 1292 06d6 01F0      		breq .+2
 1293 06d8 00C0      		rjmp .L161
 1294               	.L111:
 1295 06da 28E0      		ldi r18,lo8(8)
 1296 06dc 422E      		mov r4,r18
 1297 06de 512C      		mov r5,__zero_reg__
 1298 06e0 612C      		mov r6,__zero_reg__
 1299 06e2 712C      		mov r7,__zero_reg__
 1300               	.LM113:
 1301 06e4 FB89      		ldd r31,Y+19
 1302 06e6 F2FD      		sbrc r31,2
 1303 06e8 00C0      		rjmp .L162
 1304               	.LVL157:
 1305               	.L123:
 1306 06ea 8434      		cpi r24,lo8(68)
 1307 06ec 01F4      		brne .+2
 1308 06ee 00C0      		rjmp .L163
 1309 06f0 9801      		movw r18,r16
 1310 06f2 2E5F      		subi r18,lo8(-(2))
 1311 06f4 3F4F      		sbci r19,hi8(-(2))
 1312 06f6 3A8B      		std Y+18,r19
 1313 06f8 298B      		std Y+17,r18
 1314               	.LVL158:
 1315 06fa F801      		movw r30,r16
 1316               	.LVL159:
 1317 06fc 8081      		ld r24,Z
 1318 06fe 9181      		ldd r25,Z+1
 1319               	.LVL160:
 1320 0700 7C01      		movw r14,r24
 1321               	.LVL161:
 1322 0702 00E0      		ldi r16,lo8(0)
 1323 0704 10E0      		ldi r17,hi8(0)
 1324               	.LVL162:
 1325 0706 00C0      		rjmp .L125
 1326               	.LVL163:
 1327               	.L114:
 1328               	.LM114:
 1329 0708 8535      		cpi r24,lo8(85)
 1330 070a 01F4      		brne .+2
 1331 070c 00C0      		rjmp .L110
 1332 070e 8835      		cpi r24,lo8(88)
 1333 0710 01F4      		brne .+2
 1334 0712 00C0      		rjmp .L113
 1335 0714 8335      		cpi r24,lo8(83)
 1336 0716 01F0      		breq .+2
 1337 0718 00C0      		rjmp .L107
 1338               	.LM115:
 1339 071a 9801      		movw r18,r16
 1340 071c 2E5F      		subi r18,lo8(-(2))
 1341 071e 3F4F      		sbci r19,hi8(-(2))
 1342 0720 3A8B      		std Y+18,r19
 1343 0722 298B      		std Y+17,r18
 1344               	.LVL164:
 1345 0724 F801      		movw r30,r16
 1346               	.LVL165:
 1347 0726 A080      		ld r10,Z
 1348 0728 B180      		ldd r11,Z+1
 1349               	.LVL166:
 1350               	.LM116:
 1351 072a F501      		movw r30,r10
 1352 072c 8081      		ld r24,Z
 1353               	.LVL167:
 1354 072e 8823      		tst r24
 1355 0730 01F4      		brne .+2
 1356 0732 00C0      		rjmp .L164
 1357               	.LVL168:
 1358 0734 20E0      		ldi r18,lo8(0)
 1359 0736 30E0      		ldi r19,hi8(0)
 1360               	.LVL169:
 1361               	.L118:
 1362 0738 2F5F      		subi r18,lo8(-(1))
 1363 073a 3F4F      		sbci r19,hi8(-(1))
 1364 073c F501      		movw r30,r10
 1365 073e E20F      		add r30,r18
 1366 0740 F31F      		adc r31,r19
 1367 0742 8081      		ld r24,Z
 1368 0744 8823      		tst r24
 1369 0746 01F4      		brne .L118
 1370 0748 8901      		movw r16,r18
 1371               	.LVL170:
 1372 074a 0F5F      		subi r16,lo8(-(1))
 1373 074c 1F4F      		sbci r17,hi8(-(1))
 1374               	.LVL171:
 1375               	.L117:
 1376               	.LM117:
 1377 074e FB89      		ldd r31,Y+19
 1378 0750 F1FD      		sbrc r31,1
 1379 0752 00C0      		rjmp .L165
 1380               	.LVL172:
 1381 0754 2C15      		cp r18,r12
 1382 0756 3D05      		cpc r19,r13
 1383 0758 00F4      		brsh .L154
 1384               	.L144:
 1385 075a 80E2      		ldi r24,lo8(32)
 1386 075c 0E94 0000 		call xputc
 1387               	.LVL173:
 1388 0760 0F5F      		subi r16,lo8(-(1))
 1389 0762 1F4F      		sbci r17,hi8(-(1))
 1390 0764 C801      		movw r24,r16
 1391 0766 0197      		sbiw r24,1
 1392 0768 8C15      		cp r24,r12
 1393 076a 9D05      		cpc r25,r13
 1394 076c 00F0      		brlo .L144
 1395               	.LVL174:
 1396               	.L154:
 1397 076e 7801      		movw r14,r16
 1398               	.LVL175:
 1399 0770 0894      		sec
 1400 0772 E11C      		adc r14,__zero_reg__
 1401 0774 F11C      		adc r15,__zero_reg__
 1402               	.LVL176:
 1403               	.L120:
 1404               	.LM118:
 1405 0776 C501      		movw r24,r10
 1406 0778 0E94 0000 		call xputs
 1407               	.LVL177:
 1408               	.LM119:
 1409 077c 0C15      		cp r16,r12
 1410 077e 1D05      		cpc r17,r13
 1411 0780 00F0      		brlo .+2
 1412 0782 00C0      		rjmp .L96
 1413               	.LVL178:
 1414               	.L143:
 1415 0784 80E2      		ldi r24,lo8(32)
 1416 0786 0E94 0000 		call xputc
 1417 078a 0894      		sec
 1418 078c E11C      		adc r14,__zero_reg__
 1419 078e F11C      		adc r15,__zero_reg__
 1420               	.LVL179:
 1421 0790 C701      		movw r24,r14
 1422 0792 0197      		sbiw r24,1
 1423 0794 8C15      		cp r24,r12
 1424 0796 9D05      		cpc r25,r13
 1425 0798 00F0      		brlo .L143
 1426 079a 00C0      		rjmp .L96
 1427               	.LVL180:
 1428               	.L155:
 1429               	.LBB8:
 1430               	.LM120:
 1431 079c F901      		movw r30,r18
 1432               	.LVL181:
 1433 079e 2F5F      		subi r18,lo8(-(1))
 1434 07a0 3F4F      		sbci r19,hi8(-(1))
 1435               	.LVL182:
 1436               	/* #APP */
 1437               	 ;  290 "xprintf.c" 1
 1438 07a2 4491      		lpm r20, Z
 1439               		
 1440               	 ;  0 "" 2
 1441               	.LVL183:
 1442               	/* #NOAPP */
 1443 07a4 81E0      		ldi r24,lo8(1)
 1444 07a6 90E0      		ldi r25,hi8(1)
 1445               	.LVL184:
 1446 07a8 9C8B      		std Y+20,r25
 1447 07aa 8B8B      		std Y+19,r24
 1448               	.LVL185:
 1449               	.LBE8:
 1450               	.LM121:
 1451 07ac 842F      		mov r24,r20
 1452 07ae 8053      		subi r24,lo8(-(-48))
 1453 07b0 8A30      		cpi r24,lo8(10)
 1454 07b2 00F4      		brsh .+2
 1455 07b4 00C0      		rjmp .L100
 1456               	.LVL186:
 1457               	.L156:
 1458 07b6 1901      		movw r2,r18
 1459 07b8 A42E      		mov r10,r20
 1460               	.LVL187:
 1461 07ba CC24      		clr r12
 1462 07bc DD24      		clr r13
 1463 07be 00C0      		rjmp .L101
 1464               	.LVL188:
 1465               	.L133:
 1466               	.LM122:
 1467 07c0 E0E3      		ldi r30,lo8(48)
 1468 07c2 FE2E      		mov r15,r30
 1469               	.LVL189:
 1470               	.LM123:
 1471 07c4 FB89      		ldd r31,Y+19
 1472 07c6 F1FF      		sbrs r31,1
 1473 07c8 00C0      		rjmp .L135
 1474               	.L159:
 1475 07ca 5401      		movw r10,r8
 1476               	.LVL190:
 1477 07cc 00C0      		rjmp .L136
 1478               	.LVL191:
 1479               	.L99:
 1480               	.LBB9:
 1481               	.LM124:
 1482 07ce F901      		movw r30,r18
 1483               	.LVL192:
 1484 07d0 2F5F      		subi r18,lo8(-(1))
 1485 07d2 3F4F      		sbci r19,hi8(-(1))
 1486               	.LVL193:
 1487               	/* #APP */
 1488               	 ;  293 "xprintf.c" 1
 1489 07d4 4491      		lpm r20, Z
 1490               		
 1491               	 ;  0 "" 2
 1492               	.LVL194:
 1493               	/* #NOAPP */
 1494 07d6 E2E0      		ldi r30,lo8(2)
 1495 07d8 F0E0      		ldi r31,hi8(2)
 1496               	.LVL195:
 1497 07da FC8B      		std Y+20,r31
 1498 07dc EB8B      		std Y+19,r30
 1499               	.LVL196:
 1500 07de 00C0      		rjmp .L98
 1501               	.LVL197:
 1502               	.L163:
 1503               	.LBE9:
 1504               	.LM125:
 1505 07e0 9801      		movw r18,r16
 1506 07e2 2E5F      		subi r18,lo8(-(2))
 1507 07e4 3F4F      		sbci r19,hi8(-(2))
 1508 07e6 3A8B      		std Y+18,r19
 1509 07e8 298B      		std Y+17,r18
 1510               	.LVL198:
 1511 07ea F801      		movw r30,r16
 1512               	.LVL199:
 1513 07ec 8081      		ld r24,Z
 1514 07ee 9181      		ldd r25,Z+1
 1515               	.LVL200:
 1516 07f0 7C01      		movw r14,r24
 1517 07f2 0027      		clr r16
 1518 07f4 F7FC      		sbrc r15,7
 1519 07f6 0095      		com r16
 1520 07f8 102F      		mov r17,r16
 1521               	.LVL201:
 1522               	.L124:
 1523               	.LM126:
 1524 07fa 17FF      		sbrs r17,7
 1525 07fc 00C0      		rjmp .L125
 1526               	.LM127:
 1527 07fe 1095      		com r17
 1528 0800 0095      		com r16
 1529 0802 F094      		com r15
 1530 0804 E094      		com r14
 1531 0806 E11C      		adc r14,__zero_reg__
 1532 0808 F11C      		adc r15,__zero_reg__
 1533 080a 011D      		adc r16,__zero_reg__
 1534 080c 111D      		adc r17,__zero_reg__
 1535               	.LM128:
 1536 080e 2B89      		ldd r18,Y+19
 1537 0810 3C89      		ldd r19,Y+20
 1538 0812 2860      		ori r18,lo8(8)
 1539 0814 3C8B      		std Y+20,r19
 1540 0816 2B8B      		std Y+19,r18
 1541               	.LVL202:
 1542 0818 00C0      		rjmp .L125
 1543               	.LVL203:
 1544               	.L113:
 1545               	.LM129:
 1546 081a B0E1      		ldi r27,lo8(16)
 1547 081c 4B2E      		mov r4,r27
 1548 081e 512C      		mov r5,__zero_reg__
 1549 0820 612C      		mov r6,__zero_reg__
 1550 0822 712C      		mov r7,__zero_reg__
 1551 0824 00C0      		rjmp .L115
 1552               	.L110:
 1553               	.LM130:
 1554 0826 9AE0      		ldi r25,lo8(10)
 1555 0828 492E      		mov r4,r25
 1556 082a 512C      		mov r5,__zero_reg__
 1557 082c 612C      		mov r6,__zero_reg__
 1558 082e 712C      		mov r7,__zero_reg__
 1559 0830 00C0      		rjmp .L115
 1560               	.L109:
 1561               	.LM131:
 1562 0832 9801      		movw r18,r16
 1563 0834 2E5F      		subi r18,lo8(-(2))
 1564 0836 3F4F      		sbci r19,hi8(-(2))
 1565 0838 3A8B      		std Y+18,r19
 1566 083a 298B      		std Y+17,r18
 1567               	.LVL204:
 1568 083c F801      		movw r30,r16
 1569               	.LVL205:
 1570 083e 8081      		ld r24,Z
 1571               	.LVL206:
 1572 0840 0E94 0000 		call xputc
 1573 0844 00C0      		rjmp .L96
 1574               	.LVL207:
 1575               	.L164:
 1576               	.LM132:
 1577 0846 20E0      		ldi r18,lo8(0)
 1578 0848 30E0      		ldi r19,hi8(0)
 1579               	.LVL208:
 1580 084a 01E0      		ldi r16,lo8(1)
 1581 084c 10E0      		ldi r17,hi8(1)
 1582               	.LVL209:
 1583 084e 00C0      		rjmp .L117
 1584               	.LVL210:
 1585               	.L165:
 1586               	.LM133:
 1587 0850 7801      		movw r14,r16
 1588               	.LVL211:
 1589 0852 8901      		movw r16,r18
 1590 0854 00C0      		rjmp .L120
 1591               	.LFE10:
 1593               	.global	xfprintf_P
 1595               	xfprintf_P:
 1596               	.LFB13:
 1597               	.LM134:
 1598               	.LVL212:
 1599 0856 0F93      		push r16
 1600 0858 1F93      		push r17
 1601 085a DF93      		push r29
 1602 085c CF93      		push r28
 1603 085e CDB7      		in r28,__SP_L__
 1604 0860 DEB7      		in r29,__SP_H__
 1605               	/* prologue: function */
 1606               	/* frame size = 0 */
 1607               	.LM135:
 1608 0862 0091 0000 		lds r16,xfunc_out
 1609 0866 1091 0000 		lds r17,(xfunc_out)+1
 1610               	.LVL213:
 1611               	.LM136:
 1612 086a 8F81      		ldd r24,Y+7
 1613 086c 9885      		ldd r25,Y+8
 1614 086e 9093 0000 		sts (xfunc_out)+1,r25
 1615 0872 8093 0000 		sts xfunc_out,r24
 1616               	.LM137:
 1617 0876 9E01      		movw r18,r28
 1618 0878 255F      		subi r18,lo8(-(11))
 1619 087a 3F4F      		sbci r19,hi8(-(11))
 1620               	.LM138:
 1621 087c 8985      		ldd r24,Y+9
 1622 087e 9A85      		ldd r25,Y+10
 1623 0880 B901      		movw r22,r18
 1624 0882 0E94 0000 		call xvprintf_P
 1625               	.LM139:
 1626 0886 1093 0000 		sts (xfunc_out)+1,r17
 1627 088a 0093 0000 		sts xfunc_out,r16
 1628               	/* epilogue start */
 1629               	.LM140:
 1630 088e CF91      		pop r28
 1631 0890 DF91      		pop r29
 1632 0892 1F91      		pop r17
 1633 0894 0F91      		pop r16
 1634               	.LVL214:
 1635 0896 0895      		ret
 1636               	.LFE13:
 1638               	.global	xsprintf_P
 1640               	xsprintf_P:
 1641               	.LFB12:
 1642               	.LM141:
 1643               	.LVL215:
 1644 0898 DF93      		push r29
 1645 089a CF93      		push r28
 1646 089c CDB7      		in r28,__SP_L__
 1647 089e DEB7      		in r29,__SP_H__
 1648               	/* prologue: function */
 1649               	/* frame size = 0 */
 1650               	.LM142:
 1651 08a0 8D81      		ldd r24,Y+5
 1652 08a2 9E81      		ldd r25,Y+6
 1653 08a4 9093 0000 		sts (outptr)+1,r25
 1654 08a8 8093 0000 		sts outptr,r24
 1655               	.LM143:
 1656 08ac 9E01      		movw r18,r28
 1657 08ae 275F      		subi r18,lo8(-(9))
 1658 08b0 3F4F      		sbci r19,hi8(-(9))
 1659               	.LM144:
 1660 08b2 8F81      		ldd r24,Y+7
 1661 08b4 9885      		ldd r25,Y+8
 1662 08b6 B901      		movw r22,r18
 1663 08b8 0E94 0000 		call xvprintf_P
 1664               	.LM145:
 1665 08bc E091 0000 		lds r30,outptr
 1666 08c0 F091 0000 		lds r31,(outptr)+1
 1667 08c4 1082      		st Z,__zero_reg__
 1668               	.LM146:
 1669 08c6 1092 0000 		sts (outptr)+1,__zero_reg__
 1670 08ca 1092 0000 		sts outptr,__zero_reg__
 1671               	/* epilogue start */
 1672               	.LM147:
 1673 08ce CF91      		pop r28
 1674 08d0 DF91      		pop r29
 1675 08d2 0895      		ret
 1676               	.LFE12:
 1678               	.global	xprintf_P
 1680               	xprintf_P:
 1681               	.LFB11:
 1682               	.LM148:
 1683               	.LVL216:
 1684 08d4 DF93      		push r29
 1685 08d6 CF93      		push r28
 1686 08d8 CDB7      		in r28,__SP_L__
 1687 08da DEB7      		in r29,__SP_H__
 1688               	/* prologue: function */
 1689               	/* frame size = 0 */
 1690 08dc FE01      		movw r30,r28
 1691 08de 3596      		adiw r30,5
 1692               	.LM149:
 1693 08e0 8191      		ld r24,Z+
 1694 08e2 9191      		ld r25,Z+
 1695 08e4 BF01      		movw r22,r30
 1696 08e6 0E94 0000 		call xvprintf_P
 1697               	/* epilogue start */
 1698               	.LM150:
 1699 08ea CF91      		pop r28
 1700 08ec DF91      		pop r29
 1701 08ee 0895      		ret
 1702               	.LFE11:
 1704               	.global	xfprintf
 1706               	xfprintf:
 1707               	.LFB8:
 1708               	.LM151:
 1709               	.LVL217:
 1710 08f0 0F93      		push r16
 1711 08f2 1F93      		push r17
 1712 08f4 DF93      		push r29
 1713 08f6 CF93      		push r28
 1714 08f8 CDB7      		in r28,__SP_L__
 1715 08fa DEB7      		in r29,__SP_H__
 1716               	/* prologue: function */
 1717               	/* frame size = 0 */
 1718               	.LM152:
 1719 08fc 0091 0000 		lds r16,xfunc_out
 1720 0900 1091 0000 		lds r17,(xfunc_out)+1
 1721               	.LVL218:
 1722               	.LM153:
 1723 0904 8F81      		ldd r24,Y+7
 1724 0906 9885      		ldd r25,Y+8
 1725 0908 9093 0000 		sts (xfunc_out)+1,r25
 1726 090c 8093 0000 		sts xfunc_out,r24
 1727               	.LM154:
 1728 0910 9E01      		movw r18,r28
 1729 0912 255F      		subi r18,lo8(-(11))
 1730 0914 3F4F      		sbci r19,hi8(-(11))
 1731               	.LM155:
 1732 0916 8985      		ldd r24,Y+9
 1733 0918 9A85      		ldd r25,Y+10
 1734 091a B901      		movw r22,r18
 1735 091c 0E94 0000 		call xvprintf
 1736               	.LM156:
 1737 0920 1093 0000 		sts (xfunc_out)+1,r17
 1738 0924 0093 0000 		sts xfunc_out,r16
 1739               	/* epilogue start */
 1740               	.LM157:
 1741 0928 CF91      		pop r28
 1742 092a DF91      		pop r29
 1743 092c 1F91      		pop r17
 1744 092e 0F91      		pop r16
 1745               	.LVL219:
 1746 0930 0895      		ret
 1747               	.LFE8:
 1749               	.global	xsprintf
 1751               	xsprintf:
 1752               	.LFB7:
 1753               	.LM158:
 1754               	.LVL220:
 1755 0932 DF93      		push r29
 1756 0934 CF93      		push r28
 1757 0936 CDB7      		in r28,__SP_L__
 1758 0938 DEB7      		in r29,__SP_H__
 1759               	/* prologue: function */
 1760               	/* frame size = 0 */
 1761               	.LM159:
 1762 093a 8D81      		ldd r24,Y+5
 1763 093c 9E81      		ldd r25,Y+6
 1764 093e 9093 0000 		sts (outptr)+1,r25
 1765 0942 8093 0000 		sts outptr,r24
 1766               	.LM160:
 1767 0946 9E01      		movw r18,r28
 1768 0948 275F      		subi r18,lo8(-(9))
 1769 094a 3F4F      		sbci r19,hi8(-(9))
 1770               	.LM161:
 1771 094c 8F81      		ldd r24,Y+7
 1772 094e 9885      		ldd r25,Y+8
 1773 0950 B901      		movw r22,r18
 1774 0952 0E94 0000 		call xvprintf
 1775               	.LM162:
 1776 0956 E091 0000 		lds r30,outptr
 1777 095a F091 0000 		lds r31,(outptr)+1
 1778 095e 1082      		st Z,__zero_reg__
 1779               	.LM163:
 1780 0960 1092 0000 		sts (outptr)+1,__zero_reg__
 1781 0964 1092 0000 		sts outptr,__zero_reg__
 1782               	/* epilogue start */
 1783               	.LM164:
 1784 0968 CF91      		pop r28
 1785 096a DF91      		pop r29
 1786 096c 0895      		ret
 1787               	.LFE7:
 1789               	.global	xprintf
 1791               	xprintf:
 1792               	.LFB6:
 1793               	.LM165:
 1794               	.LVL221:
 1795 096e DF93      		push r29
 1796 0970 CF93      		push r28
 1797 0972 CDB7      		in r28,__SP_L__
 1798 0974 DEB7      		in r29,__SP_H__
 1799               	/* prologue: function */
 1800               	/* frame size = 0 */
 1801 0976 FE01      		movw r30,r28
 1802 0978 3596      		adiw r30,5
 1803               	.LM166:
 1804 097a 8191      		ld r24,Z+
 1805 097c 9191      		ld r25,Z+
 1806 097e BF01      		movw r22,r30
 1807 0980 0E94 0000 		call xvprintf
 1808               	/* epilogue start */
 1809               	.LM167:
 1810 0984 CF91      		pop r28
 1811 0986 DF91      		pop r29
 1812 0988 0895      		ret
 1813               	.LFE6:
 1815               		.data
 1816               	.LC0:
 1817 0000 2530 386C 		.string	"%08lX "
 1817      5820 00
 1818               	.LC1:
 1819 0007 2025 3032 		.string	" %02X"
 1819      5800 
 1820               	.LC2:
 1821 000d 2025 3034 		.string	" %04X"
 1821      5800 
 1822               	.LC3:
 1823 0013 2025 3038 		.string	" %08LX"
 1823      4C58 00
 1824               		.text
 1825               	.global	put_dump
 1827               	put_dump:
 1828               	.LFB9:
 1829               	.LM168:
 1830 098a CF92      		push r12
 1831 098c DF92      		push r13
 1832 098e EF92      		push r14
 1833 0990 FF92      		push r15
 1834 0992 0F93      		push r16
 1835 0994 1F93      		push r17
 1836 0996 CF93      		push r28
 1837 0998 DF93      		push r29
 1838               	/* prologue: function */
 1839               	/* frame size = 0 */
 1840 099a 6C01      		movw r12,r24
 1841 099c 7901      		movw r14,r18
 1842               	.LM169:
 1843 099e 00D0      		rcall .
 1844 09a0 00D0      		rcall .
 1845 09a2 00D0      		rcall .
 1846 09a4 80E0      		ldi r24,lo8(.LC0)
 1847 09a6 90E0      		ldi r25,hi8(.LC0)
 1848 09a8 ADB7      		in r26,__SP_L__
 1849 09aa BEB7      		in r27,__SP_H__
 1850 09ac 1296      		adiw r26,1+1
 1851 09ae 9C93      		st X,r25
 1852 09b0 8E93      		st -X,r24
 1853 09b2 1197      		sbiw r26,1
 1854 09b4 EDB7      		in r30,__SP_L__
 1855 09b6 FEB7      		in r31,__SP_H__
 1856 09b8 4383      		std Z+3,r20
 1857 09ba 5483      		std Z+4,r21
 1858 09bc 6583      		std Z+5,r22
 1859 09be 7683      		std Z+6,r23
 1860 09c0 0E94 0000 		call xprintf
 1861               	.LM170:
 1862 09c4 8DB7      		in r24,__SP_L__
 1863 09c6 9EB7      		in r25,__SP_H__
 1864 09c8 0696      		adiw r24,6
 1865 09ca 0FB6      		in __tmp_reg__,__SREG__
 1866 09cc F894      		cli
 1867 09ce 9EBF      		out __SP_H__,r25
 1868 09d0 0FBE      		out __SREG__,__tmp_reg__
 1869 09d2 8DBF      		out __SP_L__,r24
 1870 09d4 0230      		cpi r16,2
 1871 09d6 1105      		cpc r17,__zero_reg__
 1872 09d8 01F4      		brne .+2
 1873 09da 00C0      		rjmp .L181
 1874 09dc 0430      		cpi r16,4
 1875 09de 1105      		cpc r17,__zero_reg__
 1876 09e0 01F4      		brne .+2
 1877 09e2 00C0      		rjmp .L182
 1878 09e4 0130      		cpi r16,1
 1879 09e6 1105      		cpc r17,__zero_reg__
 1880 09e8 01F0      		breq .L194
 1881               	.L179:
 1882               	.LM171:
 1883 09ea 8AE0      		ldi r24,lo8(10)
 1884 09ec 0E94 0000 		call xputc
 1885               	/* epilogue start */
 1886               	.LM172:
 1887 09f0 DF91      		pop r29
 1888 09f2 CF91      		pop r28
 1889 09f4 1F91      		pop r17
 1890 09f6 0F91      		pop r16
 1891 09f8 FF90      		pop r15
 1892 09fa EF90      		pop r14
 1893 09fc DF90      		pop r13
 1894 09fe CF90      		pop r12
 1895 0a00 0895      		ret
 1896               	.L194:
 1897               	.LM173:
 1898 0a02 1E14      		cp __zero_reg__,r14
 1899 0a04 1F04      		cpc __zero_reg__,r15
 1900 0a06 04F0      		brlt .+2
 1901 0a08 00C0      		rjmp .L183
 1902 0a0a C0E0      		ldi r28,lo8(0)
 1903 0a0c D0E0      		ldi r29,hi8(0)
 1904 0a0e 00E0      		ldi r16,lo8(.LC1)
 1905 0a10 10E0      		ldi r17,hi8(.LC1)
 1906               	.L184:
 1907               	.LM174:
 1908 0a12 00D0      		rcall .
 1909 0a14 00D0      		rcall .
 1910 0a16 EDB7      		in r30,__SP_L__
 1911 0a18 FEB7      		in r31,__SP_H__
 1912 0a1a 3196      		adiw r30,1
 1913 0a1c ADB7      		in r26,__SP_L__
 1914 0a1e BEB7      		in r27,__SP_H__
 1915 0a20 1296      		adiw r26,1+1
 1916 0a22 1C93      		st X,r17
 1917 0a24 0E93      		st -X,r16
 1918 0a26 1197      		sbiw r26,1
 1919 0a28 D601      		movw r26,r12
 1920 0a2a AC0F      		add r26,r28
 1921 0a2c BD1F      		adc r27,r29
 1922 0a2e 8C91      		ld r24,X
 1923 0a30 8283      		std Z+2,r24
 1924 0a32 1382      		std Z+3,__zero_reg__
 1925 0a34 0E94 0000 		call xprintf
 1926               	.LM175:
 1927 0a38 2196      		adiw r28,1
 1928 0a3a 0F90      		pop __tmp_reg__
 1929 0a3c 0F90      		pop __tmp_reg__
 1930 0a3e 0F90      		pop __tmp_reg__
 1931 0a40 0F90      		pop __tmp_reg__
 1932 0a42 CE15      		cp r28,r14
 1933 0a44 DF05      		cpc r29,r15
 1934 0a46 04F0      		brlt .L184
 1935               	.LM176:
 1936 0a48 80E2      		ldi r24,lo8(32)
 1937 0a4a 0E94 0000 		call xputc
 1938 0a4e E601      		movw r28,r12
 1939 0a50 8601      		movw r16,r12
 1940 0a52 0E0D      		add r16,r14
 1941 0a54 1F1D      		adc r17,r15
 1942               	.L186:
 1943               	.LM177:
 1944 0a56 9881      		ld r25,Y
 1945 0a58 892F      		mov r24,r25
 1946 0a5a 8052      		subi r24,lo8(-(-32))
 1947 0a5c 8F35      		cpi r24,lo8(95)
 1948 0a5e 00F0      		brlo .L185
 1949 0a60 9EE2      		ldi r25,lo8(46)
 1950               	.L185:
 1951 0a62 892F      		mov r24,r25
 1952 0a64 0E94 0000 		call xputc
 1953 0a68 2196      		adiw r28,1
 1954               	.LM178:
 1955 0a6a C017      		cp r28,r16
 1956 0a6c D107      		cpc r29,r17
 1957 0a6e 01F4      		brne .L186
 1958 0a70 00C0      		rjmp .L179
 1959               	.L182:
 1960               	.LM179:
 1961 0a72 E601      		movw r28,r12
 1962 0a74 00E0      		ldi r16,lo8(.LC3)
 1963 0a76 10E0      		ldi r17,hi8(.LC3)
 1964               	.L188:
 1965               	.LM180:
 1966 0a78 8991      		ld r24,Y+
 1967 0a7a 9991      		ld r25,Y+
 1968 0a7c A991      		ld r26,Y+
 1969 0a7e B991      		ld r27,Y+
 1970 0a80 00D0      		rcall .
 1971 0a82 00D0      		rcall .
 1972 0a84 00D0      		rcall .
 1973 0a86 EDB7      		in r30,__SP_L__
 1974 0a88 FEB7      		in r31,__SP_H__
 1975 0a8a 1283      		std Z+2,r17
 1976 0a8c 0183      		std Z+1,r16
 1977 0a8e 8383      		std Z+3,r24
 1978 0a90 9483      		std Z+4,r25
 1979 0a92 A583      		std Z+5,r26
 1980 0a94 B683      		std Z+6,r27
 1981 0a96 0E94 0000 		call xprintf
 1982               	.LM181:
 1983 0a9a 0894      		sec
 1984 0a9c E108      		sbc r14,__zero_reg__
 1985 0a9e F108      		sbc r15,__zero_reg__
 1986 0aa0 8DB7      		in r24,__SP_L__
 1987 0aa2 9EB7      		in r25,__SP_H__
 1988 0aa4 0696      		adiw r24,6
 1989 0aa6 0FB6      		in __tmp_reg__,__SREG__
 1990 0aa8 F894      		cli
 1991 0aaa 9EBF      		out __SP_H__,r25
 1992 0aac 0FBE      		out __SREG__,__tmp_reg__
 1993 0aae 8DBF      		out __SP_L__,r24
 1994 0ab0 E114      		cp r14,__zero_reg__
 1995 0ab2 F104      		cpc r15,__zero_reg__
 1996 0ab4 01F4      		brne .L188
 1997 0ab6 00C0      		rjmp .L179
 1998               	.L181:
 1999               	.LM182:
 2000 0ab8 E601      		movw r28,r12
 2001 0aba 00E0      		ldi r16,lo8(.LC2)
 2002 0abc 10E0      		ldi r17,hi8(.LC2)
 2003               	.L187:
 2004               	.LM183:
 2005 0abe 8991      		ld r24,Y+
 2006 0ac0 9991      		ld r25,Y+
 2007 0ac2 00D0      		rcall .
 2008 0ac4 00D0      		rcall .
 2009 0ac6 EDB7      		in r30,__SP_L__
 2010 0ac8 FEB7      		in r31,__SP_H__
 2011 0aca 1283      		std Z+2,r17
 2012 0acc 0183      		std Z+1,r16
 2013 0ace 9483      		std Z+4,r25
 2014 0ad0 8383      		std Z+3,r24
 2015 0ad2 0E94 0000 		call xprintf
 2016               	.LM184:
 2017 0ad6 0894      		sec
 2018 0ad8 E108      		sbc r14,__zero_reg__
 2019 0ada F108      		sbc r15,__zero_reg__
 2020 0adc 0F90      		pop __tmp_reg__
 2021 0ade 0F90      		pop __tmp_reg__
 2022 0ae0 0F90      		pop __tmp_reg__
 2023 0ae2 0F90      		pop __tmp_reg__
 2024 0ae4 E114      		cp r14,__zero_reg__
 2025 0ae6 F104      		cpc r15,__zero_reg__
 2026 0ae8 01F4      		brne .L187
 2027 0aea 00C0      		rjmp .L179
 2028               	.L183:
 2029               	.LM185:
 2030 0aec 80E2      		ldi r24,lo8(32)
 2031 0aee 0E94 0000 		call xputc
 2032 0af2 00C0      		rjmp .L179
 2033               	.LFE9:
 2035               		.lcomm outptr,2
 2036               		.comm xfunc_out,2,1
 2149               	.Letext0:
DEFINED SYMBOLS
                            *ABS*:00000000 xprintf.c
C:\DOCUME~1\ADMINI~1\LOCALS~1\Temp/ccMKOEDh.s:2      *ABS*:0000003f __SREG__
C:\DOCUME~1\ADMINI~1\LOCALS~1\Temp/ccMKOEDh.s:3      *ABS*:0000003e __SP_H__
C:\DOCUME~1\ADMINI~1\LOCALS~1\Temp/ccMKOEDh.s:4      *ABS*:0000003d __SP_L__
C:\DOCUME~1\ADMINI~1\LOCALS~1\Temp/ccMKOEDh.s:5      *ABS*:00000034 __CCP__
C:\DOCUME~1\ADMINI~1\LOCALS~1\Temp/ccMKOEDh.s:6      *ABS*:00000000 __tmp_reg__
C:\DOCUME~1\ADMINI~1\LOCALS~1\Temp/ccMKOEDh.s:7      *ABS*:00000001 __zero_reg__
C:\DOCUME~1\ADMINI~1\LOCALS~1\Temp/ccMKOEDh.s:18     .text:00000000 xputc
                             .bss:00000000 outptr
                            *COM*:00000002 xfunc_out
C:\DOCUME~1\ADMINI~1\LOCALS~1\Temp/ccMKOEDh.s:48     .text:00000028 xputs
C:\DOCUME~1\ADMINI~1\LOCALS~1\Temp/ccMKOEDh.s:81     .text:00000046 xfputs
C:\DOCUME~1\ADMINI~1\LOCALS~1\Temp/ccMKOEDh.s:130    .text:00000084 xvprintf
C:\DOCUME~1\ADMINI~1\LOCALS~1\Temp/ccMKOEDh.s:821    .text:0000045c xvprintf_P
C:\DOCUME~1\ADMINI~1\LOCALS~1\Temp/ccMKOEDh.s:1595   .text:00000856 xfprintf_P
C:\DOCUME~1\ADMINI~1\LOCALS~1\Temp/ccMKOEDh.s:1640   .text:00000898 xsprintf_P
C:\DOCUME~1\ADMINI~1\LOCALS~1\Temp/ccMKOEDh.s:1680   .text:000008d4 xprintf_P
C:\DOCUME~1\ADMINI~1\LOCALS~1\Temp/ccMKOEDh.s:1706   .text:000008f0 xfprintf
C:\DOCUME~1\ADMINI~1\LOCALS~1\Temp/ccMKOEDh.s:1751   .text:00000932 xsprintf
C:\DOCUME~1\ADMINI~1\LOCALS~1\Temp/ccMKOEDh.s:1791   .text:0000096e xprintf
C:\DOCUME~1\ADMINI~1\LOCALS~1\Temp/ccMKOEDh.s:1827   .text:0000098a put_dump

UNDEFINED SYMBOLS
__udivmodsi4
__do_copy_data
__do_clear_bss
